Archive member included to satisfy reference by file (symbol)

C:/Users/xeeen/ON_Semiconductor/PACK/ONSemiconductor/RSL10/3.7.606/lib/ble_core/Release/libblelib.a(prf-prf_utils.o)
                              ./code/ble_basc.o (prf_env_get)
C:/Users/xeeen/ON_Semiconductor/PACK/ONSemiconductor/RSL10/3.7.606/lib/ble_core/Release/libblelib.a(rwip.o)
                              ./code/ble_std.o (BLE_InitNoTL)
C:/Users/xeeen/ON_Semiconductor/PACK/ONSemiconductor/RSL10/3.7.606/lib/ble_core/Release/libblelib.a(rf_atlas.o)
                              C:/Users/xeeen/ON_Semiconductor/PACK/ONSemiconductor/RSL10/3.7.606/lib/ble_core/Release/libblelib.a(rwip.o) (rf_init)
C:/Users/xeeen/ON_Semiconductor/PACK/ONSemiconductor/RSL10/3.7.606/lib/ble_core/Release/libblelib.a(ecc_p256.o)
                              C:/Users/xeeen/ON_Semiconductor/PACK/ONSemiconductor/RSL10/3.7.606/lib/ble_core/Release/libblelib.a(rwip.o) (ecc_init)
C:/Users/xeeen/ON_Semiconductor/PACK/ONSemiconductor/RSL10/3.7.606/lib/ble_core/Release/libblelib.a(hci.o)
                              C:/Users/xeeen/ON_Semiconductor/PACK/ONSemiconductor/RSL10/3.7.606/lib/ble_core/Release/libblelib.a(rwip.o) (hci_init)
C:/Users/xeeen/ON_Semiconductor/PACK/ONSemiconductor/RSL10/3.7.606/lib/ble_core/Release/libblelib.a(hci_fc.o)
                              C:/Users/xeeen/ON_Semiconductor/PACK/ONSemiconductor/RSL10/3.7.606/lib/ble_core/Release/libblelib.a(hci.o) (hci_fc_init)
C:/Users/xeeen/ON_Semiconductor/PACK/ONSemiconductor/RSL10/3.7.606/lib/ble_core/Release/libblelib.a(hci_msg.o)
                              C:/Users/xeeen/ON_Semiconductor/PACK/ONSemiconductor/RSL10/3.7.606/lib/ble_core/Release/libblelib.a(hci.o) (hci_look_for_cmd_desc)
C:/Users/xeeen/ON_Semiconductor/PACK/ONSemiconductor/RSL10/3.7.606/lib/ble_core/Release/libblelib.a(ea.o)
                              C:/Users/xeeen/ON_Semiconductor/PACK/ONSemiconductor/RSL10/3.7.606/lib/ble_core/Release/libblelib.a(rwip.o) (ea_init)
C:/Users/xeeen/ON_Semiconductor/PACK/ONSemiconductor/RSL10/3.7.606/lib/ble_core/Release/libblelib.a(rwble.o)
                              C:/Users/xeeen/ON_Semiconductor/PACK/ONSemiconductor/RSL10/3.7.606/lib/ble_core/Release/libblelib.a(rwip.o) (rwble_init)
C:/Users/xeeen/ON_Semiconductor/PACK/ONSemiconductor/RSL10/3.7.606/lib/ble_core/Release/libblelib.a(llm.o)
                              C:/Users/xeeen/ON_Semiconductor/PACK/ONSemiconductor/RSL10/3.7.606/lib/ble_core/Release/libblelib.a(rwble.o) (llm_ble_ready)
C:/Users/xeeen/ON_Semiconductor/PACK/ONSemiconductor/RSL10/3.7.606/lib/ble_core/Release/libblelib.a(llm_task.o)
                              C:/Users/xeeen/ON_Semiconductor/PACK/ONSemiconductor/RSL10/3.7.606/lib/ble_core/Release/libblelib.a(llm.o) (llm_state)
C:/Users/xeeen/ON_Semiconductor/PACK/ONSemiconductor/RSL10/3.7.606/lib/ble_core/Release/libblelib.a(llm_util.o)
                              C:/Users/xeeen/ON_Semiconductor/PACK/ONSemiconductor/RSL10/3.7.606/lib/ble_core/Release/libblelib.a(llm.o) (llm_util_bd_addr_wl_position)
C:/Users/xeeen/ON_Semiconductor/PACK/ONSemiconductor/RSL10/3.7.606/lib/ble_core/Release/libblelib.a(lld.o)
                              C:/Users/xeeen/ON_Semiconductor/PACK/ONSemiconductor/RSL10/3.7.606/lib/ble_core/Release/libblelib.a(rwble.o) (lld_init)
C:/Users/xeeen/ON_Semiconductor/PACK/ONSemiconductor/RSL10/3.7.606/lib/ble_core/Release/libblelib.a(lld_evt.o)
                              C:/Users/xeeen/ON_Semiconductor/PACK/ONSemiconductor/RSL10/3.7.606/lib/ble_core/Release/libblelib.a(lld.o) (lld_evt_prevent_stop)
C:/Users/xeeen/ON_Semiconductor/PACK/ONSemiconductor/RSL10/3.7.606/lib/ble_core/Release/libblelib.a(lld_pdu.o)
                              C:/Users/xeeen/ON_Semiconductor/PACK/ONSemiconductor/RSL10/3.7.606/lib/ble_core/Release/libblelib.a(lld_evt.o) (lld_pdu_check)
C:/Users/xeeen/ON_Semiconductor/PACK/ONSemiconductor/RSL10/3.7.606/lib/ble_core/Release/libblelib.a(lld_sleep.o)
                              C:/Users/xeeen/ON_Semiconductor/PACK/ONSemiconductor/RSL10/3.7.606/lib/ble_core/Release/libblelib.a(lld.o) (lld_sleep_init)
C:/Users/xeeen/ON_Semiconductor/PACK/ONSemiconductor/RSL10/3.7.606/lib/ble_core/Release/libblelib.a(lld_util.o)
                              C:/Users/xeeen/ON_Semiconductor/PACK/ONSemiconductor/RSL10/3.7.606/lib/ble_core/Release/libblelib.a(llm_util.o) (lld_util_set_bd_address)
C:/Users/xeeen/ON_Semiconductor/PACK/ONSemiconductor/RSL10/3.7.606/lib/ble_core/Release/libblelib.a(lld_wlcoex.o)
                              C:/Users/xeeen/ON_Semiconductor/PACK/ONSemiconductor/RSL10/3.7.606/lib/ble_core/Release/libblelib.a(rwip.o) (lld_wlcoex_set)
C:/Users/xeeen/ON_Semiconductor/PACK/ONSemiconductor/RSL10/3.7.606/lib/ble_core/Release/libblelib.a(llc.o)
                              C:/Users/xeeen/ON_Semiconductor/PACK/ONSemiconductor/RSL10/3.7.606/lib/ble_core/Release/libblelib.a(rwble.o) (llc_init)
C:/Users/xeeen/ON_Semiconductor/PACK/ONSemiconductor/RSL10/3.7.606/lib/ble_core/Release/libblelib.a(llc_llcp.o)
                              C:/Users/xeeen/ON_Semiconductor/PACK/ONSemiconductor/RSL10/3.7.606/lib/ble_core/Release/libblelib.a(lld_pdu.o) (llc_llcp_recv_handler)
C:/Users/xeeen/ON_Semiconductor/PACK/ONSemiconductor/RSL10/3.7.606/lib/ble_core/Release/libblelib.a(llc_task.o)
                              C:/Users/xeeen/ON_Semiconductor/PACK/ONSemiconductor/RSL10/3.7.606/lib/ble_core/Release/libblelib.a(llc.o) (llc_state)
C:/Users/xeeen/ON_Semiconductor/PACK/ONSemiconductor/RSL10/3.7.606/lib/ble_core/Release/libblelib.a(llc_util.o)
                              C:/Users/xeeen/ON_Semiconductor/PACK/ONSemiconductor/RSL10/3.7.606/lib/ble_core/Release/libblelib.a(llm.o) (llc_util_get_free_conhdl)
C:/Users/xeeen/ON_Semiconductor/PACK/ONSemiconductor/RSL10/3.7.606/lib/ble_core/Release/libblelib.a(em_buf.o)
                              C:/Users/xeeen/ON_Semiconductor/PACK/ONSemiconductor/RSL10/3.7.606/lib/ble_core/Release/libblelib.a(rwble.o) (em_buf_init)
C:/Users/xeeen/ON_Semiconductor/PACK/ONSemiconductor/RSL10/3.7.606/lib/ble_core/Release/libblelib.a(rwble_hl.o)
                              C:/Users/xeeen/ON_Semiconductor/PACK/ONSemiconductor/RSL10/3.7.606/lib/ble_core/Release/libblelib.a(rwip.o) (rwble_hl_init)
C:/Users/xeeen/ON_Semiconductor/PACK/ONSemiconductor/RSL10/3.7.606/lib/ble_core/Release/libblelib.a(l2cm.o)
                              C:/Users/xeeen/ON_Semiconductor/PACK/ONSemiconductor/RSL10/3.7.606/lib/ble_core/Release/libblelib.a(rwble_hl.o) (l2cm_init)
C:/Users/xeeen/ON_Semiconductor/PACK/ONSemiconductor/RSL10/3.7.606/lib/ble_core/Release/libblelib.a(l2cc.o)
                              C:/Users/xeeen/ON_Semiconductor/PACK/ONSemiconductor/RSL10/3.7.606/lib/ble_core/Release/libblelib.a(l2cm.o) (l2cc_create)
C:/Users/xeeen/ON_Semiconductor/PACK/ONSemiconductor/RSL10/3.7.606/lib/ble_core/Release/libblelib.a(l2cc_lecb.o)
                              C:/Users/xeeen/ON_Semiconductor/PACK/ONSemiconductor/RSL10/3.7.606/lib/ble_core/Release/libblelib.a(l2cc.o) (l2cc_lecb_find)
C:/Users/xeeen/ON_Semiconductor/PACK/ONSemiconductor/RSL10/3.7.606/lib/ble_core/Release/libblelib.a(l2cc_pdu.o)
                              C:/Users/xeeen/ON_Semiconductor/PACK/ONSemiconductor/RSL10/3.7.606/lib/ble_core/Release/libblelib.a(l2cc.o) (l2cc_lecb_pdu_pack)
C:/Users/xeeen/ON_Semiconductor/PACK/ONSemiconductor/RSL10/3.7.606/lib/ble_core/Release/libblelib.a(l2cc_task.o)
                              C:/Users/xeeen/ON_Semiconductor/PACK/ONSemiconductor/RSL10/3.7.606/lib/ble_core/Release/libblelib.a(l2cc_lecb.o) (l2cc_pdu_alloc)
C:/Users/xeeen/ON_Semiconductor/PACK/ONSemiconductor/RSL10/3.7.606/lib/ble_core/Release/libblelib.a(gattm.o)
                              C:/Users/xeeen/ON_Semiconductor/PACK/ONSemiconductor/RSL10/3.7.606/lib/ble_core/Release/libblelib.a(rwble_hl.o) (gattm_init)
C:/Users/xeeen/ON_Semiconductor/PACK/ONSemiconductor/RSL10/3.7.606/lib/ble_core/Release/libblelib.a(gattm_task.o)
                              C:/Users/xeeen/ON_Semiconductor/PACK/ONSemiconductor/RSL10/3.7.606/lib/ble_core/Release/libblelib.a(gattm.o) (gattm_state)
C:/Users/xeeen/ON_Semiconductor/PACK/ONSemiconductor/RSL10/3.7.606/lib/ble_core/Release/libblelib.a(gattc.o)
                              C:/Users/xeeen/ON_Semiconductor/PACK/ONSemiconductor/RSL10/3.7.606/lib/ble_core/Release/libblelib.a(l2cc_pdu.o) (gattc_get_mtu)
C:/Users/xeeen/ON_Semiconductor/PACK/ONSemiconductor/RSL10/3.7.606/lib/ble_core/Release/libblelib.a(gattc_task.o)
                              C:/Users/xeeen/ON_Semiconductor/PACK/ONSemiconductor/RSL10/3.7.606/lib/ble_core/Release/libblelib.a(gattc.o) (gattc_state)
C:/Users/xeeen/ON_Semiconductor/PACK/ONSemiconductor/RSL10/3.7.606/lib/ble_core/Release/libblelib.a(atts.o)
                              C:/Users/xeeen/ON_Semiconductor/PACK/ONSemiconductor/RSL10/3.7.606/lib/ble_core/Release/libblelib.a(gattc_task.o) (atts_send_error)
C:/Users/xeeen/ON_Semiconductor/PACK/ONSemiconductor/RSL10/3.7.606/lib/ble_core/Release/libblelib.a(attm.o)
                              C:/Users/xeeen/ON_Semiconductor/PACK/ONSemiconductor/RSL10/3.7.606/lib/ble_core/Release/libblelib.a(gattc_task.o) (attm_convert_to128)
C:/Users/xeeen/ON_Semiconductor/PACK/ONSemiconductor/RSL10/3.7.606/lib/ble_core/Release/libblelib.a(attm_db.o)
                              C:/Users/xeeen/ON_Semiconductor/PACK/ONSemiconductor/RSL10/3.7.606/lib/ble_core/Release/libblelib.a(attm.o) (attmdb_svc_check_hdl)
C:/Users/xeeen/ON_Semiconductor/PACK/ONSemiconductor/RSL10/3.7.606/lib/ble_core/Release/libblelib.a(attc.o)
                              C:/Users/xeeen/ON_Semiconductor/PACK/ONSemiconductor/RSL10/3.7.606/lib/ble_core/Release/libblelib.a(gattc_task.o) (attc_send_att_req)
C:/Users/xeeen/ON_Semiconductor/PACK/ONSemiconductor/RSL10/3.7.606/lib/ble_core/Release/libblelib.a(gapm.o)
                              C:/Users/xeeen/ON_Semiconductor/PACK/ONSemiconductor/RSL10/3.7.606/lib/ble_core/Release/libblelib.a(gattc_task.o) (gapm_is_disc_connection)
C:/Users/xeeen/ON_Semiconductor/PACK/ONSemiconductor/RSL10/3.7.606/lib/ble_core/Release/libblelib.a(gapm_task.o)
                              C:/Users/xeeen/ON_Semiconductor/PACK/ONSemiconductor/RSL10/3.7.606/lib/ble_core/Release/libblelib.a(gapm.o) (gapm_state)
C:/Users/xeeen/ON_Semiconductor/PACK/ONSemiconductor/RSL10/3.7.606/lib/ble_core/Release/libblelib.a(gapm_util.o)
                              C:/Users/xeeen/ON_Semiconductor/PACK/ONSemiconductor/RSL10/3.7.606/lib/ble_core/Release/libblelib.a(gapm_task.o) (gapm_adv_op_sanity)
C:/Users/xeeen/ON_Semiconductor/PACK/ONSemiconductor/RSL10/3.7.606/lib/ble_core/Release/libblelib.a(gapc.o)
                              C:/Users/xeeen/ON_Semiconductor/PACK/ONSemiconductor/RSL10/3.7.606/lib/ble_core/Release/libblelib.a(gapm.o) (gapc_con_create)
C:/Users/xeeen/ON_Semiconductor/PACK/ONSemiconductor/RSL10/3.7.606/lib/ble_core/Release/libblelib.a(gapc_task.o)
                              C:/Users/xeeen/ON_Semiconductor/PACK/ONSemiconductor/RSL10/3.7.606/lib/ble_core/Release/libblelib.a(gapc.o) (gapc_state)
C:/Users/xeeen/ON_Semiconductor/PACK/ONSemiconductor/RSL10/3.7.606/lib/ble_core/Release/libblelib.a(llm_hci.o)
                              C:/Users/xeeen/ON_Semiconductor/PACK/ONSemiconductor/RSL10/3.7.606/lib/ble_core/Release/libblelib.a(llm_task.o) (hci_command_handler)
C:/Users/xeeen/ON_Semiconductor/PACK/ONSemiconductor/RSL10/3.7.606/lib/ble_core/Release/libblelib.a(llc_ch_asses.o)
                              C:/Users/xeeen/ON_Semiconductor/PACK/ONSemiconductor/RSL10/3.7.606/lib/ble_core/Release/libblelib.a(llc_util.o) (llc_ch_assess_local)
C:/Users/xeeen/ON_Semiconductor/PACK/ONSemiconductor/RSL10/3.7.606/lib/ble_core/Release/libblelib.a(llc_hci.o)
                              C:/Users/xeeen/ON_Semiconductor/PACK/ONSemiconductor/RSL10/3.7.606/lib/ble_core/Release/libblelib.a(llc_task.o) (llc_hci_command_handler)
C:/Users/xeeen/ON_Semiconductor/PACK/ONSemiconductor/RSL10/3.7.606/lib/ble_core/Release/libblelib.a(l2cc_sig.o)
                              C:/Users/xeeen/ON_Semiconductor/PACK/ONSemiconductor/RSL10/3.7.606/lib/ble_core/Release/libblelib.a(l2cc_task.o) (l2cc_sig_send_cmd_reject)
C:/Users/xeeen/ON_Semiconductor/PACK/ONSemiconductor/RSL10/3.7.606/lib/ble_core/Release/libblelib.a(smpm_api.o)
                              C:/Users/xeeen/ON_Semiconductor/PACK/ONSemiconductor/RSL10/3.7.606/lib/ble_core/Release/libblelib.a(gapm_task.o) (smpm_gen_rand_addr)
C:/Users/xeeen/ON_Semiconductor/PACK/ONSemiconductor/RSL10/3.7.606/lib/ble_core/Release/libblelib.a(smpc.o)
                              C:/Users/xeeen/ON_Semiconductor/PACK/ONSemiconductor/RSL10/3.7.606/lib/ble_core/Release/libblelib.a(gapc.o) (smpc_clear_timeout_timer)
C:/Users/xeeen/ON_Semiconductor/PACK/ONSemiconductor/RSL10/3.7.606/lib/ble_core/Release/libblelib.a(smpc_api.o)
                              C:/Users/xeeen/ON_Semiconductor/PACK/ONSemiconductor/RSL10/3.7.606/lib/ble_core/Release/libblelib.a(gapc_task.o) (smpc_pairing_start)
C:/Users/xeeen/ON_Semiconductor/PACK/ONSemiconductor/RSL10/3.7.606/lib/ble_core/Release/libblelib.a(smpc_crypto.o)
                              C:/Users/xeeen/ON_Semiconductor/PACK/ONSemiconductor/RSL10/3.7.606/lib/ble_core/Release/libblelib.a(smpc_api.o) (smpc_f4_complete)
C:/Users/xeeen/ON_Semiconductor/PACK/ONSemiconductor/RSL10/3.7.606/lib/ble_core/Release/libblelib.a(smpc_util.o)
                              C:/Users/xeeen/ON_Semiconductor/PACK/ONSemiconductor/RSL10/3.7.606/lib/ble_core/Release/libblelib.a(smpc.o) (smpc_check_param)
C:/Users/xeeen/ON_Semiconductor/PACK/ONSemiconductor/RSL10/3.7.606/lib/ble_core/Release/libblelib.a(gapm_hci.o)
                              C:/Users/xeeen/ON_Semiconductor/PACK/ONSemiconductor/RSL10/3.7.606/lib/ble_core/Release/libblelib.a(gapm_task.o) (gapm_hci_handler)
C:/Users/xeeen/ON_Semiconductor/PACK/ONSemiconductor/RSL10/3.7.606/lib/ble_core/Release/libblelib.a(gapc_hci.o)
                              C:/Users/xeeen/ON_Semiconductor/PACK/ONSemiconductor/RSL10/3.7.606/lib/ble_core/Release/libblelib.a(gapc_task.o) (gapc_hci_handler)
C:/Users/xeeen/ON_Semiconductor/PACK/ONSemiconductor/RSL10/3.7.606/lib/ble_core/Release/libblelib.a(gapc_sig.o)
                              C:/Users/xeeen/ON_Semiconductor/PACK/ONSemiconductor/RSL10/3.7.606/lib/ble_core/Release/libblelib.a(gapc_task.o) (gapc_sig_send_param_resp)
C:/Users/xeeen/ON_Semiconductor/PACK/ONSemiconductor/RSL10/3.7.606/lib/ble_core/Release/libkelib.a(rst_grosstime.o)
                              C:/Users/xeeen/ON_Semiconductor/PACK/ONSemiconductor/RSL10/3.7.606/lib/ble_core/Release/libblelib.a(gapm_task.o) (platform_reset)
C:/Users/xeeen/ON_Semiconductor/PACK/ONSemiconductor/RSL10/3.7.606/lib/ble_core/Release/libkelib.a(rwip2.o)
                              ./code/ble_std.o (Kernel_Init)
C:/Users/xeeen/ON_Semiconductor/PACK/ONSemiconductor/RSL10/3.7.606/lib/ble_core/Release/libkelib.a(ke.o)
                              C:/Users/xeeen/ON_Semiconductor/PACK/ONSemiconductor/RSL10/3.7.606/lib/ble_core/Release/libkelib.a(rwip2.o) (ke_init)
C:/Users/xeeen/ON_Semiconductor/PACK/ONSemiconductor/RSL10/3.7.606/lib/ble_core/Release/libkelib.a(ke_event.o)
                              C:/Users/xeeen/ON_Semiconductor/PACK/ONSemiconductor/RSL10/3.7.606/lib/ble_core/Release/libkelib.a(ke.o) (ke_event_init)
C:/Users/xeeen/ON_Semiconductor/PACK/ONSemiconductor/RSL10/3.7.606/lib/ble_core/Release/libkelib.a(ke_mem.o)
                              C:/Users/xeeen/ON_Semiconductor/PACK/ONSemiconductor/RSL10/3.7.606/lib/ble_core/Release/libkelib.a(rwip2.o) (ke_mem_init)
C:/Users/xeeen/ON_Semiconductor/PACK/ONSemiconductor/RSL10/3.7.606/lib/ble_core/Release/libkelib.a(ke_msg.o)
                              ./code/ble_basc.o (ke_msg_alloc)
C:/Users/xeeen/ON_Semiconductor/PACK/ONSemiconductor/RSL10/3.7.606/lib/ble_core/Release/libkelib.a(ke_task.o)
                              C:/Users/xeeen/ON_Semiconductor/PACK/ONSemiconductor/RSL10/3.7.606/lib/ble_core/Release/libkelib.a(ke.o) (ke_task_init)
C:/Users/xeeen/ON_Semiconductor/PACK/ONSemiconductor/RSL10/3.7.606/lib/ble_core/Release/libkelib.a(ke_timer.o)
                              C:/Users/xeeen/ON_Semiconductor/PACK/ONSemiconductor/RSL10/3.7.606/lib/ble_core/Release/libkelib.a(ke.o) (ke_timer_init)
C:/Users/xeeen/ON_Semiconductor/PACK/ONSemiconductor/RSL10/3.7.606/lib/ble_core/Release/libkelib.a(co_list.o)
                              C:/Users/xeeen/ON_Semiconductor/PACK/ONSemiconductor/RSL10/3.7.606/lib/ble_core/Release/libblelib.a(ecc_p256.o) (co_list_init)
C:/Users/xeeen/ON_Semiconductor/PACK/ONSemiconductor/RSL10/3.7.606/lib/ble_core/Release/libkelib.a(co_utils.o)
                              C:/Users/xeeen/ON_Semiconductor/PACK/ONSemiconductor/RSL10/3.7.606/lib/ble_core/Release/libblelib.a(llm.o) (co_bdaddr_compare)
C:/Users/xeeen/ON_Semiconductor/PACK/ONSemiconductor/RSL10/3.7.606/lib/ble_core/Release/libkelib.a(ke_queue.o)
                              C:/Users/xeeen/ON_Semiconductor/PACK/ONSemiconductor/RSL10/3.7.606/lib/ble_core/Release/libkelib.a(ke_task.o) (ke_queue_extract)
C:/Users/xeeen/ON_Semiconductor/PACK/ONSemiconductor/RSL10/3.7.606/lib/ble_profiles/Release/libbasc.a(basc.o)
                              C:/Users/xeeen/ON_Semiconductor/PACK/ONSemiconductor/RSL10/3.7.606/lib/ble_core/Release/libblelib.a(prf-prf_utils.o) (basc_prf_itf_get)
C:/Users/xeeen/ON_Semiconductor/PACK/ONSemiconductor/RSL10/3.7.606/lib/ble_profiles/Release/libbasc.a(basc_task.o)
                              C:/Users/xeeen/ON_Semiconductor/PACK/ONSemiconductor/RSL10/3.7.606/lib/ble_profiles/Release/libbasc.a(basc.o) (basc_default_handler)
c:/program files (x86)/on semiconductor/ide_v3.4.0.48/arm_tools/bin/../lib/gcc/arm-none-eabi/10.2.1/../../../../arm-none-eabi/lib/thumb/v7-m/nofp\libm.a(lib_a-s_round.o)
                              ./code/ui_handler.o (round)
c:/program files (x86)/on semiconductor/ide_v3.4.0.48/arm_tools/bin/../lib/gcc/arm-none-eabi/10.2.1/thumb/v7-m/nofp\libgcc.a(_arm_muldf3.o)
                              ./code/ui_handler.o (__aeabi_dmul)
c:/program files (x86)/on semiconductor/ide_v3.4.0.48/arm_tools/bin/../lib/gcc/arm-none-eabi/10.2.1/thumb/v7-m/nofp\libgcc.a(_arm_mulsf3.o)
                              C:/Users/xeeen/ON_Semiconductor/PACK/ONSemiconductor/RSL10/3.7.606/lib/ble_core/Release/libblelib.a(rwip.o) (__aeabi_fmul)
c:/program files (x86)/on semiconductor/ide_v3.4.0.48/arm_tools/bin/../lib/gcc/arm-none-eabi/10.2.1/thumb/v7-m/nofp\libgcc.a(_arm_addsubdf3.o)
                              C:/Users/xeeen/ON_Semiconductor/PACK/ONSemiconductor/RSL10/3.7.606/lib/ble_core/Release/libblelib.a(rf_atlas.o) (__aeabi_dsub)
c:/program files (x86)/on semiconductor/ide_v3.4.0.48/arm_tools/bin/../lib/gcc/arm-none-eabi/10.2.1/thumb/v7-m/nofp\libgcc.a(_arm_muldivdf3.o)
                              ./RTE/Device/RSL10/rsl10_sys_rffe.o (__aeabi_ddiv)
c:/program files (x86)/on semiconductor/ide_v3.4.0.48/arm_tools/bin/../lib/gcc/arm-none-eabi/10.2.1/thumb/v7-m/nofp\libgcc.a(_arm_fixdfsi.o)
                              ./code/ui_handler.o (__aeabi_d2iz)
c:/program files (x86)/on semiconductor/ide_v3.4.0.48/arm_tools/bin/../lib/gcc/arm-none-eabi/10.2.1/thumb/v7-m/nofp\libgcc.a(_arm_fixunsdfsi.o)
                              ./code/ui_handler.o (__aeabi_d2uiz)
c:/program files (x86)/on semiconductor/ide_v3.4.0.48/arm_tools/bin/../lib/gcc/arm-none-eabi/10.2.1/thumb/v7-m/nofp\libgcc.a(_arm_truncdfsf2.o)
                              C:/Users/xeeen/ON_Semiconductor/PACK/ONSemiconductor/RSL10/3.7.606/lib/ble_core/Release/libblelib.a(rf_atlas.o) (__aeabi_d2f)
c:/program files (x86)/on semiconductor/ide_v3.4.0.48/arm_tools/bin/../lib/gcc/arm-none-eabi/10.2.1/thumb/v7-m/nofp\libgcc.a(_arm_fixsfsi.o)
                              C:/Users/xeeen/ON_Semiconductor/PACK/ONSemiconductor/RSL10/3.7.606/lib/ble_core/Release/libblelib.a(rf_atlas.o) (__aeabi_f2iz)
c:/program files (x86)/on semiconductor/ide_v3.4.0.48/arm_tools/bin/../lib/gcc/arm-none-eabi/10.2.1/thumb/v7-m/nofp\libgcc.a(_aeabi_ldivmod.o)
                              ./RTE/Device/RSL10/rsl10_sys_asrc.o (__aeabi_ldivmod)
c:/program files (x86)/on semiconductor/ide_v3.4.0.48/arm_tools/bin/../lib/gcc/arm-none-eabi/10.2.1/thumb/v7-m/nofp\libgcc.a(_aeabi_uldivmod.o)
                              C:/Users/xeeen/ON_Semiconductor/PACK/ONSemiconductor/RSL10/3.7.606/lib/ble_core/Release/libblelib.a(rwip.o) (__aeabi_uldivmod)
c:/program files (x86)/on semiconductor/ide_v3.4.0.48/arm_tools/bin/../lib/gcc/arm-none-eabi/10.2.1/thumb/v7-m/nofp\libgcc.a(_udivmoddi4.o)
                              c:/program files (x86)/on semiconductor/ide_v3.4.0.48/arm_tools/bin/../lib/gcc/arm-none-eabi/10.2.1/thumb/v7-m/nofp\libgcc.a(_aeabi_ldivmod.o) (__udivmoddi4)
c:/program files (x86)/on semiconductor/ide_v3.4.0.48/arm_tools/bin/../lib/gcc/arm-none-eabi/10.2.1/thumb/v7-m/nofp\libgcc.a(_dvmd_tls.o)
                              c:/program files (x86)/on semiconductor/ide_v3.4.0.48/arm_tools/bin/../lib/gcc/arm-none-eabi/10.2.1/thumb/v7-m/nofp\libgcc.a(_aeabi_ldivmod.o) (__aeabi_ldiv0)
c:/program files (x86)/on semiconductor/ide_v3.4.0.48/arm_tools/bin/../lib/gcc/arm-none-eabi/10.2.1/../../../../arm-none-eabi/lib/thumb/v7-m/nofp\libg_nano.a(lib_a-errno.o)
                              ./RTE/Device/RSL10/sbrk.o (__errno)
c:/program files (x86)/on semiconductor/ide_v3.4.0.48/arm_tools/bin/../lib/gcc/arm-none-eabi/10.2.1/../../../../arm-none-eabi/lib/thumb/v7-m/nofp\libg_nano.a(lib_a-impure.o)
                              c:/program files (x86)/on semiconductor/ide_v3.4.0.48/arm_tools/bin/../lib/gcc/arm-none-eabi/10.2.1/../../../../arm-none-eabi/lib/thumb/v7-m/nofp\libg_nano.a(lib_a-errno.o) (_impure_ptr)
c:/program files (x86)/on semiconductor/ide_v3.4.0.48/arm_tools/bin/../lib/gcc/arm-none-eabi/10.2.1/../../../../arm-none-eabi/lib/thumb/v7-m/nofp\libg_nano.a(lib_a-malloc.o)
                              ./code/ble_std.o (malloc)
c:/program files (x86)/on semiconductor/ide_v3.4.0.48/arm_tools/bin/../lib/gcc/arm-none-eabi/10.2.1/../../../../arm-none-eabi/lib/thumb/v7-m/nofp\libg_nano.a(lib_a-memcmp.o)
                              ./code/ble_custom.o (memcmp)
c:/program files (x86)/on semiconductor/ide_v3.4.0.48/arm_tools/bin/../lib/gcc/arm-none-eabi/10.2.1/../../../../arm-none-eabi/lib/thumb/v7-m/nofp\libg_nano.a(lib_a-memcpy-stub.o)
                              ./code/ble_basc.o (memcpy)
c:/program files (x86)/on semiconductor/ide_v3.4.0.48/arm_tools/bin/../lib/gcc/arm-none-eabi/10.2.1/../../../../arm-none-eabi/lib/thumb/v7-m/nofp\libg_nano.a(lib_a-memset.o)
                              ./code/app_init.o (memset)
c:/program files (x86)/on semiconductor/ide_v3.4.0.48/arm_tools/bin/../lib/gcc/arm-none-eabi/10.2.1/../../../../arm-none-eabi/lib/thumb/v7-m/nofp\libg_nano.a(lib_a-nano-freer.o)
                              c:/program files (x86)/on semiconductor/ide_v3.4.0.48/arm_tools/bin/../lib/gcc/arm-none-eabi/10.2.1/../../../../arm-none-eabi/lib/thumb/v7-m/nofp\libg_nano.a(lib_a-malloc.o) (_free_r)
c:/program files (x86)/on semiconductor/ide_v3.4.0.48/arm_tools/bin/../lib/gcc/arm-none-eabi/10.2.1/../../../../arm-none-eabi/lib/thumb/v7-m/nofp\libg_nano.a(lib_a-nano-mallocr.o)
                              c:/program files (x86)/on semiconductor/ide_v3.4.0.48/arm_tools/bin/../lib/gcc/arm-none-eabi/10.2.1/../../../../arm-none-eabi/lib/thumb/v7-m/nofp\libg_nano.a(lib_a-malloc.o) (_malloc_r)
c:/program files (x86)/on semiconductor/ide_v3.4.0.48/arm_tools/bin/../lib/gcc/arm-none-eabi/10.2.1/../../../../arm-none-eabi/lib/thumb/v7-m/nofp\libg_nano.a(lib_a-rand.o)
                              ./code/ble_std.o (srand)
c:/program files (x86)/on semiconductor/ide_v3.4.0.48/arm_tools/bin/../lib/gcc/arm-none-eabi/10.2.1/../../../../arm-none-eabi/lib/thumb/v7-m/nofp\libg_nano.a(lib_a-sbrkr.o)
                              c:/program files (x86)/on semiconductor/ide_v3.4.0.48/arm_tools/bin/../lib/gcc/arm-none-eabi/10.2.1/../../../../arm-none-eabi/lib/thumb/v7-m/nofp\libg_nano.a(lib_a-nano-mallocr.o) (_sbrk_r)
c:/program files (x86)/on semiconductor/ide_v3.4.0.48/arm_tools/bin/../lib/gcc/arm-none-eabi/10.2.1/../../../../arm-none-eabi/lib/thumb/v7-m/nofp\libg_nano.a(lib_a-strlen.o)
                              ./RTE/Utility/SEGGER_RTT.o (strlen)
c:/program files (x86)/on semiconductor/ide_v3.4.0.48/arm_tools/bin/../lib/gcc/arm-none-eabi/10.2.1/../../../../arm-none-eabi/lib/thumb/v7-m/nofp\libg_nano.a(lib_a-assert.o)
                              c:/program files (x86)/on semiconductor/ide_v3.4.0.48/arm_tools/bin/../lib/gcc/arm-none-eabi/10.2.1/../../../../arm-none-eabi/lib/thumb/v7-m/nofp\libg_nano.a(lib_a-rand.o) (__assert_func)
c:/program files (x86)/on semiconductor/ide_v3.4.0.48/arm_tools/bin/../lib/gcc/arm-none-eabi/10.2.1/../../../../arm-none-eabi/lib/thumb/v7-m/nofp\libg_nano.a(lib_a-fprintf.o)
                              c:/program files (x86)/on semiconductor/ide_v3.4.0.48/arm_tools/bin/../lib/gcc/arm-none-eabi/10.2.1/../../../../arm-none-eabi/lib/thumb/v7-m/nofp\libg_nano.a(lib_a-assert.o) (fiprintf)
c:/program files (x86)/on semiconductor/ide_v3.4.0.48/arm_tools/bin/../lib/gcc/arm-none-eabi/10.2.1/../../../../arm-none-eabi/lib/thumb/v7-m/nofp\libg_nano.a(lib_a-mlock.o)
                              c:/program files (x86)/on semiconductor/ide_v3.4.0.48/arm_tools/bin/../lib/gcc/arm-none-eabi/10.2.1/../../../../arm-none-eabi/lib/thumb/v7-m/nofp\libg_nano.a(lib_a-nano-freer.o) (__malloc_lock)
c:/program files (x86)/on semiconductor/ide_v3.4.0.48/arm_tools/bin/../lib/gcc/arm-none-eabi/10.2.1/../../../../arm-none-eabi/lib/thumb/v7-m/nofp\libg_nano.a(lib_a-nano-vfprintf.o)
                              c:/program files (x86)/on semiconductor/ide_v3.4.0.48/arm_tools/bin/../lib/gcc/arm-none-eabi/10.2.1/../../../../arm-none-eabi/lib/thumb/v7-m/nofp\libg_nano.a(lib_a-fprintf.o) (_vfprintf_r)
c:/program files (x86)/on semiconductor/ide_v3.4.0.48/arm_tools/bin/../lib/gcc/arm-none-eabi/10.2.1/../../../../arm-none-eabi/lib/thumb/v7-m/nofp\libg_nano.a(lib_a-nano-vfprintf_i.o)
                              c:/program files (x86)/on semiconductor/ide_v3.4.0.48/arm_tools/bin/../lib/gcc/arm-none-eabi/10.2.1/../../../../arm-none-eabi/lib/thumb/v7-m/nofp\libg_nano.a(lib_a-nano-vfprintf.o) (_printf_i)
c:/program files (x86)/on semiconductor/ide_v3.4.0.48/arm_tools/bin/../lib/gcc/arm-none-eabi/10.2.1/../../../../arm-none-eabi/lib/thumb/v7-m/nofp\libg_nano.a(lib_a-reent.o)
                              c:/program files (x86)/on semiconductor/ide_v3.4.0.48/arm_tools/bin/../lib/gcc/arm-none-eabi/10.2.1/../../../../arm-none-eabi/lib/thumb/v7-m/nofp\libg_nano.a(lib_a-sbrkr.o) (errno)
c:/program files (x86)/on semiconductor/ide_v3.4.0.48/arm_tools/bin/../lib/gcc/arm-none-eabi/10.2.1/../../../../arm-none-eabi/lib/thumb/v7-m/nofp\libg_nano.a(lib_a-wbuf.o)
                              c:/program files (x86)/on semiconductor/ide_v3.4.0.48/arm_tools/bin/../lib/gcc/arm-none-eabi/10.2.1/../../../../arm-none-eabi/lib/thumb/v7-m/nofp\libg_nano.a(lib_a-nano-vfprintf.o) (__swbuf_r)
c:/program files (x86)/on semiconductor/ide_v3.4.0.48/arm_tools/bin/../lib/gcc/arm-none-eabi/10.2.1/../../../../arm-none-eabi/lib/thumb/v7-m/nofp\libg_nano.a(lib_a-wsetup.o)
                              c:/program files (x86)/on semiconductor/ide_v3.4.0.48/arm_tools/bin/../lib/gcc/arm-none-eabi/10.2.1/../../../../arm-none-eabi/lib/thumb/v7-m/nofp\libg_nano.a(lib_a-nano-vfprintf.o) (__swsetup_r)
c:/program files (x86)/on semiconductor/ide_v3.4.0.48/arm_tools/bin/../lib/gcc/arm-none-eabi/10.2.1/../../../../arm-none-eabi/lib/thumb/v7-m/nofp\libg_nano.a(lib_a-abort.o)
                              c:/program files (x86)/on semiconductor/ide_v3.4.0.48/arm_tools/bin/../lib/gcc/arm-none-eabi/10.2.1/../../../../arm-none-eabi/lib/thumb/v7-m/nofp\libg_nano.a(lib_a-assert.o) (abort)
c:/program files (x86)/on semiconductor/ide_v3.4.0.48/arm_tools/bin/../lib/gcc/arm-none-eabi/10.2.1/../../../../arm-none-eabi/lib/thumb/v7-m/nofp\libg_nano.a(lib_a-fflush.o)
                              c:/program files (x86)/on semiconductor/ide_v3.4.0.48/arm_tools/bin/../lib/gcc/arm-none-eabi/10.2.1/../../../../arm-none-eabi/lib/thumb/v7-m/nofp\libg_nano.a(lib_a-wbuf.o) (_fflush_r)
c:/program files (x86)/on semiconductor/ide_v3.4.0.48/arm_tools/bin/../lib/gcc/arm-none-eabi/10.2.1/../../../../arm-none-eabi/lib/thumb/v7-m/nofp\libg_nano.a(lib_a-findfp.o)
                              c:/program files (x86)/on semiconductor/ide_v3.4.0.48/arm_tools/bin/../lib/gcc/arm-none-eabi/10.2.1/../../../../arm-none-eabi/lib/thumb/v7-m/nofp\libg_nano.a(lib_a-nano-vfprintf.o) (__sinit)
c:/program files (x86)/on semiconductor/ide_v3.4.0.48/arm_tools/bin/../lib/gcc/arm-none-eabi/10.2.1/../../../../arm-none-eabi/lib/thumb/v7-m/nofp\libg_nano.a(lib_a-fvwrite.o)
                              c:/program files (x86)/on semiconductor/ide_v3.4.0.48/arm_tools/bin/../lib/gcc/arm-none-eabi/10.2.1/../../../../arm-none-eabi/lib/thumb/v7-m/nofp\libg_nano.a(lib_a-nano-vfprintf.o) (__sfvwrite_r)
c:/program files (x86)/on semiconductor/ide_v3.4.0.48/arm_tools/bin/../lib/gcc/arm-none-eabi/10.2.1/../../../../arm-none-eabi/lib/thumb/v7-m/nofp\libg_nano.a(lib_a-fwalk.o)
                              c:/program files (x86)/on semiconductor/ide_v3.4.0.48/arm_tools/bin/../lib/gcc/arm-none-eabi/10.2.1/../../../../arm-none-eabi/lib/thumb/v7-m/nofp\libg_nano.a(lib_a-findfp.o) (_fwalk)
c:/program files (x86)/on semiconductor/ide_v3.4.0.48/arm_tools/bin/../lib/gcc/arm-none-eabi/10.2.1/../../../../arm-none-eabi/lib/thumb/v7-m/nofp\libg_nano.a(lib_a-lock.o)
                              c:/program files (x86)/on semiconductor/ide_v3.4.0.48/arm_tools/bin/../lib/gcc/arm-none-eabi/10.2.1/../../../../arm-none-eabi/lib/thumb/v7-m/nofp\libg_nano.a(lib_a-findfp.o) (__retarget_lock_init_recursive)
c:/program files (x86)/on semiconductor/ide_v3.4.0.48/arm_tools/bin/../lib/gcc/arm-none-eabi/10.2.1/../../../../arm-none-eabi/lib/thumb/v7-m/nofp\libg_nano.a(lib_a-makebuf.o)
                              c:/program files (x86)/on semiconductor/ide_v3.4.0.48/arm_tools/bin/../lib/gcc/arm-none-eabi/10.2.1/../../../../arm-none-eabi/lib/thumb/v7-m/nofp\libg_nano.a(lib_a-wsetup.o) (__smakebuf_r)
c:/program files (x86)/on semiconductor/ide_v3.4.0.48/arm_tools/bin/../lib/gcc/arm-none-eabi/10.2.1/../../../../arm-none-eabi/lib/thumb/v7-m/nofp\libg_nano.a(lib_a-memchr-stub.o)
                              c:/program files (x86)/on semiconductor/ide_v3.4.0.48/arm_tools/bin/../lib/gcc/arm-none-eabi/10.2.1/../../../../arm-none-eabi/lib/thumb/v7-m/nofp\libg_nano.a(lib_a-nano-vfprintf.o) (memchr)
c:/program files (x86)/on semiconductor/ide_v3.4.0.48/arm_tools/bin/../lib/gcc/arm-none-eabi/10.2.1/../../../../arm-none-eabi/lib/thumb/v7-m/nofp\libg_nano.a(lib_a-memmove.o)
                              c:/program files (x86)/on semiconductor/ide_v3.4.0.48/arm_tools/bin/../lib/gcc/arm-none-eabi/10.2.1/../../../../arm-none-eabi/lib/thumb/v7-m/nofp\libg_nano.a(lib_a-fvwrite.o) (memmove)
c:/program files (x86)/on semiconductor/ide_v3.4.0.48/arm_tools/bin/../lib/gcc/arm-none-eabi/10.2.1/../../../../arm-none-eabi/lib/thumb/v7-m/nofp\libg_nano.a(lib_a-nano-reallocr.o)
                              c:/program files (x86)/on semiconductor/ide_v3.4.0.48/arm_tools/bin/../lib/gcc/arm-none-eabi/10.2.1/../../../../arm-none-eabi/lib/thumb/v7-m/nofp\libg_nano.a(lib_a-fvwrite.o) (_realloc_r)
c:/program files (x86)/on semiconductor/ide_v3.4.0.48/arm_tools/bin/../lib/gcc/arm-none-eabi/10.2.1/../../../../arm-none-eabi/lib/thumb/v7-m/nofp\libg_nano.a(lib_a-signal.o)
                              c:/program files (x86)/on semiconductor/ide_v3.4.0.48/arm_tools/bin/../lib/gcc/arm-none-eabi/10.2.1/../../../../arm-none-eabi/lib/thumb/v7-m/nofp\libg_nano.a(lib_a-abort.o) (raise)
c:/program files (x86)/on semiconductor/ide_v3.4.0.48/arm_tools/bin/../lib/gcc/arm-none-eabi/10.2.1/../../../../arm-none-eabi/lib/thumb/v7-m/nofp\libg_nano.a(lib_a-signalr.o)
                              c:/program files (x86)/on semiconductor/ide_v3.4.0.48/arm_tools/bin/../lib/gcc/arm-none-eabi/10.2.1/../../../../arm-none-eabi/lib/thumb/v7-m/nofp\libg_nano.a(lib_a-signal.o) (_kill_r)
c:/program files (x86)/on semiconductor/ide_v3.4.0.48/arm_tools/bin/../lib/gcc/arm-none-eabi/10.2.1/../../../../arm-none-eabi/lib/thumb/v7-m/nofp\libg_nano.a(lib_a-stdio.o)
                              c:/program files (x86)/on semiconductor/ide_v3.4.0.48/arm_tools/bin/../lib/gcc/arm-none-eabi/10.2.1/../../../../arm-none-eabi/lib/thumb/v7-m/nofp\libg_nano.a(lib_a-findfp.o) (__sread)
c:/program files (x86)/on semiconductor/ide_v3.4.0.48/arm_tools/bin/../lib/gcc/arm-none-eabi/10.2.1/../../../../arm-none-eabi/lib/thumb/v7-m/nofp\libg_nano.a(lib_a-writer.o)
                              c:/program files (x86)/on semiconductor/ide_v3.4.0.48/arm_tools/bin/../lib/gcc/arm-none-eabi/10.2.1/../../../../arm-none-eabi/lib/thumb/v7-m/nofp\libg_nano.a(lib_a-stdio.o) (_write_r)
c:/program files (x86)/on semiconductor/ide_v3.4.0.48/arm_tools/bin/../lib/gcc/arm-none-eabi/10.2.1/../../../../arm-none-eabi/lib/thumb/v7-m/nofp\libg_nano.a(lib_a-closer.o)
                              c:/program files (x86)/on semiconductor/ide_v3.4.0.48/arm_tools/bin/../lib/gcc/arm-none-eabi/10.2.1/../../../../arm-none-eabi/lib/thumb/v7-m/nofp\libg_nano.a(lib_a-stdio.o) (_close_r)
c:/program files (x86)/on semiconductor/ide_v3.4.0.48/arm_tools/bin/../lib/gcc/arm-none-eabi/10.2.1/../../../../arm-none-eabi/lib/thumb/v7-m/nofp\libg_nano.a(lib_a-fstatr.o)
                              c:/program files (x86)/on semiconductor/ide_v3.4.0.48/arm_tools/bin/../lib/gcc/arm-none-eabi/10.2.1/../../../../arm-none-eabi/lib/thumb/v7-m/nofp\libg_nano.a(lib_a-makebuf.o) (_fstat_r)
c:/program files (x86)/on semiconductor/ide_v3.4.0.48/arm_tools/bin/../lib/gcc/arm-none-eabi/10.2.1/../../../../arm-none-eabi/lib/thumb/v7-m/nofp\libg_nano.a(lib_a-isattyr.o)
                              c:/program files (x86)/on semiconductor/ide_v3.4.0.48/arm_tools/bin/../lib/gcc/arm-none-eabi/10.2.1/../../../../arm-none-eabi/lib/thumb/v7-m/nofp\libg_nano.a(lib_a-makebuf.o) (_isatty_r)
c:/program files (x86)/on semiconductor/ide_v3.4.0.48/arm_tools/bin/../lib/gcc/arm-none-eabi/10.2.1/../../../../arm-none-eabi/lib/thumb/v7-m/nofp\libg_nano.a(lib_a-lseekr.o)
                              c:/program files (x86)/on semiconductor/ide_v3.4.0.48/arm_tools/bin/../lib/gcc/arm-none-eabi/10.2.1/../../../../arm-none-eabi/lib/thumb/v7-m/nofp\libg_nano.a(lib_a-stdio.o) (_lseek_r)
c:/program files (x86)/on semiconductor/ide_v3.4.0.48/arm_tools/bin/../lib/gcc/arm-none-eabi/10.2.1/../../../../arm-none-eabi/lib/thumb/v7-m/nofp\libg_nano.a(lib_a-nano-msizer.o)
                              c:/program files (x86)/on semiconductor/ide_v3.4.0.48/arm_tools/bin/../lib/gcc/arm-none-eabi/10.2.1/../../../../arm-none-eabi/lib/thumb/v7-m/nofp\libg_nano.a(lib_a-nano-reallocr.o) (_malloc_usable_size_r)
c:/program files (x86)/on semiconductor/ide_v3.4.0.48/arm_tools/bin/../lib/gcc/arm-none-eabi/10.2.1/../../../../arm-none-eabi/lib/thumb/v7-m/nofp\libg_nano.a(lib_a-readr.o)
                              c:/program files (x86)/on semiconductor/ide_v3.4.0.48/arm_tools/bin/../lib/gcc/arm-none-eabi/10.2.1/../../../../arm-none-eabi/lib/thumb/v7-m/nofp\libg_nano.a(lib_a-stdio.o) (_read_r)
c:/program files (x86)/on semiconductor/ide_v3.4.0.48/arm_tools/bin/../lib/gcc/arm-none-eabi/10.2.1/../../../../arm-none-eabi/lib/thumb/v7-m/nofp\libnosys.a(close.o)
                              c:/program files (x86)/on semiconductor/ide_v3.4.0.48/arm_tools/bin/../lib/gcc/arm-none-eabi/10.2.1/../../../../arm-none-eabi/lib/thumb/v7-m/nofp\libg_nano.a(lib_a-closer.o) (_close)
c:/program files (x86)/on semiconductor/ide_v3.4.0.48/arm_tools/bin/../lib/gcc/arm-none-eabi/10.2.1/../../../../arm-none-eabi/lib/thumb/v7-m/nofp\libnosys.a(fstat.o)
                              c:/program files (x86)/on semiconductor/ide_v3.4.0.48/arm_tools/bin/../lib/gcc/arm-none-eabi/10.2.1/../../../../arm-none-eabi/lib/thumb/v7-m/nofp\libg_nano.a(lib_a-fstatr.o) (_fstat)
c:/program files (x86)/on semiconductor/ide_v3.4.0.48/arm_tools/bin/../lib/gcc/arm-none-eabi/10.2.1/../../../../arm-none-eabi/lib/thumb/v7-m/nofp\libnosys.a(getpid.o)
                              c:/program files (x86)/on semiconductor/ide_v3.4.0.48/arm_tools/bin/../lib/gcc/arm-none-eabi/10.2.1/../../../../arm-none-eabi/lib/thumb/v7-m/nofp\libg_nano.a(lib_a-signalr.o) (_getpid)
c:/program files (x86)/on semiconductor/ide_v3.4.0.48/arm_tools/bin/../lib/gcc/arm-none-eabi/10.2.1/../../../../arm-none-eabi/lib/thumb/v7-m/nofp\libnosys.a(isatty.o)
                              c:/program files (x86)/on semiconductor/ide_v3.4.0.48/arm_tools/bin/../lib/gcc/arm-none-eabi/10.2.1/../../../../arm-none-eabi/lib/thumb/v7-m/nofp\libg_nano.a(lib_a-isattyr.o) (_isatty)
c:/program files (x86)/on semiconductor/ide_v3.4.0.48/arm_tools/bin/../lib/gcc/arm-none-eabi/10.2.1/../../../../arm-none-eabi/lib/thumb/v7-m/nofp\libnosys.a(kill.o)
                              c:/program files (x86)/on semiconductor/ide_v3.4.0.48/arm_tools/bin/../lib/gcc/arm-none-eabi/10.2.1/../../../../arm-none-eabi/lib/thumb/v7-m/nofp\libg_nano.a(lib_a-signalr.o) (_kill)
c:/program files (x86)/on semiconductor/ide_v3.4.0.48/arm_tools/bin/../lib/gcc/arm-none-eabi/10.2.1/../../../../arm-none-eabi/lib/thumb/v7-m/nofp\libnosys.a(lseek.o)
                              c:/program files (x86)/on semiconductor/ide_v3.4.0.48/arm_tools/bin/../lib/gcc/arm-none-eabi/10.2.1/../../../../arm-none-eabi/lib/thumb/v7-m/nofp\libg_nano.a(lib_a-lseekr.o) (_lseek)
c:/program files (x86)/on semiconductor/ide_v3.4.0.48/arm_tools/bin/../lib/gcc/arm-none-eabi/10.2.1/../../../../arm-none-eabi/lib/thumb/v7-m/nofp\libnosys.a(read.o)
                              c:/program files (x86)/on semiconductor/ide_v3.4.0.48/arm_tools/bin/../lib/gcc/arm-none-eabi/10.2.1/../../../../arm-none-eabi/lib/thumb/v7-m/nofp\libg_nano.a(lib_a-readr.o) (_read)
c:/program files (x86)/on semiconductor/ide_v3.4.0.48/arm_tools/bin/../lib/gcc/arm-none-eabi/10.2.1/../../../../arm-none-eabi/lib/thumb/v7-m/nofp\libnosys.a(write.o)
                              c:/program files (x86)/on semiconductor/ide_v3.4.0.48/arm_tools/bin/../lib/gcc/arm-none-eabi/10.2.1/../../../../arm-none-eabi/lib/thumb/v7-m/nofp\libg_nano.a(lib_a-writer.o) (_write)
c:/program files (x86)/on semiconductor/ide_v3.4.0.48/arm_tools/bin/../lib/gcc/arm-none-eabi/10.2.1/../../../../arm-none-eabi/lib/thumb/v7-m/nofp\libnosys.a(_exit.o)
                              c:/program files (x86)/on semiconductor/ide_v3.4.0.48/arm_tools/bin/../lib/gcc/arm-none-eabi/10.2.1/../../../../arm-none-eabi/lib/thumb/v7-m/nofp\libg_nano.a(lib_a-abort.o) (_exit)

Discarded input sections

 .text          0x00000000        0x0 ./code/app_bass.o
 .data          0x00000000        0x0 ./code/app_bass.o
 .bss           0x00000000        0x0 ./code/app_bass.o
 .text          0x00000000        0x0 ./code/app_init.o
 .data          0x00000000        0x0 ./code/app_init.o
 .bss           0x00000000        0x0 ./code/app_init.o
 .text          0x00000000        0x0 ./code/app_process.o
 .data          0x00000000        0x0 ./code/app_process.o
 .bss           0x00000000        0x0 ./code/app_process.o
 .text          0x00000000        0x0 ./code/ble_basc.o
 .data          0x00000000        0x0 ./code/ble_basc.o
 .bss           0x00000000        0x0 ./code/ble_basc.o
 .text.Batt_SendReadInfoReq
                0x00000000       0x52 ./code/ble_basc.o
 .text          0x00000000        0x0 ./code/ble_custom.o
 .data          0x00000000        0x0 ./code/ble_custom.o
 .bss           0x00000000        0x0 ./code/ble_custom.o
 .text.CustomSrvice_SendReadCmd
                0x00000000       0x66 ./code/ble_custom.o
 .text.J10_SendReadCmd
                0x00000000      0x104 ./code/ble_custom.o
 .text          0x00000000        0x0 ./code/ble_std.o
 .data          0x00000000        0x0 ./code/ble_std.o
 .bss           0x00000000        0x0 ./code/ble_std.o
 .text.Connection_SetPktLength
                0x00000000       0x54 ./code/ble_std.o
 .text.Connection_ExchangeMTUCmd
                0x00000000       0x40 ./code/ble_std.o
 .text.Connection_SetPHY
                0x00000000       0x4e ./code/ble_std.o
 .text          0x00000000        0x0 ./code/uart.o
 .data          0x00000000        0x0 ./code/uart.o
 .bss           0x00000000        0x0 ./code/uart.o
 .text.Sys_DMA_Get_ChannelStatus
                0x00000000       0x24 ./code/uart.o
 .text.UART_EmptyRXBuffer
                0x00000000      0x18c ./code/uart.o
 .text          0x00000000        0x0 ./code/ui_handler.o
 .data          0x00000000        0x0 ./code/ui_handler.o
 .bss           0x00000000        0x0 ./code/ui_handler.o
 .text.Sys_GPIO_Set_High
                0x00000000       0x3c ./code/ui_handler.o
 .text.Sys_GPIO_Set_Low
                0x00000000       0x3c ./code/ui_handler.o
 .text.Debug_LED
                0x00000000       0x98 ./code/ui_handler.o
 .rodata        0x00000000       0x10 ./code/ui_handler.o
 .text.Normal_BUTTON_Handler
                0x00000000       0x60 ./code/ui_handler.o
 .text          0x00000000        0x0 ./RTE/Utility/SEGGER_RTT.o
 .data          0x00000000        0x0 ./RTE/Utility/SEGGER_RTT.o
 .bss           0x00000000        0x0 ./RTE/Utility/SEGGER_RTT.o
 .data._aTerminalId
                0x00000000       0x10 ./RTE/Utility/SEGGER_RTT.o
 .bss._ActiveTerminal
                0x00000000        0x1 ./RTE/Utility/SEGGER_RTT.o
 .text._PostTerminalSwitch
                0x00000000       0x34 ./RTE/Utility/SEGGER_RTT.o
 .text.SEGGER_RTT_ReadUpBufferNoLock
                0x00000000      0x10c ./RTE/Utility/SEGGER_RTT.o
 .text.SEGGER_RTT_ReadNoLock
                0x00000000      0x10c ./RTE/Utility/SEGGER_RTT.o
 .text.SEGGER_RTT_ReadUpBuffer
                0x00000000       0x36 ./RTE/Utility/SEGGER_RTT.o
 .text.SEGGER_RTT_Read
                0x00000000       0x36 ./RTE/Utility/SEGGER_RTT.o
 .text.SEGGER_RTT_WriteWithOverwriteNoLock
                0x00000000      0x11c ./RTE/Utility/SEGGER_RTT.o
 .text.SEGGER_RTT_WriteDownBufferNoLock
                0x00000000       0xa0 ./RTE/Utility/SEGGER_RTT.o
 .text.SEGGER_RTT_WriteDownBuffer
                0x00000000       0x4c ./RTE/Utility/SEGGER_RTT.o
 .text.SEGGER_RTT_WriteString
                0x00000000       0x26 ./RTE/Utility/SEGGER_RTT.o
 .text.SEGGER_RTT_PutCharSkipNoLock
                0x00000000       0x70 ./RTE/Utility/SEGGER_RTT.o
 .text.SEGGER_RTT_PutCharSkip
                0x00000000       0x94 ./RTE/Utility/SEGGER_RTT.o
 .text.SEGGER_RTT_PutChar
                0x00000000       0xa8 ./RTE/Utility/SEGGER_RTT.o
 .text.SEGGER_RTT_GetKey
                0x00000000       0x36 ./RTE/Utility/SEGGER_RTT.o
 .text.SEGGER_RTT_WaitKey
                0x00000000       0x1c ./RTE/Utility/SEGGER_RTT.o
 .text.SEGGER_RTT_HasKey
                0x00000000       0x48 ./RTE/Utility/SEGGER_RTT.o
 .text.SEGGER_RTT_HasData
                0x00000000       0x38 ./RTE/Utility/SEGGER_RTT.o
 .text.SEGGER_RTT_HasDataUp
                0x00000000       0x38 ./RTE/Utility/SEGGER_RTT.o
 .text.SEGGER_RTT_AllocDownBuffer
                0x00000000      0x100 ./RTE/Utility/SEGGER_RTT.o
 .text.SEGGER_RTT_AllocUpBuffer
                0x00000000      0x104 ./RTE/Utility/SEGGER_RTT.o
 .text.SEGGER_RTT_ConfigUpBuffer
                0x00000000       0x94 ./RTE/Utility/SEGGER_RTT.o
 .text.SEGGER_RTT_ConfigDownBuffer
                0x00000000       0x94 ./RTE/Utility/SEGGER_RTT.o
 .text.SEGGER_RTT_SetNameUpBuffer
                0x00000000       0x6c ./RTE/Utility/SEGGER_RTT.o
 .text.SEGGER_RTT_SetNameDownBuffer
                0x00000000       0x6c ./RTE/Utility/SEGGER_RTT.o
 .text.SEGGER_RTT_SetFlagsUpBuffer
                0x00000000       0x6c ./RTE/Utility/SEGGER_RTT.o
 .text.SEGGER_RTT_SetFlagsDownBuffer
                0x00000000       0x6c ./RTE/Utility/SEGGER_RTT.o
 .text.SEGGER_RTT_SetTerminal
                0x00000000       0xb8 ./RTE/Utility/SEGGER_RTT.o
 .text.SEGGER_RTT_TerminalOut
                0x00000000      0x128 ./RTE/Utility/SEGGER_RTT.o
 .text.SEGGER_RTT_GetAvailWriteSpace
                0x00000000       0x30 ./RTE/Utility/SEGGER_RTT.o
 .text.SEGGER_RTT_GetBytesInBuffer
                0x00000000       0x74 ./RTE/Utility/SEGGER_RTT.o
 .text          0x00000000       0x8c ./RTE/Utility/SEGGER_RTT_ASM_ARMv7M.o
 .data          0x00000000        0x0 ./RTE/Utility/SEGGER_RTT_ASM_ARMv7M.o
 .bss           0x00000000        0x0 ./RTE/Utility/SEGGER_RTT_ASM_ARMv7M.o
 .debug_line    0x00000000       0xd9 ./RTE/Utility/SEGGER_RTT_ASM_ARMv7M.o
 .debug_info    0x00000000       0x26 ./RTE/Utility/SEGGER_RTT_ASM_ARMv7M.o
 .debug_abbrev  0x00000000       0x14 ./RTE/Utility/SEGGER_RTT_ASM_ARMv7M.o
 .debug_aranges
                0x00000000       0x20 ./RTE/Utility/SEGGER_RTT_ASM_ARMv7M.o
 .debug_str     0x00000000       0x9f ./RTE/Utility/SEGGER_RTT_ASM_ARMv7M.o
 .ARM.attributes
                0x00000000       0x1b ./RTE/Utility/SEGGER_RTT_ASM_ARMv7M.o
 .text          0x00000000        0x0 ./RTE/Utility/SEGGER_RTT_printf.o
 .data          0x00000000        0x0 ./RTE/Utility/SEGGER_RTT_printf.o
 .bss           0x00000000        0x0 ./RTE/Utility/SEGGER_RTT_printf.o
 .text          0x00000000        0x0 ./RTE/Utility/printf.o
 .data          0x00000000        0x0 ./RTE/Utility/printf.o
 .bss           0x00000000        0x0 ./RTE/Utility/printf.o
 .text          0x00000000        0x0 ./RTE/Device/RSL10/rsl10_protocol.o
 .data          0x00000000        0x0 ./RTE/Device/RSL10/rsl10_protocol.o
 .bss           0x00000000        0x0 ./RTE/Device/RSL10/rsl10_protocol.o
 .text.Device_Param_Prepare
                0x00000000       0x20 ./RTE/Device/RSL10/rsl10_protocol.o
 .text.BLE_DeviceParam_Set_ADV_IFS
                0x00000000       0x1c ./RTE/Device/RSL10/rsl10_protocol.o
 .text.BLE_DeviceParam_Set_ClockAccuracy
                0x00000000       0x2c ./RTE/Device/RSL10/rsl10_protocol.o
 .text.BLE_DeviceParam_Set_ForcedClockAccuracy
                0x00000000       0x2c ./RTE/Device/RSL10/rsl10_protocol.o
 .text.BLE_DeviceParam_Set_MaxNumRAL
                0x00000000       0x44 ./RTE/Device/RSL10/rsl10_protocol.o
 .text          0x00000000        0x0 ./RTE/Device/RSL10/rsl10_romvect.o
 .data          0x00000000        0x0 ./RTE/Device/RSL10/rsl10_romvect.o
 .bss           0x00000000        0x0 ./RTE/Device/RSL10/rsl10_romvect.o
 .text.Sys_BootROM_StrictStartApp
                0x00000000       0x3e ./RTE/Device/RSL10/rsl10_romvect.o
 .debug_info    0x00000000      0x110 ./RTE/Device/RSL10/rsl10_romvect.o
 .debug_abbrev  0x00000000       0x9e ./RTE/Device/RSL10/rsl10_romvect.o
 .debug_aranges
                0x00000000       0x20 ./RTE/Device/RSL10/rsl10_romvect.o
 .debug_ranges  0x00000000       0x10 ./RTE/Device/RSL10/rsl10_romvect.o
 .debug_line    0x00000000      0x1ed ./RTE/Device/RSL10/rsl10_romvect.o
 .debug_str     0x00000000      0x2ac ./RTE/Device/RSL10/rsl10_romvect.o
 .comment       0x00000000       0x4e ./RTE/Device/RSL10/rsl10_romvect.o
 .debug_frame   0x00000000       0x34 ./RTE/Device/RSL10/rsl10_romvect.o
 .ARM.attributes
                0x00000000       0x2d ./RTE/Device/RSL10/rsl10_romvect.o
 .text          0x00000000        0x0 ./RTE/Device/RSL10/rsl10_sys_asrc.o
 .data          0x00000000        0x0 ./RTE/Device/RSL10/rsl10_sys_asrc.o
 .bss           0x00000000        0x0 ./RTE/Device/RSL10/rsl10_sys_asrc.o
 .text.Sys_ASRC_Config
                0x00000000       0x24 ./RTE/Device/RSL10/rsl10_sys_asrc.o
 .text.Sys_ASRC_ConfigRunTime
                0x00000000      0x1fa ./RTE/Device/RSL10/rsl10_sys_asrc.o
 .debug_info    0x00000000      0x22b ./RTE/Device/RSL10/rsl10_sys_asrc.o
 .debug_abbrev  0x00000000       0xf9 ./RTE/Device/RSL10/rsl10_sys_asrc.o
 .debug_aranges
                0x00000000       0x28 ./RTE/Device/RSL10/rsl10_sys_asrc.o
 .debug_ranges  0x00000000       0x18 ./RTE/Device/RSL10/rsl10_sys_asrc.o
 .debug_line    0x00000000      0x2b6 ./RTE/Device/RSL10/rsl10_sys_asrc.o
 .debug_str     0x00000000      0x2be ./RTE/Device/RSL10/rsl10_sys_asrc.o
 .comment       0x00000000       0x4e ./RTE/Device/RSL10/rsl10_sys_asrc.o
 .debug_frame   0x00000000       0x6c ./RTE/Device/RSL10/rsl10_sys_asrc.o
 .ARM.attributes
                0x00000000       0x2d ./RTE/Device/RSL10/rsl10_sys_asrc.o
 .text          0x00000000        0x0 ./RTE/Device/RSL10/rsl10_sys_audio.o
 .data          0x00000000        0x0 ./RTE/Device/RSL10/rsl10_sys_audio.o
 .bss           0x00000000        0x0 ./RTE/Device/RSL10/rsl10_sys_audio.o
 .text.Sys_DIO_Config
                0x00000000       0x24 ./RTE/Device/RSL10/rsl10_sys_audio.o
 .text.Sys_Audio_ODDIOConfig
                0x00000000       0x30 ./RTE/Device/RSL10/rsl10_sys_audio.o
 .text.Sys_Audio_ODDIOConfigMult
                0x00000000       0x44 ./RTE/Device/RSL10/rsl10_sys_audio.o
 .debug_info    0x00000000      0x328 ./RTE/Device/RSL10/rsl10_sys_audio.o
 .debug_abbrev  0x00000000      0x123 ./RTE/Device/RSL10/rsl10_sys_audio.o
 .debug_aranges
                0x00000000       0x30 ./RTE/Device/RSL10/rsl10_sys_audio.o
 .debug_ranges  0x00000000       0x20 ./RTE/Device/RSL10/rsl10_sys_audio.o
 .debug_line    0x00000000      0x273 ./RTE/Device/RSL10/rsl10_sys_audio.o
 .debug_str     0x00000000      0x32e ./RTE/Device/RSL10/rsl10_sys_audio.o
 .comment       0x00000000       0x4e ./RTE/Device/RSL10/rsl10_sys_audio.o
 .debug_frame   0x00000000       0x80 ./RTE/Device/RSL10/rsl10_sys_audio.o
 .ARM.attributes
                0x00000000       0x2d ./RTE/Device/RSL10/rsl10_sys_audio.o
 .text          0x00000000        0x0 ./RTE/Device/RSL10/rsl10_sys_clocks.o
 .data          0x00000000        0x0 ./RTE/Device/RSL10/rsl10_sys_clocks.o
 .bss           0x00000000        0x0 ./RTE/Device/RSL10/rsl10_sys_clocks.o
 .text.Sys_GetTrim
                0x00000000       0x24 ./RTE/Device/RSL10/rsl10_sys_clocks.o
 .text.Sys_Clocks_Osc32kCalibratedConfig
                0x00000000       0x54 ./RTE/Device/RSL10/rsl10_sys_clocks.o
 .text.Sys_Clocks_OscRCCalibratedConfig
                0x00000000       0xd8 ./RTE/Device/RSL10/rsl10_sys_clocks.o
 .debug_info    0x00000000      0x2c2 ./RTE/Device/RSL10/rsl10_sys_clocks.o
 .debug_abbrev  0x00000000      0x111 ./RTE/Device/RSL10/rsl10_sys_clocks.o
 .debug_aranges
                0x00000000       0x30 ./RTE/Device/RSL10/rsl10_sys_clocks.o
 .debug_ranges  0x00000000       0x20 ./RTE/Device/RSL10/rsl10_sys_clocks.o
 .debug_line    0x00000000      0x2b6 ./RTE/Device/RSL10/rsl10_sys_clocks.o
 .debug_str     0x00000000      0x34a ./RTE/Device/RSL10/rsl10_sys_clocks.o
 .comment       0x00000000       0x4e ./RTE/Device/RSL10/rsl10_sys_clocks.o
 .debug_frame   0x00000000       0x7c ./RTE/Device/RSL10/rsl10_sys_clocks.o
 .ARM.attributes
                0x00000000       0x2d ./RTE/Device/RSL10/rsl10_sys_clocks.o
 .text          0x00000000        0x0 ./RTE/Device/RSL10/rsl10_sys_crc.o
 .data          0x00000000        0x0 ./RTE/Device/RSL10/rsl10_sys_crc.o
 .bss           0x00000000        0x0 ./RTE/Device/RSL10/rsl10_sys_crc.o
 .text.Sys_CRC_Check
                0x00000000       0x76 ./RTE/Device/RSL10/rsl10_sys_crc.o
 .text.Sys_CRC_Calc
                0x00000000      0x188 ./RTE/Device/RSL10/rsl10_sys_crc.o
 .debug_info    0x00000000      0x220 ./RTE/Device/RSL10/rsl10_sys_crc.o
 .debug_abbrev  0x00000000       0xfd ./RTE/Device/RSL10/rsl10_sys_crc.o
 .debug_aranges
                0x00000000       0x28 ./RTE/Device/RSL10/rsl10_sys_crc.o
 .debug_ranges  0x00000000       0x18 ./RTE/Device/RSL10/rsl10_sys_crc.o
 .debug_line    0x00000000      0x342 ./RTE/Device/RSL10/rsl10_sys_crc.o
 .debug_str     0x00000000      0x280 ./RTE/Device/RSL10/rsl10_sys_crc.o
 .comment       0x00000000       0x4e ./RTE/Device/RSL10/rsl10_sys_crc.o
 .debug_frame   0x00000000       0x5c ./RTE/Device/RSL10/rsl10_sys_crc.o
 .ARM.attributes
                0x00000000       0x2d ./RTE/Device/RSL10/rsl10_sys_crc.o
 .text          0x00000000        0x0 ./RTE/Device/RSL10/rsl10_sys_dma.o
 .data          0x00000000        0x0 ./RTE/Device/RSL10/rsl10_sys_dma.o
 .bss           0x00000000        0x0 ./RTE/Device/RSL10/rsl10_sys_dma.o
 .text          0x00000000        0x0 ./RTE/Device/RSL10/rsl10_sys_flash.o
 .data          0x00000000        0x0 ./RTE/Device/RSL10/rsl10_sys_flash.o
 .bss           0x00000000        0x0 ./RTE/Device/RSL10/rsl10_sys_flash.o
 .text.Sys_Flash_Copy
                0x00000000       0xc4 ./RTE/Device/RSL10/rsl10_sys_flash.o
 .text.Sys_Flash_Compare
                0x00000000       0x78 ./RTE/Device/RSL10/rsl10_sys_flash.o
 .debug_info    0x00000000      0x4d6 ./RTE/Device/RSL10/rsl10_sys_flash.o
 .debug_abbrev  0x00000000      0x10b ./RTE/Device/RSL10/rsl10_sys_flash.o
 .debug_aranges
                0x00000000       0x28 ./RTE/Device/RSL10/rsl10_sys_flash.o
 .debug_ranges  0x00000000       0x18 ./RTE/Device/RSL10/rsl10_sys_flash.o
 .debug_line    0x00000000      0x2a9 ./RTE/Device/RSL10/rsl10_sys_flash.o
 .debug_str     0x00000000      0x480 ./RTE/Device/RSL10/rsl10_sys_flash.o
 .comment       0x00000000       0x4e ./RTE/Device/RSL10/rsl10_sys_flash.o
 .debug_frame   0x00000000       0x60 ./RTE/Device/RSL10/rsl10_sys_flash.o
 .ARM.attributes
                0x00000000       0x2d ./RTE/Device/RSL10/rsl10_sys_flash.o
 .text          0x00000000        0x0 ./RTE/Device/RSL10/rsl10_sys_power.o
 .data          0x00000000        0x0 ./RTE/Device/RSL10/rsl10_sys_power.o
 .bss           0x00000000        0x0 ./RTE/Device/RSL10/rsl10_sys_power.o
 .text.Sys_Power_BandGapCalibratedConfig
                0x00000000       0x44 ./RTE/Device/RSL10/rsl10_sys_power.o
 .text.Sys_Power_VDDPACalibratedConfig
                0x00000000       0x44 ./RTE/Device/RSL10/rsl10_sys_power.o
 .text.Sys_Power_VDDCCalibratedConfig
                0x00000000       0x44 ./RTE/Device/RSL10/rsl10_sys_power.o
 .text.Sys_Power_VDDCStandbyCalibratedConfig
                0x00000000       0x44 ./RTE/Device/RSL10/rsl10_sys_power.o
 .text.Sys_Power_VDDMCalibratedConfig
                0x00000000       0x44 ./RTE/Device/RSL10/rsl10_sys_power.o
 .text.Sys_Power_VDDMStandbyCalibratedConfig
                0x00000000       0x44 ./RTE/Device/RSL10/rsl10_sys_power.o
 .text.Sys_Power_DCDCCalibratedConfig
                0x00000000       0x88 ./RTE/Device/RSL10/rsl10_sys_power.o
 .text          0x00000000        0x0 ./RTE/Device/RSL10/rsl10_sys_power_modes.o
 .data          0x00000000        0x0 ./RTE/Device/RSL10/rsl10_sys_power_modes.o
 .bss           0x00000000        0x0 ./RTE/Device/RSL10/rsl10_sys_power_modes.o
 .text.__NVIC_EnableIRQ
                0x00000000       0x38 ./RTE/Device/RSL10/rsl10_sys_power_modes.o
 .text.__NVIC_ClearPendingIRQ
                0x00000000       0x3c ./RTE/Device/RSL10/rsl10_sys_power_modes.o
 .text.Sys_DMA_Get_ChannelStatus
                0x00000000       0x24 ./RTE/Device/RSL10/rsl10_sys_power_modes.o
 .text.Sys_DMA_ClearChannelStatus
                0x00000000       0x24 ./RTE/Device/RSL10/rsl10_sys_power_modes.o
 .sys_powermodes_sleep
                0x00000000       0xd8 ./RTE/Device/RSL10/rsl10_sys_power_modes.o
 .sys_powermodes_wakeup
                0x00000000      0x144 ./RTE/Device/RSL10/rsl10_sys_power_modes.o
 .sys_powermodes_wakeup_2mbps
                0x00000000      0x1c0 ./RTE/Device/RSL10/rsl10_sys_power_modes.o
 .bss.bb_registers_image
                0x00000000      0x1b4 ./RTE/Device/RSL10/rsl10_sys_power_modes.o
 .bss.rf_registers_image_1
                0x00000000       0xc0 ./RTE/Device/RSL10/rsl10_sys_power_modes.o
 .bss.rf_registers_image_2_0x06_0x07
                0x00000000        0x2 ./RTE/Device/RSL10/rsl10_sys_power_modes.o
 .bss.rf_registers_image_2_0x08
                0x00000000        0x1 ./RTE/Device/RSL10/rsl10_sys_power_modes.o
 .bss.rf_registers_image_2_0x1C_0x6F
                0x00000000       0x54 ./RTE/Device/RSL10/rsl10_sys_power_modes.o
 .bss.rf_registers_image_2_0x9F
                0x00000000        0x1 ./RTE/Device/RSL10/rsl10_sys_power_modes.o
 .text.Sys_PowerModes_Sleep_Init
                0x00000000      0x11c ./RTE/Device/RSL10/rsl10_sys_power_modes.o
 .text.Sys_PowerModes_Sleep_Init_2Mbps
                0x00000000      0x1a4 ./RTE/Device/RSL10/rsl10_sys_power_modes.o
 .text.Sys_PowerModes_Sleep_WakeupFromFlash
                0x00000000       0x7c ./RTE/Device/RSL10/rsl10_sys_power_modes.o
 .text.Sys_PowerModes_Standby_Init
                0x00000000      0x104 ./RTE/Device/RSL10/rsl10_sys_power_modes.o
 .text.Sys_PowerModes_Standby
                0x00000000       0xcc ./RTE/Device/RSL10/rsl10_sys_power_modes.o
 .text.Sys_PowerModes_Standby_Wakeup
                0x00000000      0x190 ./RTE/Device/RSL10/rsl10_sys_power_modes.o
 .debug_info    0x00000000     0x24f9 ./RTE/Device/RSL10/rsl10_sys_power_modes.o
 .debug_abbrev  0x00000000      0x289 ./RTE/Device/RSL10/rsl10_sys_power_modes.o
 .debug_aranges
                0x00000000       0x80 ./RTE/Device/RSL10/rsl10_sys_power_modes.o
 .debug_ranges  0x00000000       0x70 ./RTE/Device/RSL10/rsl10_sys_power_modes.o
 .debug_line    0x00000000      0xb22 ./RTE/Device/RSL10/rsl10_sys_power_modes.o
 .debug_str     0x00000000     0x1f2d ./RTE/Device/RSL10/rsl10_sys_power_modes.o
 .comment       0x00000000       0x4e ./RTE/Device/RSL10/rsl10_sys_power_modes.o
 .debug_frame   0x00000000      0x204 ./RTE/Device/RSL10/rsl10_sys_power_modes.o
 .ARM.attributes
                0x00000000       0x2d ./RTE/Device/RSL10/rsl10_sys_power_modes.o
 .text          0x00000000        0x0 ./RTE/Device/RSL10/rsl10_sys_rffe.o
 .data          0x00000000        0x0 ./RTE/Device/RSL10/rsl10_sys_rffe.o
 .bss           0x00000000        0x0 ./RTE/Device/RSL10/rsl10_sys_rffe.o
 .text          0x00000000        0x0 ./RTE/Device/RSL10/rsl10_sys_timers.o
 .data          0x00000000        0x0 ./RTE/Device/RSL10/rsl10_sys_timers.o
 .bss           0x00000000        0x0 ./RTE/Device/RSL10/rsl10_sys_timers.o
 .text.Sys_Timers_Start
                0x00000000       0x84 ./RTE/Device/RSL10/rsl10_sys_timers.o
 .text.Sys_Timers_Stop
                0x00000000       0x64 ./RTE/Device/RSL10/rsl10_sys_timers.o
 .debug_info    0x00000000      0x144 ./RTE/Device/RSL10/rsl10_sys_timers.o
 .debug_abbrev  0x00000000       0xcf ./RTE/Device/RSL10/rsl10_sys_timers.o
 .debug_aranges
                0x00000000       0x28 ./RTE/Device/RSL10/rsl10_sys_timers.o
 .debug_ranges  0x00000000       0x18 ./RTE/Device/RSL10/rsl10_sys_timers.o
 .debug_line    0x00000000      0x282 ./RTE/Device/RSL10/rsl10_sys_timers.o
 .debug_str     0x00000000      0x263 ./RTE/Device/RSL10/rsl10_sys_timers.o
 .comment       0x00000000       0x4e ./RTE/Device/RSL10/rsl10_sys_timers.o
 .debug_frame   0x00000000       0x60 ./RTE/Device/RSL10/rsl10_sys_timers.o
 .ARM.attributes
                0x00000000       0x2d ./RTE/Device/RSL10/rsl10_sys_timers.o
 .text          0x00000000        0x0 ./RTE/Device/RSL10/rsl10_sys_uart.o
 .data          0x00000000        0x0 ./RTE/Device/RSL10/rsl10_sys_uart.o
 .bss           0x00000000        0x0 ./RTE/Device/RSL10/rsl10_sys_uart.o
 .text          0x00000000        0x0 ./RTE/Device/RSL10/rsl10_sys_version.o
 .data          0x00000000        0x0 ./RTE/Device/RSL10/rsl10_sys_version.o
 .bss           0x00000000        0x0 ./RTE/Device/RSL10/rsl10_sys_version.o
 .rodata.RSL10_Sys_Version
                0x00000000        0x2 ./RTE/Device/RSL10/rsl10_sys_version.o
 .debug_info    0x00000000       0x8e ./RTE/Device/RSL10/rsl10_sys_version.o
 .debug_abbrev  0x00000000       0x49 ./RTE/Device/RSL10/rsl10_sys_version.o
 .debug_aranges
                0x00000000       0x18 ./RTE/Device/RSL10/rsl10_sys_version.o
 .debug_line    0x00000000       0x73 ./RTE/Device/RSL10/rsl10_sys_version.o
 .debug_str     0x00000000      0x1ed ./RTE/Device/RSL10/rsl10_sys_version.o
 .comment       0x00000000       0x4e ./RTE/Device/RSL10/rsl10_sys_version.o
 .ARM.attributes
                0x00000000       0x33 ./RTE/Device/RSL10/rsl10_sys_version.o
 .text          0x00000000        0x0 ./RTE/Device/RSL10/sbrk.o
 .data          0x00000000        0x0 ./RTE/Device/RSL10/sbrk.o
 .bss           0x00000000        0x0 ./RTE/Device/RSL10/sbrk.o
 .text          0x00000000        0x0 ./RTE/Device/RSL10/start.o
 .data          0x00000000        0x0 ./RTE/Device/RSL10/start.o
 .bss           0x00000000        0x0 ./RTE/Device/RSL10/start.o
 .data          0x00000000        0x0 ./RTE/Device/RSL10/startup_rsl10.o
 .bss           0x00000000        0x0 ./RTE/Device/RSL10/startup_rsl10.o
 .ARM.extab.reset
                0x00000000        0x0 ./RTE/Device/RSL10/startup_rsl10.o
 .text          0x00000000        0x0 ./RTE/Device/RSL10/system_rsl10.o
 .data          0x00000000        0x0 ./RTE/Device/RSL10/system_rsl10.o
 .bss           0x00000000        0x0 ./RTE/Device/RSL10/system_rsl10.o
 .text          0x00000000        0x0 ./RTE/Device/stubprf.o
 .data          0x00000000        0x0 ./RTE/Device/stubprf.o
 .bss           0x00000000        0x0 ./RTE/Device/stubprf.o
 .text.ipss_prf_itf_get
                0x00000000        0xe ./RTE/Device/stubprf.o
 .text.ipsc_prf_itf_get
                0x00000000        0xe ./RTE/Device/stubprf.o
 .text.envs_prf_itf_get
                0x00000000        0xe ./RTE/Device/stubprf.o
 .text.envc_prf_itf_get
                0x00000000        0xe ./RTE/Device/stubprf.o
 .text.wscs_prf_itf_get
                0x00000000        0xe ./RTE/Device/stubprf.o
 .text.wscc_prf_itf_get
                0x00000000        0xe ./RTE/Device/stubprf.o
 .text.bcss_prf_itf_get
                0x00000000        0xe ./RTE/Device/stubprf.o
 .text.bcsc_prf_itf_get
                0x00000000        0xe ./RTE/Device/stubprf.o
 .text.plxs_prf_itf_get
                0x00000000        0xe ./RTE/Device/stubprf.o
 .text.plxc_prf_itf_get
                0x00000000        0xe ./RTE/Device/stubprf.o
 .text.am0_has_prf_itf_get
                0x00000000        0xe ./RTE/Device/stubprf.o
 .text.udss_prf_itf_get
                0x00000000        0xe ./RTE/Device/stubprf.o
 .text.udsc_prf_itf_get
                0x00000000        0xe ./RTE/Device/stubprf.o
 .text.m_al_prf_itf_get
                0x00000000        0xe ./RTE/Device/stubprf.o
 .text          0x00000000        0x0 ./app.o
 .data          0x00000000        0x0 ./app.o
 .bss           0x00000000        0x0 ./app.o
 .text          0x00000000        0x0 C:/Users/xeeen/ON_Semiconductor/PACK/ONSemiconductor/RSL10/3.7.606/lib/ble_core/Release/libblelib.a(prf-prf_utils.o)
 .data          0x00000000        0x0 C:/Users/xeeen/ON_Semiconductor/PACK/ONSemiconductor/RSL10/3.7.606/lib/ble_core/Release/libblelib.a(prf-prf_utils.o)
 .bss           0x00000000        0x0 C:/Users/xeeen/ON_Semiconductor/PACK/ONSemiconductor/RSL10/3.7.606/lib/ble_core/Release/libblelib.a(prf-prf_utils.o)
 .text.prf_get_id_from_task
                0x00000000       0x34 C:/Users/xeeen/ON_Semiconductor/PACK/ONSemiconductor/RSL10/3.7.606/lib/ble_core/Release/libblelib.a(prf-prf_utils.o)
 .text.prf_get_task_from_id
                0x00000000       0x34 C:/Users/xeeen/ON_Semiconductor/PACK/ONSemiconductor/RSL10/3.7.606/lib/ble_core/Release/libblelib.a(prf-prf_utils.o)
 .text.prf_pack_char_pres_fmt
                0x00000000       0x1e C:/Users/xeeen/ON_Semiconductor/PACK/ONSemiconductor/RSL10/3.7.606/lib/ble_core/Release/libblelib.a(prf-prf_utils.o)
 .text.prf_unregister_atthdl2gatt
                0x00000000       0x34 C:/Users/xeeen/ON_Semiconductor/PACK/ONSemiconductor/RSL10/3.7.606/lib/ble_core/Release/libblelib.a(prf-prf_utils.o)
 .text.prf_check_svc_char_uuid128_validity
                0x00000000       0x32 C:/Users/xeeen/ON_Semiconductor/PACK/ONSemiconductor/RSL10/3.7.606/lib/ble_core/Release/libblelib.a(prf-prf_utils.o)
 .text.prf_check_svc_char_desc_uuid128_validity
                0x00000000       0x2e C:/Users/xeeen/ON_Semiconductor/PACK/ONSemiconductor/RSL10/3.7.606/lib/ble_core/Release/libblelib.a(prf-prf_utils.o)
 .text.prf_extract_svc_uuid128_info
                0x00000000      0x136 C:/Users/xeeen/ON_Semiconductor/PACK/ONSemiconductor/RSL10/3.7.606/lib/ble_core/Release/libblelib.a(prf-prf_utils.o)
 .text.prf_client_att_info_rsp
                0x00000000       0x56 C:/Users/xeeen/ON_Semiconductor/PACK/ONSemiconductor/RSL10/3.7.606/lib/ble_core/Release/libblelib.a(prf-prf_utils.o)
 .text.prf_pack_date_time
                0x00000000       0x20 C:/Users/xeeen/ON_Semiconductor/PACK/ONSemiconductor/RSL10/3.7.606/lib/ble_core/Release/libblelib.a(prf-prf_utils.o)
 .text.prf_unpack_date_time
                0x00000000       0x1c C:/Users/xeeen/ON_Semiconductor/PACK/ONSemiconductor/RSL10/3.7.606/lib/ble_core/Release/libblelib.a(prf-prf_utils.o)
 .text.prf_e2e_crc
                0x00000000       0x4c C:/Users/xeeen/ON_Semiconductor/PACK/ONSemiconductor/RSL10/3.7.606/lib/ble_core/Release/libblelib.a(prf-prf_utils.o)
 .text          0x00000000        0x0 C:/Users/xeeen/ON_Semiconductor/PACK/ONSemiconductor/RSL10/3.7.606/lib/ble_core/Release/libblelib.a(rwip.o)
 .data          0x00000000        0x0 C:/Users/xeeen/ON_Semiconductor/PACK/ONSemiconductor/RSL10/3.7.606/lib/ble_core/Release/libblelib.a(rwip.o)
 .bss           0x00000000        0x0 C:/Users/xeeen/ON_Semiconductor/PACK/ONSemiconductor/RSL10/3.7.606/lib/ble_core/Release/libblelib.a(rwip.o)
 .text.LowPowerClock_Source_Set
                0x00000000       0x10 C:/Users/xeeen/ON_Semiconductor/PACK/ONSemiconductor/RSL10/3.7.606/lib/ble_core/Release/libblelib.a(rwip.o)
 .text.rwip_check_wakeup_boundary
                0x00000000       0x28 C:/Users/xeeen/ON_Semiconductor/PACK/ONSemiconductor/RSL10/3.7.606/lib/ble_core/Release/libblelib.a(rwip.o)
 .text.BLE_Init
                0x00000000       0xc0 C:/Users/xeeen/ON_Semiconductor/PACK/ONSemiconductor/RSL10/3.7.606/lib/ble_core/Release/libblelib.a(rwip.o)
 .text.BLE_Reset
                0x00000000       0x44 C:/Users/xeeen/ON_Semiconductor/PACK/ONSemiconductor/RSL10/3.7.606/lib/ble_core/Release/libblelib.a(rwip.o)
 .text.rwip_version
                0x00000000        0x4 C:/Users/xeeen/ON_Semiconductor/PACK/ONSemiconductor/RSL10/3.7.606/lib/ble_core/Release/libblelib.a(rwip.o)
 .text.BLE_Power_Mode_Enter
                0x00000000      0x14c C:/Users/xeeen/ON_Semiconductor/PACK/ONSemiconductor/RSL10/3.7.606/lib/ble_core/Release/libblelib.a(rwip.o)
 .text.rwip_sleep_enable
                0x00000000        0xc C:/Users/xeeen/ON_Semiconductor/PACK/ONSemiconductor/RSL10/3.7.606/lib/ble_core/Release/libblelib.a(rwip.o)
 .text.rwip_ext_wakeup_enable
                0x00000000        0xc C:/Users/xeeen/ON_Semiconductor/PACK/ONSemiconductor/RSL10/3.7.606/lib/ble_core/Release/libblelib.a(rwip.o)
 .text.RTCCLK_Period_Value_Set
                0x00000000       0x38 C:/Users/xeeen/ON_Semiconductor/PACK/ONSemiconductor/RSL10/3.7.606/lib/ble_core/Release/libblelib.a(rwip.o)
 .text.rwip_wlcoex_set
                0x00000000        0x4 C:/Users/xeeen/ON_Semiconductor/PACK/ONSemiconductor/RSL10/3.7.606/lib/ble_core/Release/libblelib.a(rwip.o)
 .text.PrivateKey_Read
                0x00000000       0x18 C:/Users/xeeen/ON_Semiconductor/PACK/ONSemiconductor/RSL10/3.7.606/lib/ble_core/Release/libblelib.a(rwip.o)
 .text.BLE_ADV_Flags_Set
                0x00000000       0x10 C:/Users/xeeen/ON_Semiconductor/PACK/ONSemiconductor/RSL10/3.7.606/lib/ble_core/Release/libblelib.a(rwip.o)
 .text.BLE_Sleep_ReductionTime_set
                0x00000000        0xc C:/Users/xeeen/ON_Semiconductor/PACK/ONSemiconductor/RSL10/3.7.606/lib/ble_core/Release/libblelib.a(rwip.o)
 .text.BLE_Sleep_MaxDuration_Set
                0x00000000        0xc C:/Users/xeeen/ON_Semiconductor/PACK/ONSemiconductor/RSL10/3.7.606/lib/ble_core/Release/libblelib.a(rwip.o)
 .text.BLE_Set_RxWinSize_Max
                0x00000000       0x14 C:/Users/xeeen/ON_Semiconductor/PACK/ONSemiconductor/RSL10/3.7.606/lib/ble_core/Release/libblelib.a(rwip.o)
 .text.BLE_Set_RxWinSizeDisconnect
                0x00000000        0xc C:/Users/xeeen/ON_Semiconductor/PACK/ONSemiconductor/RSL10/3.7.606/lib/ble_core/Release/libblelib.a(rwip.o)
 .text.BLE_Set_AnchorPointMoveReq
                0x00000000        0xc C:/Users/xeeen/ON_Semiconductor/PACK/ONSemiconductor/RSL10/3.7.606/lib/ble_core/Release/libblelib.a(rwip.o)
 .text.BLE_Set_EventPriority
                0x00000000       0x1c C:/Users/xeeen/ON_Semiconductor/PACK/ONSemiconductor/RSL10/3.7.606/lib/ble_core/Release/libblelib.a(rwip.o)
 .text.BLE_ConParam_SlaveRspOption
                0x00000000        0xc C:/Users/xeeen/ON_Semiconductor/PACK/ONSemiconductor/RSL10/3.7.606/lib/ble_core/Release/libblelib.a(rwip.o)
 .text.BLE_Get_conEvtCount
                0x00000000       0x1c C:/Users/xeeen/ON_Semiconductor/PACK/ONSemiconductor/RSL10/3.7.606/lib/ble_core/Release/libblelib.a(rwip.o)
 .text.BLE_Set_ChnlMapIndCallBack
                0x00000000        0xc C:/Users/xeeen/ON_Semiconductor/PACK/ONSemiconductor/RSL10/3.7.606/lib/ble_core/Release/libblelib.a(rwip.o)
 .text.BLE_Set_ConEstablishCallBack
                0x00000000        0xc C:/Users/xeeen/ON_Semiconductor/PACK/ONSemiconductor/RSL10/3.7.606/lib/ble_core/Release/libblelib.a(rwip.o)
 .text.BLE_Set_RxStatusCallBack
                0x00000000        0xc C:/Users/xeeen/ON_Semiconductor/PACK/ONSemiconductor/RSL10/3.7.606/lib/ble_core/Release/libblelib.a(rwip.o)
 .text.BLE_Set_ScanConIndStatusCallBack
                0x00000000        0xc C:/Users/xeeen/ON_Semiconductor/PACK/ONSemiconductor/RSL10/3.7.606/lib/ble_core/Release/libblelib.a(rwip.o)
 .text.BLE_Set_ScanChannel
                0x00000000       0x1c C:/Users/xeeen/ON_Semiconductor/PACK/ONSemiconductor/RSL10/3.7.606/lib/ble_core/Release/libblelib.a(rwip.o)
 .text.BLE_Set_ForcedMDbit
                0x00000000       0x10 C:/Users/xeeen/ON_Semiconductor/PACK/ONSemiconductor/RSL10/3.7.606/lib/ble_core/Release/libblelib.a(rwip.o)
 .text.BLE_Set_ParmUpdtReqOffsets
                0x00000000       0x28 C:/Users/xeeen/ON_Semiconductor/PACK/ONSemiconductor/RSL10/3.7.606/lib/ble_core/Release/libblelib.a(rwip.o)
 .text.BLE_Get_SDKStackVersion
                0x00000000        0x8 C:/Users/xeeen/ON_Semiconductor/PACK/ONSemiconductor/RSL10/3.7.606/lib/ble_core/Release/libblelib.a(rwip.o)
 .text          0x00000000        0x0 C:/Users/xeeen/ON_Semiconductor/PACK/ONSemiconductor/RSL10/3.7.606/lib/ble_core/Release/libblelib.a(rf_atlas.o)
 .data          0x00000000        0x0 C:/Users/xeeen/ON_Semiconductor/PACK/ONSemiconductor/RSL10/3.7.606/lib/ble_core/Release/libblelib.a(rf_atlas.o)
 .bss           0x00000000        0x0 C:/Users/xeeen/ON_Semiconductor/PACK/ONSemiconductor/RSL10/3.7.606/lib/ble_core/Release/libblelib.a(rf_atlas.o)
 .text          0x00000000        0x0 C:/Users/xeeen/ON_Semiconductor/PACK/ONSemiconductor/RSL10/3.7.606/lib/ble_core/Release/libblelib.a(ecc_p256.o)
 .data          0x00000000        0x0 C:/Users/xeeen/ON_Semiconductor/PACK/ONSemiconductor/RSL10/3.7.606/lib/ble_core/Release/libblelib.a(ecc_p256.o)
 .bss           0x00000000        0x0 C:/Users/xeeen/ON_Semiconductor/PACK/ONSemiconductor/RSL10/3.7.606/lib/ble_core/Release/libblelib.a(ecc_p256.o)
 .text.SubtractBigHexUint32_256
                0x00000000       0x64 C:/Users/xeeen/ON_Semiconductor/PACK/ONSemiconductor/RSL10/3.7.606/lib/ble_core/Release/libblelib.a(ecc_p256.o)
 .text.ecc_abort_key256_generation
                0x00000000       0x44 C:/Users/xeeen/ON_Semiconductor/PACK/ONSemiconductor/RSL10/3.7.606/lib/ble_core/Release/libblelib.a(ecc_p256.o)
 .text          0x00000000        0x0 C:/Users/xeeen/ON_Semiconductor/PACK/ONSemiconductor/RSL10/3.7.606/lib/ble_core/Release/libblelib.a(hci.o)
 .data          0x00000000        0x0 C:/Users/xeeen/ON_Semiconductor/PACK/ONSemiconductor/RSL10/3.7.606/lib/ble_core/Release/libblelib.a(hci.o)
 .bss           0x00000000        0x0 C:/Users/xeeen/ON_Semiconductor/PACK/ONSemiconductor/RSL10/3.7.606/lib/ble_core/Release/libblelib.a(hci.o)
 .text          0x00000000        0x0 C:/Users/xeeen/ON_Semiconductor/PACK/ONSemiconductor/RSL10/3.7.606/lib/ble_core/Release/libblelib.a(hci_fc.o)
 .data          0x00000000        0x0 C:/Users/xeeen/ON_Semiconductor/PACK/ONSemiconductor/RSL10/3.7.606/lib/ble_core/Release/libblelib.a(hci_fc.o)
 .bss           0x00000000        0x0 C:/Users/xeeen/ON_Semiconductor/PACK/ONSemiconductor/RSL10/3.7.606/lib/ble_core/Release/libblelib.a(hci_fc.o)
 .text.hci_fc_acl_packet_sent
                0x00000000       0x14 C:/Users/xeeen/ON_Semiconductor/PACK/ONSemiconductor/RSL10/3.7.606/lib/ble_core/Release/libblelib.a(hci_fc.o)
 .text.hci_fc_check_host_available_nb_acl_packets
                0x00000000       0x24 C:/Users/xeeen/ON_Semiconductor/PACK/ONSemiconductor/RSL10/3.7.606/lib/ble_core/Release/libblelib.a(hci_fc.o)
 .text          0x00000000        0x0 C:/Users/xeeen/ON_Semiconductor/PACK/ONSemiconductor/RSL10/3.7.606/lib/ble_core/Release/libblelib.a(hci_msg.o)
 .data          0x00000000        0x0 C:/Users/xeeen/ON_Semiconductor/PACK/ONSemiconductor/RSL10/3.7.606/lib/ble_core/Release/libblelib.a(hci_msg.o)
 .bss           0x00000000        0x0 C:/Users/xeeen/ON_Semiconductor/PACK/ONSemiconductor/RSL10/3.7.606/lib/ble_core/Release/libblelib.a(hci_msg.o)
 .text          0x00000000        0x0 C:/Users/xeeen/ON_Semiconductor/PACK/ONSemiconductor/RSL10/3.7.606/lib/ble_core/Release/libblelib.a(ea.o)
 .data          0x00000000        0x0 C:/Users/xeeen/ON_Semiconductor/PACK/ONSemiconductor/RSL10/3.7.606/lib/ble_core/Release/libblelib.a(ea.o)
 .bss           0x00000000        0x0 C:/Users/xeeen/ON_Semiconductor/PACK/ONSemiconductor/RSL10/3.7.606/lib/ble_core/Release/libblelib.a(ea.o)
 .text.ea_get_pending_elt
                0x00000000        0xc C:/Users/xeeen/ON_Semiconductor/PACK/ONSemiconductor/RSL10/3.7.606/lib/ble_core/Release/libblelib.a(ea.o)
 .text.ea_interval_delete
                0x00000000       0x20 C:/Users/xeeen/ON_Semiconductor/PACK/ONSemiconductor/RSL10/3.7.606/lib/ble_core/Release/libblelib.a(ea.o)
 .text.ea_timer_target_get
                0x00000000       0x10 C:/Users/xeeen/ON_Semiconductor/PACK/ONSemiconductor/RSL10/3.7.606/lib/ble_core/Release/libblelib.a(ea.o)
 .text          0x00000000        0x0 C:/Users/xeeen/ON_Semiconductor/PACK/ONSemiconductor/RSL10/3.7.606/lib/ble_core/Release/libblelib.a(rwble.o)
 .data          0x00000000        0x0 C:/Users/xeeen/ON_Semiconductor/PACK/ONSemiconductor/RSL10/3.7.606/lib/ble_core/Release/libblelib.a(rwble.o)
 .bss           0x00000000        0x0 C:/Users/xeeen/ON_Semiconductor/PACK/ONSemiconductor/RSL10/3.7.606/lib/ble_core/Release/libblelib.a(rwble.o)
 .text.rwble_activity_ongoing_check
                0x00000000       0x1c C:/Users/xeeen/ON_Semiconductor/PACK/ONSemiconductor/RSL10/3.7.606/lib/ble_core/Release/libblelib.a(rwble.o)
 .text.rwble_version
                0x00000000       0x38 C:/Users/xeeen/ON_Semiconductor/PACK/ONSemiconductor/RSL10/3.7.606/lib/ble_core/Release/libblelib.a(rwble.o)
 .text          0x00000000        0x0 C:/Users/xeeen/ON_Semiconductor/PACK/ONSemiconductor/RSL10/3.7.606/lib/ble_core/Release/libblelib.a(llm.o)
 .data          0x00000000        0x0 C:/Users/xeeen/ON_Semiconductor/PACK/ONSemiconductor/RSL10/3.7.606/lib/ble_core/Release/libblelib.a(llm.o)
 .bss           0x00000000        0x0 C:/Users/xeeen/ON_Semiconductor/PACK/ONSemiconductor/RSL10/3.7.606/lib/ble_core/Release/libblelib.a(llm.o)
 .text          0x00000000        0x0 C:/Users/xeeen/ON_Semiconductor/PACK/ONSemiconductor/RSL10/3.7.606/lib/ble_core/Release/libblelib.a(llm_task.o)
 .data          0x00000000        0x0 C:/Users/xeeen/ON_Semiconductor/PACK/ONSemiconductor/RSL10/3.7.606/lib/ble_core/Release/libblelib.a(llm_task.o)
 .bss           0x00000000        0x0 C:/Users/xeeen/ON_Semiconductor/PACK/ONSemiconductor/RSL10/3.7.606/lib/ble_core/Release/libblelib.a(llm_task.o)
 .text          0x00000000        0x0 C:/Users/xeeen/ON_Semiconductor/PACK/ONSemiconductor/RSL10/3.7.606/lib/ble_core/Release/libblelib.a(llm_util.o)
 .data          0x00000000        0x0 C:/Users/xeeen/ON_Semiconductor/PACK/ONSemiconductor/RSL10/3.7.606/lib/ble_core/Release/libblelib.a(llm_util.o)
 .bss           0x00000000        0x0 C:/Users/xeeen/ON_Semiconductor/PACK/ONSemiconductor/RSL10/3.7.606/lib/ble_core/Release/libblelib.a(llm_util.o)
 .text.llm_util_set_public_addr
                0x00000000       0x10 C:/Users/xeeen/ON_Semiconductor/PACK/ONSemiconductor/RSL10/3.7.606/lib/ble_core/Release/libblelib.a(llm_util.o)
 .text          0x00000000        0x0 C:/Users/xeeen/ON_Semiconductor/PACK/ONSemiconductor/RSL10/3.7.606/lib/ble_core/Release/libblelib.a(lld.o)
 .data          0x00000000        0x0 C:/Users/xeeen/ON_Semiconductor/PACK/ONSemiconductor/RSL10/3.7.606/lib/ble_core/Release/libblelib.a(lld.o)
 .bss           0x00000000        0x0 C:/Users/xeeen/ON_Semiconductor/PACK/ONSemiconductor/RSL10/3.7.606/lib/ble_core/Release/libblelib.a(lld.o)
 .text          0x00000000        0x0 C:/Users/xeeen/ON_Semiconductor/PACK/ONSemiconductor/RSL10/3.7.606/lib/ble_core/Release/libblelib.a(lld_evt.o)
 .data          0x00000000        0x0 C:/Users/xeeen/ON_Semiconductor/PACK/ONSemiconductor/RSL10/3.7.606/lib/ble_core/Release/libblelib.a(lld_evt.o)
 .bss           0x00000000        0x0 C:/Users/xeeen/ON_Semiconductor/PACK/ONSemiconductor/RSL10/3.7.606/lib/ble_core/Release/libblelib.a(lld_evt.o)
 .text.lld_evt_encrypted
                0x00000000       0x2c C:/Users/xeeen/ON_Semiconductor/PACK/ONSemiconductor/RSL10/3.7.606/lib/ble_core/Release/libblelib.a(lld_evt.o)
 .text.BLE_Extract_ConParam
                0x00000000       0xdc C:/Users/xeeen/ON_Semiconductor/PACK/ONSemiconductor/RSL10/3.7.606/lib/ble_core/Release/libblelib.a(lld_evt.o)
 .text          0x00000000        0x0 C:/Users/xeeen/ON_Semiconductor/PACK/ONSemiconductor/RSL10/3.7.606/lib/ble_core/Release/libblelib.a(lld_pdu.o)
 .data          0x00000000        0x0 C:/Users/xeeen/ON_Semiconductor/PACK/ONSemiconductor/RSL10/3.7.606/lib/ble_core/Release/libblelib.a(lld_pdu.o)
 .bss           0x00000000        0x0 C:/Users/xeeen/ON_Semiconductor/PACK/ONSemiconductor/RSL10/3.7.606/lib/ble_core/Release/libblelib.a(lld_pdu.o)
 .text          0x00000000        0x0 C:/Users/xeeen/ON_Semiconductor/PACK/ONSemiconductor/RSL10/3.7.606/lib/ble_core/Release/libblelib.a(lld_sleep.o)
 .data          0x00000000        0x0 C:/Users/xeeen/ON_Semiconductor/PACK/ONSemiconductor/RSL10/3.7.606/lib/ble_core/Release/libblelib.a(lld_sleep.o)
 .bss           0x00000000        0x0 C:/Users/xeeen/ON_Semiconductor/PACK/ONSemiconductor/RSL10/3.7.606/lib/ble_core/Release/libblelib.a(lld_sleep.o)
 .text.BLE_LLD_Sleep_Params_Set
                0x00000000        0xc C:/Users/xeeen/ON_Semiconductor/PACK/ONSemiconductor/RSL10/3.7.606/lib/ble_core/Release/libblelib.a(lld_sleep.o)
 .text.BLE_Is_Awake_Flag_Set
                0x00000000        0xc C:/Users/xeeen/ON_Semiconductor/PACK/ONSemiconductor/RSL10/3.7.606/lib/ble_core/Release/libblelib.a(lld_sleep.o)
 .text.BLE_Is_Awake_Flag_Clear
                0x00000000        0xc C:/Users/xeeen/ON_Semiconductor/PACK/ONSemiconductor/RSL10/3.7.606/lib/ble_core/Release/libblelib.a(lld_sleep.o)
 .text.BLE_Is_Awake
                0x00000000        0xc C:/Users/xeeen/ON_Semiconductor/PACK/ONSemiconductor/RSL10/3.7.606/lib/ble_core/Release/libblelib.a(lld_sleep.o)
 .text.lld_power_mode_enter
                0x00000000       0x84 C:/Users/xeeen/ON_Semiconductor/PACK/ONSemiconductor/RSL10/3.7.606/lib/ble_core/Release/libblelib.a(lld_sleep.o)
 .text          0x00000000        0x0 C:/Users/xeeen/ON_Semiconductor/PACK/ONSemiconductor/RSL10/3.7.606/lib/ble_core/Release/libblelib.a(lld_util.o)
 .data          0x00000000        0x0 C:/Users/xeeen/ON_Semiconductor/PACK/ONSemiconductor/RSL10/3.7.606/lib/ble_core/Release/libblelib.a(lld_util.o)
 .bss           0x00000000        0x0 C:/Users/xeeen/ON_Semiconductor/PACK/ONSemiconductor/RSL10/3.7.606/lib/ble_core/Release/libblelib.a(lld_util.o)
 .text.lld_util_get_bd_address
                0x00000000       0x28 C:/Users/xeeen/ON_Semiconductor/PACK/ONSemiconductor/RSL10/3.7.606/lib/ble_core/Release/libblelib.a(lld_util.o)
 .text.lld_util_elt_programmed
                0x00000000       0x1a C:/Users/xeeen/ON_Semiconductor/PACK/ONSemiconductor/RSL10/3.7.606/lib/ble_core/Release/libblelib.a(lld_util.o)
 .text.lld_util_priority_update
                0x00000000        0x8 C:/Users/xeeen/ON_Semiconductor/PACK/ONSemiconductor/RSL10/3.7.606/lib/ble_core/Release/libblelib.a(lld_util.o)
 .text          0x00000000        0x0 C:/Users/xeeen/ON_Semiconductor/PACK/ONSemiconductor/RSL10/3.7.606/lib/ble_core/Release/libblelib.a(lld_wlcoex.o)
 .data          0x00000000        0x0 C:/Users/xeeen/ON_Semiconductor/PACK/ONSemiconductor/RSL10/3.7.606/lib/ble_core/Release/libblelib.a(lld_wlcoex.o)
 .bss           0x00000000        0x0 C:/Users/xeeen/ON_Semiconductor/PACK/ONSemiconductor/RSL10/3.7.606/lib/ble_core/Release/libblelib.a(lld_wlcoex.o)
 .text          0x00000000        0x0 C:/Users/xeeen/ON_Semiconductor/PACK/ONSemiconductor/RSL10/3.7.606/lib/ble_core/Release/libblelib.a(llc.o)
 .data          0x00000000        0x0 C:/Users/xeeen/ON_Semiconductor/PACK/ONSemiconductor/RSL10/3.7.606/lib/ble_core/Release/libblelib.a(llc.o)
 .bss           0x00000000        0x0 C:/Users/xeeen/ON_Semiconductor/PACK/ONSemiconductor/RSL10/3.7.606/lib/ble_core/Release/libblelib.a(llc.o)
 .text.llc_common_flush_occurred_send
                0x00000000       0x1c C:/Users/xeeen/ON_Semiconductor/PACK/ONSemiconductor/RSL10/3.7.606/lib/ble_core/Release/libblelib.a(llc.o)
 .text          0x00000000        0x0 C:/Users/xeeen/ON_Semiconductor/PACK/ONSemiconductor/RSL10/3.7.606/lib/ble_core/Release/libblelib.a(llc_llcp.o)
 .data          0x00000000        0x0 C:/Users/xeeen/ON_Semiconductor/PACK/ONSemiconductor/RSL10/3.7.606/lib/ble_core/Release/libblelib.a(llc_llcp.o)
 .bss           0x00000000        0x0 C:/Users/xeeen/ON_Semiconductor/PACK/ONSemiconductor/RSL10/3.7.606/lib/ble_core/Release/libblelib.a(llc_llcp.o)
 .text          0x00000000        0x0 C:/Users/xeeen/ON_Semiconductor/PACK/ONSemiconductor/RSL10/3.7.606/lib/ble_core/Release/libblelib.a(llc_task.o)
 .data          0x00000000        0x0 C:/Users/xeeen/ON_Semiconductor/PACK/ONSemiconductor/RSL10/3.7.606/lib/ble_core/Release/libblelib.a(llc_task.o)
 .bss           0x00000000        0x0 C:/Users/xeeen/ON_Semiconductor/PACK/ONSemiconductor/RSL10/3.7.606/lib/ble_core/Release/libblelib.a(llc_task.o)
 .text          0x00000000        0x0 C:/Users/xeeen/ON_Semiconductor/PACK/ONSemiconductor/RSL10/3.7.606/lib/ble_core/Release/libblelib.a(llc_util.o)
 .data          0x00000000        0x0 C:/Users/xeeen/ON_Semiconductor/PACK/ONSemiconductor/RSL10/3.7.606/lib/ble_core/Release/libblelib.a(llc_util.o)
 .bss           0x00000000        0x0 C:/Users/xeeen/ON_Semiconductor/PACK/ONSemiconductor/RSL10/3.7.606/lib/ble_core/Release/libblelib.a(llc_util.o)
 .text.llc_util_set_llcp_discard_enable
                0x00000000       0x20 C:/Users/xeeen/ON_Semiconductor/PACK/ONSemiconductor/RSL10/3.7.606/lib/ble_core/Release/libblelib.a(llc_util.o)
 .text          0x00000000        0x0 C:/Users/xeeen/ON_Semiconductor/PACK/ONSemiconductor/RSL10/3.7.606/lib/ble_core/Release/libblelib.a(em_buf.o)
 .data          0x00000000        0x0 C:/Users/xeeen/ON_Semiconductor/PACK/ONSemiconductor/RSL10/3.7.606/lib/ble_core/Release/libblelib.a(em_buf.o)
 .bss           0x00000000        0x0 C:/Users/xeeen/ON_Semiconductor/PACK/ONSemiconductor/RSL10/3.7.606/lib/ble_core/Release/libblelib.a(em_buf.o)
 .text.em_buf_tx_buff_addr_get
                0x00000000        0xc C:/Users/xeeen/ON_Semiconductor/PACK/ONSemiconductor/RSL10/3.7.606/lib/ble_core/Release/libblelib.a(em_buf.o)
 .text          0x00000000        0x0 C:/Users/xeeen/ON_Semiconductor/PACK/ONSemiconductor/RSL10/3.7.606/lib/ble_core/Release/libblelib.a(rwble_hl.o)
 .data          0x00000000        0x0 C:/Users/xeeen/ON_Semiconductor/PACK/ONSemiconductor/RSL10/3.7.606/lib/ble_core/Release/libblelib.a(rwble_hl.o)
 .bss           0x00000000        0x0 C:/Users/xeeen/ON_Semiconductor/PACK/ONSemiconductor/RSL10/3.7.606/lib/ble_core/Release/libblelib.a(rwble_hl.o)
 .text          0x00000000        0x0 C:/Users/xeeen/ON_Semiconductor/PACK/ONSemiconductor/RSL10/3.7.606/lib/ble_core/Release/libblelib.a(l2cm.o)
 .data          0x00000000        0x0 C:/Users/xeeen/ON_Semiconductor/PACK/ONSemiconductor/RSL10/3.7.606/lib/ble_core/Release/libblelib.a(l2cm.o)
 .bss           0x00000000        0x0 C:/Users/xeeen/ON_Semiconductor/PACK/ONSemiconductor/RSL10/3.7.606/lib/ble_core/Release/libblelib.a(l2cm.o)
 .text          0x00000000        0x0 C:/Users/xeeen/ON_Semiconductor/PACK/ONSemiconductor/RSL10/3.7.606/lib/ble_core/Release/libblelib.a(l2cc.o)
 .data          0x00000000        0x0 C:/Users/xeeen/ON_Semiconductor/PACK/ONSemiconductor/RSL10/3.7.606/lib/ble_core/Release/libblelib.a(l2cc.o)
 .bss           0x00000000        0x0 C:/Users/xeeen/ON_Semiconductor/PACK/ONSemiconductor/RSL10/3.7.606/lib/ble_core/Release/libblelib.a(l2cc.o)
 .text          0x00000000        0x0 C:/Users/xeeen/ON_Semiconductor/PACK/ONSemiconductor/RSL10/3.7.606/lib/ble_core/Release/libblelib.a(l2cc_lecb.o)
 .data          0x00000000        0x0 C:/Users/xeeen/ON_Semiconductor/PACK/ONSemiconductor/RSL10/3.7.606/lib/ble_core/Release/libblelib.a(l2cc_lecb.o)
 .bss           0x00000000        0x0 C:/Users/xeeen/ON_Semiconductor/PACK/ONSemiconductor/RSL10/3.7.606/lib/ble_core/Release/libblelib.a(l2cc_lecb.o)
 .text          0x00000000        0x0 C:/Users/xeeen/ON_Semiconductor/PACK/ONSemiconductor/RSL10/3.7.606/lib/ble_core/Release/libblelib.a(l2cc_pdu.o)
 .data          0x00000000        0x0 C:/Users/xeeen/ON_Semiconductor/PACK/ONSemiconductor/RSL10/3.7.606/lib/ble_core/Release/libblelib.a(l2cc_pdu.o)
 .bss           0x00000000        0x0 C:/Users/xeeen/ON_Semiconductor/PACK/ONSemiconductor/RSL10/3.7.606/lib/ble_core/Release/libblelib.a(l2cc_pdu.o)
 .text          0x00000000        0x0 C:/Users/xeeen/ON_Semiconductor/PACK/ONSemiconductor/RSL10/3.7.606/lib/ble_core/Release/libblelib.a(l2cc_task.o)
 .data          0x00000000        0x0 C:/Users/xeeen/ON_Semiconductor/PACK/ONSemiconductor/RSL10/3.7.606/lib/ble_core/Release/libblelib.a(l2cc_task.o)
 .bss           0x00000000        0x0 C:/Users/xeeen/ON_Semiconductor/PACK/ONSemiconductor/RSL10/3.7.606/lib/ble_core/Release/libblelib.a(l2cc_task.o)
 .text          0x00000000        0x0 C:/Users/xeeen/ON_Semiconductor/PACK/ONSemiconductor/RSL10/3.7.606/lib/ble_core/Release/libblelib.a(gattm.o)
 .data          0x00000000        0x0 C:/Users/xeeen/ON_Semiconductor/PACK/ONSemiconductor/RSL10/3.7.606/lib/ble_core/Release/libblelib.a(gattm.o)
 .bss           0x00000000        0x0 C:/Users/xeeen/ON_Semiconductor/PACK/ONSemiconductor/RSL10/3.7.606/lib/ble_core/Release/libblelib.a(gattm.o)
 .text          0x00000000        0x0 C:/Users/xeeen/ON_Semiconductor/PACK/ONSemiconductor/RSL10/3.7.606/lib/ble_core/Release/libblelib.a(gattm_task.o)
 .data          0x00000000        0x0 C:/Users/xeeen/ON_Semiconductor/PACK/ONSemiconductor/RSL10/3.7.606/lib/ble_core/Release/libblelib.a(gattm_task.o)
 .bss           0x00000000        0x0 C:/Users/xeeen/ON_Semiconductor/PACK/ONSemiconductor/RSL10/3.7.606/lib/ble_core/Release/libblelib.a(gattm_task.o)
 .text          0x00000000        0x0 C:/Users/xeeen/ON_Semiconductor/PACK/ONSemiconductor/RSL10/3.7.606/lib/ble_core/Release/libblelib.a(gattc.o)
 .data          0x00000000        0x0 C:/Users/xeeen/ON_Semiconductor/PACK/ONSemiconductor/RSL10/3.7.606/lib/ble_core/Release/libblelib.a(gattc.o)
 .bss           0x00000000        0x0 C:/Users/xeeen/ON_Semiconductor/PACK/ONSemiconductor/RSL10/3.7.606/lib/ble_core/Release/libblelib.a(gattc.o)
 .text.gattc_get_op_seq_num
                0x00000000       0x14 C:/Users/xeeen/ON_Semiconductor/PACK/ONSemiconductor/RSL10/3.7.606/lib/ble_core/Release/libblelib.a(gattc.o)
 .text          0x00000000        0x0 C:/Users/xeeen/ON_Semiconductor/PACK/ONSemiconductor/RSL10/3.7.606/lib/ble_core/Release/libblelib.a(gattc_task.o)
 .data          0x00000000        0x0 C:/Users/xeeen/ON_Semiconductor/PACK/ONSemiconductor/RSL10/3.7.606/lib/ble_core/Release/libblelib.a(gattc_task.o)
 .bss           0x00000000        0x0 C:/Users/xeeen/ON_Semiconductor/PACK/ONSemiconductor/RSL10/3.7.606/lib/ble_core/Release/libblelib.a(gattc_task.o)
 .text          0x00000000        0x0 C:/Users/xeeen/ON_Semiconductor/PACK/ONSemiconductor/RSL10/3.7.606/lib/ble_core/Release/libblelib.a(atts.o)
 .data          0x00000000        0x0 C:/Users/xeeen/ON_Semiconductor/PACK/ONSemiconductor/RSL10/3.7.606/lib/ble_core/Release/libblelib.a(atts.o)
 .bss           0x00000000        0x0 C:/Users/xeeen/ON_Semiconductor/PACK/ONSemiconductor/RSL10/3.7.606/lib/ble_core/Release/libblelib.a(atts.o)
 .text          0x00000000        0x0 C:/Users/xeeen/ON_Semiconductor/PACK/ONSemiconductor/RSL10/3.7.606/lib/ble_core/Release/libblelib.a(attm.o)
 .data          0x00000000        0x0 C:/Users/xeeen/ON_Semiconductor/PACK/ONSemiconductor/RSL10/3.7.606/lib/ble_core/Release/libblelib.a(attm.o)
 .bss           0x00000000        0x0 C:/Users/xeeen/ON_Semiconductor/PACK/ONSemiconductor/RSL10/3.7.606/lib/ble_core/Release/libblelib.a(attm.o)
 .text.attm_svc_create_db_128
                0x00000000      0x130 C:/Users/xeeen/ON_Semiconductor/PACK/ONSemiconductor/RSL10/3.7.606/lib/ble_core/Release/libblelib.a(attm.o)
 .text.attm_reserve_handle_range
                0x00000000       0x22 C:/Users/xeeen/ON_Semiconductor/PACK/ONSemiconductor/RSL10/3.7.606/lib/ble_core/Release/libblelib.a(attm.o)
 .text          0x00000000        0x0 C:/Users/xeeen/ON_Semiconductor/PACK/ONSemiconductor/RSL10/3.7.606/lib/ble_core/Release/libblelib.a(attm_db.o)
 .data          0x00000000        0x0 C:/Users/xeeen/ON_Semiconductor/PACK/ONSemiconductor/RSL10/3.7.606/lib/ble_core/Release/libblelib.a(attm_db.o)
 .bss           0x00000000        0x0 C:/Users/xeeen/ON_Semiconductor/PACK/ONSemiconductor/RSL10/3.7.606/lib/ble_core/Release/libblelib.a(attm_db.o)
 .text.attmdb_svc_visibility_set
                0x00000000       0x30 C:/Users/xeeen/ON_Semiconductor/PACK/ONSemiconductor/RSL10/3.7.606/lib/ble_core/Release/libblelib.a(attm_db.o)
 .text          0x00000000        0x0 C:/Users/xeeen/ON_Semiconductor/PACK/ONSemiconductor/RSL10/3.7.606/lib/ble_core/Release/libblelib.a(attc.o)
 .data          0x00000000        0x0 C:/Users/xeeen/ON_Semiconductor/PACK/ONSemiconductor/RSL10/3.7.606/lib/ble_core/Release/libblelib.a(attc.o)
 .bss           0x00000000        0x0 C:/Users/xeeen/ON_Semiconductor/PACK/ONSemiconductor/RSL10/3.7.606/lib/ble_core/Release/libblelib.a(attc.o)
 .text          0x00000000        0x0 C:/Users/xeeen/ON_Semiconductor/PACK/ONSemiconductor/RSL10/3.7.606/lib/ble_core/Release/libblelib.a(gapm.o)
 .data          0x00000000        0x0 C:/Users/xeeen/ON_Semiconductor/PACK/ONSemiconductor/RSL10/3.7.606/lib/ble_core/Release/libblelib.a(gapm.o)
 .bss           0x00000000        0x0 C:/Users/xeeen/ON_Semiconductor/PACK/ONSemiconductor/RSL10/3.7.606/lib/ble_core/Release/libblelib.a(gapm.o)
 .text.gapm_get_id_from_task
                0x00000000       0x1c C:/Users/xeeen/ON_Semiconductor/PACK/ONSemiconductor/RSL10/3.7.606/lib/ble_core/Release/libblelib.a(gapm.o)
 .text.gapm_get_task_from_id
                0x00000000       0x26 C:/Users/xeeen/ON_Semiconductor/PACK/ONSemiconductor/RSL10/3.7.606/lib/ble_core/Release/libblelib.a(gapm.o)
 .text          0x00000000        0x0 C:/Users/xeeen/ON_Semiconductor/PACK/ONSemiconductor/RSL10/3.7.606/lib/ble_core/Release/libblelib.a(gapm_task.o)
 .data          0x00000000        0x0 C:/Users/xeeen/ON_Semiconductor/PACK/ONSemiconductor/RSL10/3.7.606/lib/ble_core/Release/libblelib.a(gapm_task.o)
 .bss           0x00000000        0x0 C:/Users/xeeen/ON_Semiconductor/PACK/ONSemiconductor/RSL10/3.7.606/lib/ble_core/Release/libblelib.a(gapm_task.o)
 .text          0x00000000        0x0 C:/Users/xeeen/ON_Semiconductor/PACK/ONSemiconductor/RSL10/3.7.606/lib/ble_core/Release/libblelib.a(gapm_util.o)
 .data          0x00000000        0x0 C:/Users/xeeen/ON_Semiconductor/PACK/ONSemiconductor/RSL10/3.7.606/lib/ble_core/Release/libblelib.a(gapm_util.o)
 .bss           0x00000000        0x0 C:/Users/xeeen/ON_Semiconductor/PACK/ONSemiconductor/RSL10/3.7.606/lib/ble_core/Release/libblelib.a(gapm_util.o)
 .text          0x00000000        0x0 C:/Users/xeeen/ON_Semiconductor/PACK/ONSemiconductor/RSL10/3.7.606/lib/ble_core/Release/libblelib.a(gapc.o)
 .data          0x00000000        0x0 C:/Users/xeeen/ON_Semiconductor/PACK/ONSemiconductor/RSL10/3.7.606/lib/ble_core/Release/libblelib.a(gapc.o)
 .bss           0x00000000        0x0 C:/Users/xeeen/ON_Semiconductor/PACK/ONSemiconductor/RSL10/3.7.606/lib/ble_core/Release/libblelib.a(gapc.o)
 .text          0x00000000        0x0 C:/Users/xeeen/ON_Semiconductor/PACK/ONSemiconductor/RSL10/3.7.606/lib/ble_core/Release/libblelib.a(gapc_task.o)
 .data          0x00000000        0x0 C:/Users/xeeen/ON_Semiconductor/PACK/ONSemiconductor/RSL10/3.7.606/lib/ble_core/Release/libblelib.a(gapc_task.o)
 .bss           0x00000000        0x0 C:/Users/xeeen/ON_Semiconductor/PACK/ONSemiconductor/RSL10/3.7.606/lib/ble_core/Release/libblelib.a(gapc_task.o)
 .text          0x00000000        0x0 C:/Users/xeeen/ON_Semiconductor/PACK/ONSemiconductor/RSL10/3.7.606/lib/ble_core/Release/libblelib.a(llm_hci.o)
 .data          0x00000000        0x0 C:/Users/xeeen/ON_Semiconductor/PACK/ONSemiconductor/RSL10/3.7.606/lib/ble_core/Release/libblelib.a(llm_hci.o)
 .bss           0x00000000        0x0 C:/Users/xeeen/ON_Semiconductor/PACK/ONSemiconductor/RSL10/3.7.606/lib/ble_core/Release/libblelib.a(llm_hci.o)
 .text          0x00000000        0x0 C:/Users/xeeen/ON_Semiconductor/PACK/ONSemiconductor/RSL10/3.7.606/lib/ble_core/Release/libblelib.a(llc_ch_asses.o)
 .data          0x00000000        0x0 C:/Users/xeeen/ON_Semiconductor/PACK/ONSemiconductor/RSL10/3.7.606/lib/ble_core/Release/libblelib.a(llc_ch_asses.o)
 .bss           0x00000000        0x0 C:/Users/xeeen/ON_Semiconductor/PACK/ONSemiconductor/RSL10/3.7.606/lib/ble_core/Release/libblelib.a(llc_ch_asses.o)
 .text          0x00000000        0x0 C:/Users/xeeen/ON_Semiconductor/PACK/ONSemiconductor/RSL10/3.7.606/lib/ble_core/Release/libblelib.a(llc_hci.o)
 .data          0x00000000        0x0 C:/Users/xeeen/ON_Semiconductor/PACK/ONSemiconductor/RSL10/3.7.606/lib/ble_core/Release/libblelib.a(llc_hci.o)
 .bss           0x00000000        0x0 C:/Users/xeeen/ON_Semiconductor/PACK/ONSemiconductor/RSL10/3.7.606/lib/ble_core/Release/libblelib.a(llc_hci.o)
 .text          0x00000000        0x0 C:/Users/xeeen/ON_Semiconductor/PACK/ONSemiconductor/RSL10/3.7.606/lib/ble_core/Release/libblelib.a(l2cc_sig.o)
 .data          0x00000000        0x0 C:/Users/xeeen/ON_Semiconductor/PACK/ONSemiconductor/RSL10/3.7.606/lib/ble_core/Release/libblelib.a(l2cc_sig.o)
 .bss           0x00000000        0x0 C:/Users/xeeen/ON_Semiconductor/PACK/ONSemiconductor/RSL10/3.7.606/lib/ble_core/Release/libblelib.a(l2cc_sig.o)
 .text          0x00000000        0x0 C:/Users/xeeen/ON_Semiconductor/PACK/ONSemiconductor/RSL10/3.7.606/lib/ble_core/Release/libblelib.a(smpm_api.o)
 .data          0x00000000        0x0 C:/Users/xeeen/ON_Semiconductor/PACK/ONSemiconductor/RSL10/3.7.606/lib/ble_core/Release/libblelib.a(smpm_api.o)
 .bss           0x00000000        0x0 C:/Users/xeeen/ON_Semiconductor/PACK/ONSemiconductor/RSL10/3.7.606/lib/ble_core/Release/libblelib.a(smpm_api.o)
 .text          0x00000000        0x0 C:/Users/xeeen/ON_Semiconductor/PACK/ONSemiconductor/RSL10/3.7.606/lib/ble_core/Release/libblelib.a(smpc.o)
 .data          0x00000000        0x0 C:/Users/xeeen/ON_Semiconductor/PACK/ONSemiconductor/RSL10/3.7.606/lib/ble_core/Release/libblelib.a(smpc.o)
 .bss           0x00000000        0x0 C:/Users/xeeen/ON_Semiconductor/PACK/ONSemiconductor/RSL10/3.7.606/lib/ble_core/Release/libblelib.a(smpc.o)
 .text          0x00000000        0x0 C:/Users/xeeen/ON_Semiconductor/PACK/ONSemiconductor/RSL10/3.7.606/lib/ble_core/Release/libblelib.a(smpc_api.o)
 .data          0x00000000        0x0 C:/Users/xeeen/ON_Semiconductor/PACK/ONSemiconductor/RSL10/3.7.606/lib/ble_core/Release/libblelib.a(smpc_api.o)
 .bss           0x00000000        0x0 C:/Users/xeeen/ON_Semiconductor/PACK/ONSemiconductor/RSL10/3.7.606/lib/ble_core/Release/libblelib.a(smpc_api.o)
 .text          0x00000000        0x0 C:/Users/xeeen/ON_Semiconductor/PACK/ONSemiconductor/RSL10/3.7.606/lib/ble_core/Release/libblelib.a(smpc_crypto.o)
 .data          0x00000000        0x0 C:/Users/xeeen/ON_Semiconductor/PACK/ONSemiconductor/RSL10/3.7.606/lib/ble_core/Release/libblelib.a(smpc_crypto.o)
 .bss           0x00000000        0x0 C:/Users/xeeen/ON_Semiconductor/PACK/ONSemiconductor/RSL10/3.7.606/lib/ble_core/Release/libblelib.a(smpc_crypto.o)
 .text          0x00000000        0x0 C:/Users/xeeen/ON_Semiconductor/PACK/ONSemiconductor/RSL10/3.7.606/lib/ble_core/Release/libblelib.a(smpc_util.o)
 .data          0x00000000        0x0 C:/Users/xeeen/ON_Semiconductor/PACK/ONSemiconductor/RSL10/3.7.606/lib/ble_core/Release/libblelib.a(smpc_util.o)
 .bss           0x00000000        0x0 C:/Users/xeeen/ON_Semiconductor/PACK/ONSemiconductor/RSL10/3.7.606/lib/ble_core/Release/libblelib.a(smpc_util.o)
 .text          0x00000000        0x0 C:/Users/xeeen/ON_Semiconductor/PACK/ONSemiconductor/RSL10/3.7.606/lib/ble_core/Release/libblelib.a(gapm_hci.o)
 .data          0x00000000        0x0 C:/Users/xeeen/ON_Semiconductor/PACK/ONSemiconductor/RSL10/3.7.606/lib/ble_core/Release/libblelib.a(gapm_hci.o)
 .bss           0x00000000        0x0 C:/Users/xeeen/ON_Semiconductor/PACK/ONSemiconductor/RSL10/3.7.606/lib/ble_core/Release/libblelib.a(gapm_hci.o)
 .text          0x00000000        0x0 C:/Users/xeeen/ON_Semiconductor/PACK/ONSemiconductor/RSL10/3.7.606/lib/ble_core/Release/libblelib.a(gapc_hci.o)
 .data          0x00000000        0x0 C:/Users/xeeen/ON_Semiconductor/PACK/ONSemiconductor/RSL10/3.7.606/lib/ble_core/Release/libblelib.a(gapc_hci.o)
 .bss           0x00000000        0x0 C:/Users/xeeen/ON_Semiconductor/PACK/ONSemiconductor/RSL10/3.7.606/lib/ble_core/Release/libblelib.a(gapc_hci.o)
 .text          0x00000000        0x0 C:/Users/xeeen/ON_Semiconductor/PACK/ONSemiconductor/RSL10/3.7.606/lib/ble_core/Release/libblelib.a(gapc_sig.o)
 .data          0x00000000        0x0 C:/Users/xeeen/ON_Semiconductor/PACK/ONSemiconductor/RSL10/3.7.606/lib/ble_core/Release/libblelib.a(gapc_sig.o)
 .bss           0x00000000        0x0 C:/Users/xeeen/ON_Semiconductor/PACK/ONSemiconductor/RSL10/3.7.606/lib/ble_core/Release/libblelib.a(gapc_sig.o)
 .rodata.gapc_sig_handlers
                0x00000000       0x18 C:/Users/xeeen/ON_Semiconductor/PACK/ONSemiconductor/RSL10/3.7.606/lib/ble_core/Release/libblelib.a(gapc_sig.o)
 .text          0x00000000        0x0 C:/Users/xeeen/ON_Semiconductor/PACK/ONSemiconductor/RSL10/3.7.606/lib/ble_core/Release/libkelib.a(rst_grosstime.o)
 .data          0x00000000        0x0 C:/Users/xeeen/ON_Semiconductor/PACK/ONSemiconductor/RSL10/3.7.606/lib/ble_core/Release/libkelib.a(rst_grosstime.o)
 .bss           0x00000000        0x0 C:/Users/xeeen/ON_Semiconductor/PACK/ONSemiconductor/RSL10/3.7.606/lib/ble_core/Release/libkelib.a(rst_grosstime.o)
 .bss.critical_sec_cnt
                0x00000000        0x4 C:/Users/xeeen/ON_Semiconductor/PACK/ONSemiconductor/RSL10/3.7.606/lib/ble_core/Release/libkelib.a(rst_grosstime.o)
 .text          0x00000000        0x0 C:/Users/xeeen/ON_Semiconductor/PACK/ONSemiconductor/RSL10/3.7.606/lib/ble_core/Release/libkelib.a(rwip2.o)
 .data          0x00000000        0x0 C:/Users/xeeen/ON_Semiconductor/PACK/ONSemiconductor/RSL10/3.7.606/lib/ble_core/Release/libkelib.a(rwip2.o)
 .bss           0x00000000        0x0 C:/Users/xeeen/ON_Semiconductor/PACK/ONSemiconductor/RSL10/3.7.606/lib/ble_core/Release/libkelib.a(rwip2.o)
 .text          0x00000000        0x0 C:/Users/xeeen/ON_Semiconductor/PACK/ONSemiconductor/RSL10/3.7.606/lib/ble_core/Release/libkelib.a(ke.o)
 .data          0x00000000        0x0 C:/Users/xeeen/ON_Semiconductor/PACK/ONSemiconductor/RSL10/3.7.606/lib/ble_core/Release/libkelib.a(ke.o)
 .bss           0x00000000        0x0 C:/Users/xeeen/ON_Semiconductor/PACK/ONSemiconductor/RSL10/3.7.606/lib/ble_core/Release/libkelib.a(ke.o)
 .text.ke_sleep_check
                0x00000000        0xe C:/Users/xeeen/ON_Semiconductor/PACK/ONSemiconductor/RSL10/3.7.606/lib/ble_core/Release/libkelib.a(ke.o)
 .text          0x00000000        0x0 C:/Users/xeeen/ON_Semiconductor/PACK/ONSemiconductor/RSL10/3.7.606/lib/ble_core/Release/libkelib.a(ke_event.o)
 .data          0x00000000        0x0 C:/Users/xeeen/ON_Semiconductor/PACK/ONSemiconductor/RSL10/3.7.606/lib/ble_core/Release/libkelib.a(ke_event.o)
 .bss           0x00000000        0x0 C:/Users/xeeen/ON_Semiconductor/PACK/ONSemiconductor/RSL10/3.7.606/lib/ble_core/Release/libkelib.a(ke_event.o)
 .text.ke_event_get
                0x00000000       0x28 C:/Users/xeeen/ON_Semiconductor/PACK/ONSemiconductor/RSL10/3.7.606/lib/ble_core/Release/libkelib.a(ke_event.o)
 .text.ke_event_get_all
                0x00000000        0xc C:/Users/xeeen/ON_Semiconductor/PACK/ONSemiconductor/RSL10/3.7.606/lib/ble_core/Release/libkelib.a(ke_event.o)
 .text          0x00000000        0x0 C:/Users/xeeen/ON_Semiconductor/PACK/ONSemiconductor/RSL10/3.7.606/lib/ble_core/Release/libkelib.a(ke_mem.o)
 .data          0x00000000        0x0 C:/Users/xeeen/ON_Semiconductor/PACK/ONSemiconductor/RSL10/3.7.606/lib/ble_core/Release/libkelib.a(ke_mem.o)
 .bss           0x00000000        0x0 C:/Users/xeeen/ON_Semiconductor/PACK/ONSemiconductor/RSL10/3.7.606/lib/ble_core/Release/libkelib.a(ke_mem.o)
 .text.ke_mem_is_empty
                0x00000000       0x34 C:/Users/xeeen/ON_Semiconductor/PACK/ONSemiconductor/RSL10/3.7.606/lib/ble_core/Release/libkelib.a(ke_mem.o)
 .text          0x00000000        0x0 C:/Users/xeeen/ON_Semiconductor/PACK/ONSemiconductor/RSL10/3.7.606/lib/ble_core/Release/libkelib.a(ke_msg.o)
 .data          0x00000000        0x0 C:/Users/xeeen/ON_Semiconductor/PACK/ONSemiconductor/RSL10/3.7.606/lib/ble_core/Release/libkelib.a(ke_msg.o)
 .bss           0x00000000        0x0 C:/Users/xeeen/ON_Semiconductor/PACK/ONSemiconductor/RSL10/3.7.606/lib/ble_core/Release/libkelib.a(ke_msg.o)
 .text.ke_msg_forward_new_id
                0x00000000       0x14 C:/Users/xeeen/ON_Semiconductor/PACK/ONSemiconductor/RSL10/3.7.606/lib/ble_core/Release/libkelib.a(ke_msg.o)
 .text.ke_msg_dest_id_get
                0x00000000        0x6 C:/Users/xeeen/ON_Semiconductor/PACK/ONSemiconductor/RSL10/3.7.606/lib/ble_core/Release/libkelib.a(ke_msg.o)
 .text          0x00000000        0x0 C:/Users/xeeen/ON_Semiconductor/PACK/ONSemiconductor/RSL10/3.7.606/lib/ble_core/Release/libkelib.a(ke_task.o)
 .data          0x00000000        0x0 C:/Users/xeeen/ON_Semiconductor/PACK/ONSemiconductor/RSL10/3.7.606/lib/ble_core/Release/libkelib.a(ke_task.o)
 .bss           0x00000000        0x0 C:/Users/xeeen/ON_Semiconductor/PACK/ONSemiconductor/RSL10/3.7.606/lib/ble_core/Release/libkelib.a(ke_task.o)
 .text.ke_task_delete
                0x00000000       0x24 C:/Users/xeeen/ON_Semiconductor/PACK/ONSemiconductor/RSL10/3.7.606/lib/ble_core/Release/libkelib.a(ke_task.o)
 .text.ke_msg_save
                0x00000000        0x4 C:/Users/xeeen/ON_Semiconductor/PACK/ONSemiconductor/RSL10/3.7.606/lib/ble_core/Release/libkelib.a(ke_task.o)
 .text.ke_task_check
                0x00000000       0x24 C:/Users/xeeen/ON_Semiconductor/PACK/ONSemiconductor/RSL10/3.7.606/lib/ble_core/Release/libkelib.a(ke_task.o)
 .text          0x00000000        0x0 C:/Users/xeeen/ON_Semiconductor/PACK/ONSemiconductor/RSL10/3.7.606/lib/ble_core/Release/libkelib.a(ke_timer.o)
 .data          0x00000000        0x0 C:/Users/xeeen/ON_Semiconductor/PACK/ONSemiconductor/RSL10/3.7.606/lib/ble_core/Release/libkelib.a(ke_timer.o)
 .bss           0x00000000        0x0 C:/Users/xeeen/ON_Semiconductor/PACK/ONSemiconductor/RSL10/3.7.606/lib/ble_core/Release/libkelib.a(ke_timer.o)
 .text.ke_timer_adjust_all
                0x00000000       0x18 C:/Users/xeeen/ON_Semiconductor/PACK/ONSemiconductor/RSL10/3.7.606/lib/ble_core/Release/libkelib.a(ke_timer.o)
 .text.ke_timer_target_get
                0x00000000       0x18 C:/Users/xeeen/ON_Semiconductor/PACK/ONSemiconductor/RSL10/3.7.606/lib/ble_core/Release/libkelib.a(ke_timer.o)
 .text          0x00000000        0x0 C:/Users/xeeen/ON_Semiconductor/PACK/ONSemiconductor/RSL10/3.7.606/lib/ble_core/Release/libkelib.a(co_list.o)
 .data          0x00000000        0x0 C:/Users/xeeen/ON_Semiconductor/PACK/ONSemiconductor/RSL10/3.7.606/lib/ble_core/Release/libkelib.a(co_list.o)
 .bss           0x00000000        0x0 C:/Users/xeeen/ON_Semiconductor/PACK/ONSemiconductor/RSL10/3.7.606/lib/ble_core/Release/libkelib.a(co_list.o)
 .text.co_list_pool_init
                0x00000000       0x5e C:/Users/xeeen/ON_Semiconductor/PACK/ONSemiconductor/RSL10/3.7.606/lib/ble_core/Release/libkelib.a(co_list.o)
 .text.co_list_push_back_sublist
                0x00000000       0x14 C:/Users/xeeen/ON_Semiconductor/PACK/ONSemiconductor/RSL10/3.7.606/lib/ble_core/Release/libkelib.a(co_list.o)
 .text.co_list_check_size_available
                0x00000000       0x16 C:/Users/xeeen/ON_Semiconductor/PACK/ONSemiconductor/RSL10/3.7.606/lib/ble_core/Release/libkelib.a(co_list.o)
 .text          0x00000000        0x0 C:/Users/xeeen/ON_Semiconductor/PACK/ONSemiconductor/RSL10/3.7.606/lib/ble_core/Release/libkelib.a(co_utils.o)
 .data          0x00000000        0x0 C:/Users/xeeen/ON_Semiconductor/PACK/ONSemiconductor/RSL10/3.7.606/lib/ble_core/Release/libkelib.a(co_utils.o)
 .bss           0x00000000        0x0 C:/Users/xeeen/ON_Semiconductor/PACK/ONSemiconductor/RSL10/3.7.606/lib/ble_core/Release/libkelib.a(co_utils.o)
 .rodata.one_bits
                0x00000000       0x10 C:/Users/xeeen/ON_Semiconductor/PACK/ONSemiconductor/RSL10/3.7.606/lib/ble_core/Release/libkelib.a(co_utils.o)
 .text          0x00000000        0x0 C:/Users/xeeen/ON_Semiconductor/PACK/ONSemiconductor/RSL10/3.7.606/lib/ble_core/Release/libkelib.a(ke_queue.o)
 .data          0x00000000        0x0 C:/Users/xeeen/ON_Semiconductor/PACK/ONSemiconductor/RSL10/3.7.606/lib/ble_core/Release/libkelib.a(ke_queue.o)
 .bss           0x00000000        0x0 C:/Users/xeeen/ON_Semiconductor/PACK/ONSemiconductor/RSL10/3.7.606/lib/ble_core/Release/libkelib.a(ke_queue.o)
 .text          0x00000000        0x0 C:/Users/xeeen/ON_Semiconductor/PACK/ONSemiconductor/RSL10/3.7.606/lib/ble_profiles/Release/libbasc.a(basc.o)
 .data          0x00000000        0x0 C:/Users/xeeen/ON_Semiconductor/PACK/ONSemiconductor/RSL10/3.7.606/lib/ble_profiles/Release/libbasc.a(basc.o)
 .bss           0x00000000        0x0 C:/Users/xeeen/ON_Semiconductor/PACK/ONSemiconductor/RSL10/3.7.606/lib/ble_profiles/Release/libbasc.a(basc.o)
 .text          0x00000000        0x0 C:/Users/xeeen/ON_Semiconductor/PACK/ONSemiconductor/RSL10/3.7.606/lib/ble_profiles/Release/libbasc.a(basc_task.o)
 .data          0x00000000        0x0 C:/Users/xeeen/ON_Semiconductor/PACK/ONSemiconductor/RSL10/3.7.606/lib/ble_profiles/Release/libbasc.a(basc_task.o)
 .bss           0x00000000        0x0 C:/Users/xeeen/ON_Semiconductor/PACK/ONSemiconductor/RSL10/3.7.606/lib/ble_profiles/Release/libbasc.a(basc_task.o)
 .text          0x00000000        0x0 c:/program files (x86)/on semiconductor/ide_v3.4.0.48/arm_tools/bin/../lib/gcc/arm-none-eabi/10.2.1/../../../../arm-none-eabi/lib/thumb/v7-m/nofp\libm.a(lib_a-s_round.o)
 .data          0x00000000        0x0 c:/program files (x86)/on semiconductor/ide_v3.4.0.48/arm_tools/bin/../lib/gcc/arm-none-eabi/10.2.1/../../../../arm-none-eabi/lib/thumb/v7-m/nofp\libm.a(lib_a-s_round.o)
 .bss           0x00000000        0x0 c:/program files (x86)/on semiconductor/ide_v3.4.0.48/arm_tools/bin/../lib/gcc/arm-none-eabi/10.2.1/../../../../arm-none-eabi/lib/thumb/v7-m/nofp\libm.a(lib_a-s_round.o)
 .text          0x00000000      0x254 c:/program files (x86)/on semiconductor/ide_v3.4.0.48/arm_tools/bin/../lib/gcc/arm-none-eabi/10.2.1/thumb/v7-m/nofp\libgcc.a(_arm_muldf3.o)
 .data          0x00000000        0x0 c:/program files (x86)/on semiconductor/ide_v3.4.0.48/arm_tools/bin/../lib/gcc/arm-none-eabi/10.2.1/thumb/v7-m/nofp\libgcc.a(_arm_muldf3.o)
 .bss           0x00000000        0x0 c:/program files (x86)/on semiconductor/ide_v3.4.0.48/arm_tools/bin/../lib/gcc/arm-none-eabi/10.2.1/thumb/v7-m/nofp\libgcc.a(_arm_muldf3.o)
 .debug_frame   0x00000000       0x30 c:/program files (x86)/on semiconductor/ide_v3.4.0.48/arm_tools/bin/../lib/gcc/arm-none-eabi/10.2.1/thumb/v7-m/nofp\libgcc.a(_arm_muldf3.o)
 .ARM.attributes
                0x00000000       0x1d c:/program files (x86)/on semiconductor/ide_v3.4.0.48/arm_tools/bin/../lib/gcc/arm-none-eabi/10.2.1/thumb/v7-m/nofp\libgcc.a(_arm_muldf3.o)
 .text          0x00000000      0x168 c:/program files (x86)/on semiconductor/ide_v3.4.0.48/arm_tools/bin/../lib/gcc/arm-none-eabi/10.2.1/thumb/v7-m/nofp\libgcc.a(_arm_mulsf3.o)
 .data          0x00000000        0x0 c:/program files (x86)/on semiconductor/ide_v3.4.0.48/arm_tools/bin/../lib/gcc/arm-none-eabi/10.2.1/thumb/v7-m/nofp\libgcc.a(_arm_mulsf3.o)
 .bss           0x00000000        0x0 c:/program files (x86)/on semiconductor/ide_v3.4.0.48/arm_tools/bin/../lib/gcc/arm-none-eabi/10.2.1/thumb/v7-m/nofp\libgcc.a(_arm_mulsf3.o)
 .debug_frame   0x00000000       0x24 c:/program files (x86)/on semiconductor/ide_v3.4.0.48/arm_tools/bin/../lib/gcc/arm-none-eabi/10.2.1/thumb/v7-m/nofp\libgcc.a(_arm_mulsf3.o)
 .ARM.attributes
                0x00000000       0x1d c:/program files (x86)/on semiconductor/ide_v3.4.0.48/arm_tools/bin/../lib/gcc/arm-none-eabi/10.2.1/thumb/v7-m/nofp\libgcc.a(_arm_mulsf3.o)
 .data          0x00000000        0x0 c:/program files (x86)/on semiconductor/ide_v3.4.0.48/arm_tools/bin/../lib/gcc/arm-none-eabi/10.2.1/thumb/v7-m/nofp\libgcc.a(_arm_addsubdf3.o)
 .bss           0x00000000        0x0 c:/program files (x86)/on semiconductor/ide_v3.4.0.48/arm_tools/bin/../lib/gcc/arm-none-eabi/10.2.1/thumb/v7-m/nofp\libgcc.a(_arm_addsubdf3.o)
 .data          0x00000000        0x0 c:/program files (x86)/on semiconductor/ide_v3.4.0.48/arm_tools/bin/../lib/gcc/arm-none-eabi/10.2.1/thumb/v7-m/nofp\libgcc.a(_arm_muldivdf3.o)
 .bss           0x00000000        0x0 c:/program files (x86)/on semiconductor/ide_v3.4.0.48/arm_tools/bin/../lib/gcc/arm-none-eabi/10.2.1/thumb/v7-m/nofp\libgcc.a(_arm_muldivdf3.o)
 .data          0x00000000        0x0 c:/program files (x86)/on semiconductor/ide_v3.4.0.48/arm_tools/bin/../lib/gcc/arm-none-eabi/10.2.1/thumb/v7-m/nofp\libgcc.a(_arm_fixdfsi.o)
 .bss           0x00000000        0x0 c:/program files (x86)/on semiconductor/ide_v3.4.0.48/arm_tools/bin/../lib/gcc/arm-none-eabi/10.2.1/thumb/v7-m/nofp\libgcc.a(_arm_fixdfsi.o)
 .data          0x00000000        0x0 c:/program files (x86)/on semiconductor/ide_v3.4.0.48/arm_tools/bin/../lib/gcc/arm-none-eabi/10.2.1/thumb/v7-m/nofp\libgcc.a(_arm_fixunsdfsi.o)
 .bss           0x00000000        0x0 c:/program files (x86)/on semiconductor/ide_v3.4.0.48/arm_tools/bin/../lib/gcc/arm-none-eabi/10.2.1/thumb/v7-m/nofp\libgcc.a(_arm_fixunsdfsi.o)
 .data          0x00000000        0x0 c:/program files (x86)/on semiconductor/ide_v3.4.0.48/arm_tools/bin/../lib/gcc/arm-none-eabi/10.2.1/thumb/v7-m/nofp\libgcc.a(_arm_truncdfsf2.o)
 .bss           0x00000000        0x0 c:/program files (x86)/on semiconductor/ide_v3.4.0.48/arm_tools/bin/../lib/gcc/arm-none-eabi/10.2.1/thumb/v7-m/nofp\libgcc.a(_arm_truncdfsf2.o)
 .data          0x00000000        0x0 c:/program files (x86)/on semiconductor/ide_v3.4.0.48/arm_tools/bin/../lib/gcc/arm-none-eabi/10.2.1/thumb/v7-m/nofp\libgcc.a(_arm_fixsfsi.o)
 .bss           0x00000000        0x0 c:/program files (x86)/on semiconductor/ide_v3.4.0.48/arm_tools/bin/../lib/gcc/arm-none-eabi/10.2.1/thumb/v7-m/nofp\libgcc.a(_arm_fixsfsi.o)
 .text          0x00000000       0xa0 c:/program files (x86)/on semiconductor/ide_v3.4.0.48/arm_tools/bin/../lib/gcc/arm-none-eabi/10.2.1/thumb/v7-m/nofp\libgcc.a(_aeabi_ldivmod.o)
 .data          0x00000000        0x0 c:/program files (x86)/on semiconductor/ide_v3.4.0.48/arm_tools/bin/../lib/gcc/arm-none-eabi/10.2.1/thumb/v7-m/nofp\libgcc.a(_aeabi_ldivmod.o)
 .bss           0x00000000        0x0 c:/program files (x86)/on semiconductor/ide_v3.4.0.48/arm_tools/bin/../lib/gcc/arm-none-eabi/10.2.1/thumb/v7-m/nofp\libgcc.a(_aeabi_ldivmod.o)
 .debug_frame   0x00000000       0x44 c:/program files (x86)/on semiconductor/ide_v3.4.0.48/arm_tools/bin/../lib/gcc/arm-none-eabi/10.2.1/thumb/v7-m/nofp\libgcc.a(_aeabi_ldivmod.o)
 .ARM.attributes
                0x00000000       0x1d c:/program files (x86)/on semiconductor/ide_v3.4.0.48/arm_tools/bin/../lib/gcc/arm-none-eabi/10.2.1/thumb/v7-m/nofp\libgcc.a(_aeabi_ldivmod.o)
 .text          0x00000000       0x30 c:/program files (x86)/on semiconductor/ide_v3.4.0.48/arm_tools/bin/../lib/gcc/arm-none-eabi/10.2.1/thumb/v7-m/nofp\libgcc.a(_aeabi_uldivmod.o)
 .data          0x00000000        0x0 c:/program files (x86)/on semiconductor/ide_v3.4.0.48/arm_tools/bin/../lib/gcc/arm-none-eabi/10.2.1/thumb/v7-m/nofp\libgcc.a(_aeabi_uldivmod.o)
 .bss           0x00000000        0x0 c:/program files (x86)/on semiconductor/ide_v3.4.0.48/arm_tools/bin/../lib/gcc/arm-none-eabi/10.2.1/thumb/v7-m/nofp\libgcc.a(_aeabi_uldivmod.o)
 .debug_frame   0x00000000       0x2c c:/program files (x86)/on semiconductor/ide_v3.4.0.48/arm_tools/bin/../lib/gcc/arm-none-eabi/10.2.1/thumb/v7-m/nofp\libgcc.a(_aeabi_uldivmod.o)
 .ARM.attributes
                0x00000000       0x1d c:/program files (x86)/on semiconductor/ide_v3.4.0.48/arm_tools/bin/../lib/gcc/arm-none-eabi/10.2.1/thumb/v7-m/nofp\libgcc.a(_aeabi_uldivmod.o)
 .text          0x00000000      0x2d4 c:/program files (x86)/on semiconductor/ide_v3.4.0.48/arm_tools/bin/../lib/gcc/arm-none-eabi/10.2.1/thumb/v7-m/nofp\libgcc.a(_udivmoddi4.o)
 .data          0x00000000        0x0 c:/program files (x86)/on semiconductor/ide_v3.4.0.48/arm_tools/bin/../lib/gcc/arm-none-eabi/10.2.1/thumb/v7-m/nofp\libgcc.a(_udivmoddi4.o)
 .bss           0x00000000        0x0 c:/program files (x86)/on semiconductor/ide_v3.4.0.48/arm_tools/bin/../lib/gcc/arm-none-eabi/10.2.1/thumb/v7-m/nofp\libgcc.a(_udivmoddi4.o)
 .ARM.extab     0x00000000        0x0 c:/program files (x86)/on semiconductor/ide_v3.4.0.48/arm_tools/bin/../lib/gcc/arm-none-eabi/10.2.1/thumb/v7-m/nofp\libgcc.a(_udivmoddi4.o)
 .ARM.exidx     0x00000000        0x8 c:/program files (x86)/on semiconductor/ide_v3.4.0.48/arm_tools/bin/../lib/gcc/arm-none-eabi/10.2.1/thumb/v7-m/nofp\libgcc.a(_udivmoddi4.o)
 .debug_frame   0x00000000       0x34 c:/program files (x86)/on semiconductor/ide_v3.4.0.48/arm_tools/bin/../lib/gcc/arm-none-eabi/10.2.1/thumb/v7-m/nofp\libgcc.a(_udivmoddi4.o)
 .ARM.attributes
                0x00000000       0x2d c:/program files (x86)/on semiconductor/ide_v3.4.0.48/arm_tools/bin/../lib/gcc/arm-none-eabi/10.2.1/thumb/v7-m/nofp\libgcc.a(_udivmoddi4.o)
 .text          0x00000000        0x4 c:/program files (x86)/on semiconductor/ide_v3.4.0.48/arm_tools/bin/../lib/gcc/arm-none-eabi/10.2.1/thumb/v7-m/nofp\libgcc.a(_dvmd_tls.o)
 .data          0x00000000        0x0 c:/program files (x86)/on semiconductor/ide_v3.4.0.48/arm_tools/bin/../lib/gcc/arm-none-eabi/10.2.1/thumb/v7-m/nofp\libgcc.a(_dvmd_tls.o)
 .bss           0x00000000        0x0 c:/program files (x86)/on semiconductor/ide_v3.4.0.48/arm_tools/bin/../lib/gcc/arm-none-eabi/10.2.1/thumb/v7-m/nofp\libgcc.a(_dvmd_tls.o)
 .ARM.attributes
                0x00000000       0x1d c:/program files (x86)/on semiconductor/ide_v3.4.0.48/arm_tools/bin/../lib/gcc/arm-none-eabi/10.2.1/thumb/v7-m/nofp\libgcc.a(_dvmd_tls.o)
 .text          0x00000000        0x0 c:/program files (x86)/on semiconductor/ide_v3.4.0.48/arm_tools/bin/../lib/gcc/arm-none-eabi/10.2.1/../../../../arm-none-eabi/lib/thumb/v7-m/nofp\libg_nano.a(lib_a-errno.o)
 .data          0x00000000        0x0 c:/program files (x86)/on semiconductor/ide_v3.4.0.48/arm_tools/bin/../lib/gcc/arm-none-eabi/10.2.1/../../../../arm-none-eabi/lib/thumb/v7-m/nofp\libg_nano.a(lib_a-errno.o)
 .bss           0x00000000        0x0 c:/program files (x86)/on semiconductor/ide_v3.4.0.48/arm_tools/bin/../lib/gcc/arm-none-eabi/10.2.1/../../../../arm-none-eabi/lib/thumb/v7-m/nofp\libg_nano.a(lib_a-errno.o)
 .text          0x00000000        0x0 c:/program files (x86)/on semiconductor/ide_v3.4.0.48/arm_tools/bin/../lib/gcc/arm-none-eabi/10.2.1/../../../../arm-none-eabi/lib/thumb/v7-m/nofp\libg_nano.a(lib_a-impure.o)
 .data          0x00000000        0x0 c:/program files (x86)/on semiconductor/ide_v3.4.0.48/arm_tools/bin/../lib/gcc/arm-none-eabi/10.2.1/../../../../arm-none-eabi/lib/thumb/v7-m/nofp\libg_nano.a(lib_a-impure.o)
 .bss           0x00000000        0x0 c:/program files (x86)/on semiconductor/ide_v3.4.0.48/arm_tools/bin/../lib/gcc/arm-none-eabi/10.2.1/../../../../arm-none-eabi/lib/thumb/v7-m/nofp\libg_nano.a(lib_a-impure.o)
 .text          0x00000000        0x0 c:/program files (x86)/on semiconductor/ide_v3.4.0.48/arm_tools/bin/../lib/gcc/arm-none-eabi/10.2.1/../../../../arm-none-eabi/lib/thumb/v7-m/nofp\libg_nano.a(lib_a-malloc.o)
 .data          0x00000000        0x0 c:/program files (x86)/on semiconductor/ide_v3.4.0.48/arm_tools/bin/../lib/gcc/arm-none-eabi/10.2.1/../../../../arm-none-eabi/lib/thumb/v7-m/nofp\libg_nano.a(lib_a-malloc.o)
 .bss           0x00000000        0x0 c:/program files (x86)/on semiconductor/ide_v3.4.0.48/arm_tools/bin/../lib/gcc/arm-none-eabi/10.2.1/../../../../arm-none-eabi/lib/thumb/v7-m/nofp\libg_nano.a(lib_a-malloc.o)
 .text          0x00000000        0x0 c:/program files (x86)/on semiconductor/ide_v3.4.0.48/arm_tools/bin/../lib/gcc/arm-none-eabi/10.2.1/../../../../arm-none-eabi/lib/thumb/v7-m/nofp\libg_nano.a(lib_a-memcmp.o)
 .data          0x00000000        0x0 c:/program files (x86)/on semiconductor/ide_v3.4.0.48/arm_tools/bin/../lib/gcc/arm-none-eabi/10.2.1/../../../../arm-none-eabi/lib/thumb/v7-m/nofp\libg_nano.a(lib_a-memcmp.o)
 .bss           0x00000000        0x0 c:/program files (x86)/on semiconductor/ide_v3.4.0.48/arm_tools/bin/../lib/gcc/arm-none-eabi/10.2.1/../../../../arm-none-eabi/lib/thumb/v7-m/nofp\libg_nano.a(lib_a-memcmp.o)
 .text          0x00000000        0x0 c:/program files (x86)/on semiconductor/ide_v3.4.0.48/arm_tools/bin/../lib/gcc/arm-none-eabi/10.2.1/../../../../arm-none-eabi/lib/thumb/v7-m/nofp\libg_nano.a(lib_a-memcpy-stub.o)
 .data          0x00000000        0x0 c:/program files (x86)/on semiconductor/ide_v3.4.0.48/arm_tools/bin/../lib/gcc/arm-none-eabi/10.2.1/../../../../arm-none-eabi/lib/thumb/v7-m/nofp\libg_nano.a(lib_a-memcpy-stub.o)
 .bss           0x00000000        0x0 c:/program files (x86)/on semiconductor/ide_v3.4.0.48/arm_tools/bin/../lib/gcc/arm-none-eabi/10.2.1/../../../../arm-none-eabi/lib/thumb/v7-m/nofp\libg_nano.a(lib_a-memcpy-stub.o)
 .text          0x00000000        0x0 c:/program files (x86)/on semiconductor/ide_v3.4.0.48/arm_tools/bin/../lib/gcc/arm-none-eabi/10.2.1/../../../../arm-none-eabi/lib/thumb/v7-m/nofp\libg_nano.a(lib_a-memset.o)
 .data          0x00000000        0x0 c:/program files (x86)/on semiconductor/ide_v3.4.0.48/arm_tools/bin/../lib/gcc/arm-none-eabi/10.2.1/../../../../arm-none-eabi/lib/thumb/v7-m/nofp\libg_nano.a(lib_a-memset.o)
 .bss           0x00000000        0x0 c:/program files (x86)/on semiconductor/ide_v3.4.0.48/arm_tools/bin/../lib/gcc/arm-none-eabi/10.2.1/../../../../arm-none-eabi/lib/thumb/v7-m/nofp\libg_nano.a(lib_a-memset.o)
 .text          0x00000000        0x0 c:/program files (x86)/on semiconductor/ide_v3.4.0.48/arm_tools/bin/../lib/gcc/arm-none-eabi/10.2.1/../../../../arm-none-eabi/lib/thumb/v7-m/nofp\libg_nano.a(lib_a-nano-freer.o)
 .data          0x00000000        0x0 c:/program files (x86)/on semiconductor/ide_v3.4.0.48/arm_tools/bin/../lib/gcc/arm-none-eabi/10.2.1/../../../../arm-none-eabi/lib/thumb/v7-m/nofp\libg_nano.a(lib_a-nano-freer.o)
 .bss           0x00000000        0x0 c:/program files (x86)/on semiconductor/ide_v3.4.0.48/arm_tools/bin/../lib/gcc/arm-none-eabi/10.2.1/../../../../arm-none-eabi/lib/thumb/v7-m/nofp\libg_nano.a(lib_a-nano-freer.o)
 .text          0x00000000        0x0 c:/program files (x86)/on semiconductor/ide_v3.4.0.48/arm_tools/bin/../lib/gcc/arm-none-eabi/10.2.1/../../../../arm-none-eabi/lib/thumb/v7-m/nofp\libg_nano.a(lib_a-nano-mallocr.o)
 .data          0x00000000        0x0 c:/program files (x86)/on semiconductor/ide_v3.4.0.48/arm_tools/bin/../lib/gcc/arm-none-eabi/10.2.1/../../../../arm-none-eabi/lib/thumb/v7-m/nofp\libg_nano.a(lib_a-nano-mallocr.o)
 .bss           0x00000000        0x0 c:/program files (x86)/on semiconductor/ide_v3.4.0.48/arm_tools/bin/../lib/gcc/arm-none-eabi/10.2.1/../../../../arm-none-eabi/lib/thumb/v7-m/nofp\libg_nano.a(lib_a-nano-mallocr.o)
 .text          0x00000000        0x0 c:/program files (x86)/on semiconductor/ide_v3.4.0.48/arm_tools/bin/../lib/gcc/arm-none-eabi/10.2.1/../../../../arm-none-eabi/lib/thumb/v7-m/nofp\libg_nano.a(lib_a-rand.o)
 .data          0x00000000        0x0 c:/program files (x86)/on semiconductor/ide_v3.4.0.48/arm_tools/bin/../lib/gcc/arm-none-eabi/10.2.1/../../../../arm-none-eabi/lib/thumb/v7-m/nofp\libg_nano.a(lib_a-rand.o)
 .bss           0x00000000        0x0 c:/program files (x86)/on semiconductor/ide_v3.4.0.48/arm_tools/bin/../lib/gcc/arm-none-eabi/10.2.1/../../../../arm-none-eabi/lib/thumb/v7-m/nofp\libg_nano.a(lib_a-rand.o)
 .text          0x00000000        0x0 c:/program files (x86)/on semiconductor/ide_v3.4.0.48/arm_tools/bin/../lib/gcc/arm-none-eabi/10.2.1/../../../../arm-none-eabi/lib/thumb/v7-m/nofp\libg_nano.a(lib_a-sbrkr.o)
 .data          0x00000000        0x0 c:/program files (x86)/on semiconductor/ide_v3.4.0.48/arm_tools/bin/../lib/gcc/arm-none-eabi/10.2.1/../../../../arm-none-eabi/lib/thumb/v7-m/nofp\libg_nano.a(lib_a-sbrkr.o)
 .bss           0x00000000        0x0 c:/program files (x86)/on semiconductor/ide_v3.4.0.48/arm_tools/bin/../lib/gcc/arm-none-eabi/10.2.1/../../../../arm-none-eabi/lib/thumb/v7-m/nofp\libg_nano.a(lib_a-sbrkr.o)
 .text          0x00000000       0x10 c:/program files (x86)/on semiconductor/ide_v3.4.0.48/arm_tools/bin/../lib/gcc/arm-none-eabi/10.2.1/../../../../arm-none-eabi/lib/thumb/v7-m/nofp\libg_nano.a(lib_a-strlen.o)
 .data          0x00000000        0x0 c:/program files (x86)/on semiconductor/ide_v3.4.0.48/arm_tools/bin/../lib/gcc/arm-none-eabi/10.2.1/../../../../arm-none-eabi/lib/thumb/v7-m/nofp\libg_nano.a(lib_a-strlen.o)
 .bss           0x00000000        0x0 c:/program files (x86)/on semiconductor/ide_v3.4.0.48/arm_tools/bin/../lib/gcc/arm-none-eabi/10.2.1/../../../../arm-none-eabi/lib/thumb/v7-m/nofp\libg_nano.a(lib_a-strlen.o)
 .ARM.attributes
                0x00000000       0x17 c:/program files (x86)/on semiconductor/ide_v3.4.0.48/arm_tools/bin/../lib/gcc/arm-none-eabi/10.2.1/../../../../arm-none-eabi/lib/thumb/v7-m/nofp\libg_nano.a(lib_a-strlen.o)
 .text          0x00000000        0x0 c:/program files (x86)/on semiconductor/ide_v3.4.0.48/arm_tools/bin/../lib/gcc/arm-none-eabi/10.2.1/../../../../arm-none-eabi/lib/thumb/v7-m/nofp\libg_nano.a(lib_a-assert.o)
 .data          0x00000000        0x0 c:/program files (x86)/on semiconductor/ide_v3.4.0.48/arm_tools/bin/../lib/gcc/arm-none-eabi/10.2.1/../../../../arm-none-eabi/lib/thumb/v7-m/nofp\libg_nano.a(lib_a-assert.o)
 .bss           0x00000000        0x0 c:/program files (x86)/on semiconductor/ide_v3.4.0.48/arm_tools/bin/../lib/gcc/arm-none-eabi/10.2.1/../../../../arm-none-eabi/lib/thumb/v7-m/nofp\libg_nano.a(lib_a-assert.o)
 .text.__assert
                0x00000000        0xa c:/program files (x86)/on semiconductor/ide_v3.4.0.48/arm_tools/bin/../lib/gcc/arm-none-eabi/10.2.1/../../../../arm-none-eabi/lib/thumb/v7-m/nofp\libg_nano.a(lib_a-assert.o)
 .text          0x00000000        0x0 c:/program files (x86)/on semiconductor/ide_v3.4.0.48/arm_tools/bin/../lib/gcc/arm-none-eabi/10.2.1/../../../../arm-none-eabi/lib/thumb/v7-m/nofp\libg_nano.a(lib_a-fprintf.o)
 .data          0x00000000        0x0 c:/program files (x86)/on semiconductor/ide_v3.4.0.48/arm_tools/bin/../lib/gcc/arm-none-eabi/10.2.1/../../../../arm-none-eabi/lib/thumb/v7-m/nofp\libg_nano.a(lib_a-fprintf.o)
 .bss           0x00000000        0x0 c:/program files (x86)/on semiconductor/ide_v3.4.0.48/arm_tools/bin/../lib/gcc/arm-none-eabi/10.2.1/../../../../arm-none-eabi/lib/thumb/v7-m/nofp\libg_nano.a(lib_a-fprintf.o)
 .text._fprintf_r
                0x00000000       0x1a c:/program files (x86)/on semiconductor/ide_v3.4.0.48/arm_tools/bin/../lib/gcc/arm-none-eabi/10.2.1/../../../../arm-none-eabi/lib/thumb/v7-m/nofp\libg_nano.a(lib_a-fprintf.o)
 .text          0x00000000        0x0 c:/program files (x86)/on semiconductor/ide_v3.4.0.48/arm_tools/bin/../lib/gcc/arm-none-eabi/10.2.1/../../../../arm-none-eabi/lib/thumb/v7-m/nofp\libg_nano.a(lib_a-mlock.o)
 .data          0x00000000        0x0 c:/program files (x86)/on semiconductor/ide_v3.4.0.48/arm_tools/bin/../lib/gcc/arm-none-eabi/10.2.1/../../../../arm-none-eabi/lib/thumb/v7-m/nofp\libg_nano.a(lib_a-mlock.o)
 .bss           0x00000000        0x0 c:/program files (x86)/on semiconductor/ide_v3.4.0.48/arm_tools/bin/../lib/gcc/arm-none-eabi/10.2.1/../../../../arm-none-eabi/lib/thumb/v7-m/nofp\libg_nano.a(lib_a-mlock.o)
 .text          0x00000000        0x0 c:/program files (x86)/on semiconductor/ide_v3.4.0.48/arm_tools/bin/../lib/gcc/arm-none-eabi/10.2.1/../../../../arm-none-eabi/lib/thumb/v7-m/nofp\libg_nano.a(lib_a-nano-vfprintf.o)
 .data          0x00000000        0x0 c:/program files (x86)/on semiconductor/ide_v3.4.0.48/arm_tools/bin/../lib/gcc/arm-none-eabi/10.2.1/../../../../arm-none-eabi/lib/thumb/v7-m/nofp\libg_nano.a(lib_a-nano-vfprintf.o)
 .bss           0x00000000        0x0 c:/program files (x86)/on semiconductor/ide_v3.4.0.48/arm_tools/bin/../lib/gcc/arm-none-eabi/10.2.1/../../../../arm-none-eabi/lib/thumb/v7-m/nofp\libg_nano.a(lib_a-nano-vfprintf.o)
 .text.__sprint_r
                0x00000000       0x1a c:/program files (x86)/on semiconductor/ide_v3.4.0.48/arm_tools/bin/../lib/gcc/arm-none-eabi/10.2.1/../../../../arm-none-eabi/lib/thumb/v7-m/nofp\libg_nano.a(lib_a-nano-vfprintf.o)
 .text.vfprintf
                0x00000000       0x14 c:/program files (x86)/on semiconductor/ide_v3.4.0.48/arm_tools/bin/../lib/gcc/arm-none-eabi/10.2.1/../../../../arm-none-eabi/lib/thumb/v7-m/nofp\libg_nano.a(lib_a-nano-vfprintf.o)
 .text          0x00000000        0x0 c:/program files (x86)/on semiconductor/ide_v3.4.0.48/arm_tools/bin/../lib/gcc/arm-none-eabi/10.2.1/../../../../arm-none-eabi/lib/thumb/v7-m/nofp\libg_nano.a(lib_a-nano-vfprintf_i.o)
 .data          0x00000000        0x0 c:/program files (x86)/on semiconductor/ide_v3.4.0.48/arm_tools/bin/../lib/gcc/arm-none-eabi/10.2.1/../../../../arm-none-eabi/lib/thumb/v7-m/nofp\libg_nano.a(lib_a-nano-vfprintf_i.o)
 .bss           0x00000000        0x0 c:/program files (x86)/on semiconductor/ide_v3.4.0.48/arm_tools/bin/../lib/gcc/arm-none-eabi/10.2.1/../../../../arm-none-eabi/lib/thumb/v7-m/nofp\libg_nano.a(lib_a-nano-vfprintf_i.o)
 .text          0x00000000        0x0 c:/program files (x86)/on semiconductor/ide_v3.4.0.48/arm_tools/bin/../lib/gcc/arm-none-eabi/10.2.1/../../../../arm-none-eabi/lib/thumb/v7-m/nofp\libg_nano.a(lib_a-reent.o)
 .data          0x00000000        0x0 c:/program files (x86)/on semiconductor/ide_v3.4.0.48/arm_tools/bin/../lib/gcc/arm-none-eabi/10.2.1/../../../../arm-none-eabi/lib/thumb/v7-m/nofp\libg_nano.a(lib_a-reent.o)
 .bss           0x00000000        0x0 c:/program files (x86)/on semiconductor/ide_v3.4.0.48/arm_tools/bin/../lib/gcc/arm-none-eabi/10.2.1/../../../../arm-none-eabi/lib/thumb/v7-m/nofp\libg_nano.a(lib_a-reent.o)
 .text.cleanup_glue
                0x00000000       0x1a c:/program files (x86)/on semiconductor/ide_v3.4.0.48/arm_tools/bin/../lib/gcc/arm-none-eabi/10.2.1/../../../../arm-none-eabi/lib/thumb/v7-m/nofp\libg_nano.a(lib_a-reent.o)
 .text._reclaim_reent
                0x00000000       0xb8 c:/program files (x86)/on semiconductor/ide_v3.4.0.48/arm_tools/bin/../lib/gcc/arm-none-eabi/10.2.1/../../../../arm-none-eabi/lib/thumb/v7-m/nofp\libg_nano.a(lib_a-reent.o)
 .text          0x00000000        0x0 c:/program files (x86)/on semiconductor/ide_v3.4.0.48/arm_tools/bin/../lib/gcc/arm-none-eabi/10.2.1/../../../../arm-none-eabi/lib/thumb/v7-m/nofp\libg_nano.a(lib_a-wbuf.o)
 .data          0x00000000        0x0 c:/program files (x86)/on semiconductor/ide_v3.4.0.48/arm_tools/bin/../lib/gcc/arm-none-eabi/10.2.1/../../../../arm-none-eabi/lib/thumb/v7-m/nofp\libg_nano.a(lib_a-wbuf.o)
 .bss           0x00000000        0x0 c:/program files (x86)/on semiconductor/ide_v3.4.0.48/arm_tools/bin/../lib/gcc/arm-none-eabi/10.2.1/../../../../arm-none-eabi/lib/thumb/v7-m/nofp\libg_nano.a(lib_a-wbuf.o)
 .text.__swbuf  0x00000000       0x10 c:/program files (x86)/on semiconductor/ide_v3.4.0.48/arm_tools/bin/../lib/gcc/arm-none-eabi/10.2.1/../../../../arm-none-eabi/lib/thumb/v7-m/nofp\libg_nano.a(lib_a-wbuf.o)
 .text          0x00000000        0x0 c:/program files (x86)/on semiconductor/ide_v3.4.0.48/arm_tools/bin/../lib/gcc/arm-none-eabi/10.2.1/../../../../arm-none-eabi/lib/thumb/v7-m/nofp\libg_nano.a(lib_a-wsetup.o)
 .data          0x00000000        0x0 c:/program files (x86)/on semiconductor/ide_v3.4.0.48/arm_tools/bin/../lib/gcc/arm-none-eabi/10.2.1/../../../../arm-none-eabi/lib/thumb/v7-m/nofp\libg_nano.a(lib_a-wsetup.o)
 .bss           0x00000000        0x0 c:/program files (x86)/on semiconductor/ide_v3.4.0.48/arm_tools/bin/../lib/gcc/arm-none-eabi/10.2.1/../../../../arm-none-eabi/lib/thumb/v7-m/nofp\libg_nano.a(lib_a-wsetup.o)
 .text          0x00000000        0x0 c:/program files (x86)/on semiconductor/ide_v3.4.0.48/arm_tools/bin/../lib/gcc/arm-none-eabi/10.2.1/../../../../arm-none-eabi/lib/thumb/v7-m/nofp\libg_nano.a(lib_a-abort.o)
 .data          0x00000000        0x0 c:/program files (x86)/on semiconductor/ide_v3.4.0.48/arm_tools/bin/../lib/gcc/arm-none-eabi/10.2.1/../../../../arm-none-eabi/lib/thumb/v7-m/nofp\libg_nano.a(lib_a-abort.o)
 .bss           0x00000000        0x0 c:/program files (x86)/on semiconductor/ide_v3.4.0.48/arm_tools/bin/../lib/gcc/arm-none-eabi/10.2.1/../../../../arm-none-eabi/lib/thumb/v7-m/nofp\libg_nano.a(lib_a-abort.o)
 .text          0x00000000        0x0 c:/program files (x86)/on semiconductor/ide_v3.4.0.48/arm_tools/bin/../lib/gcc/arm-none-eabi/10.2.1/../../../../arm-none-eabi/lib/thumb/v7-m/nofp\libg_nano.a(lib_a-fflush.o)
 .data          0x00000000        0x0 c:/program files (x86)/on semiconductor/ide_v3.4.0.48/arm_tools/bin/../lib/gcc/arm-none-eabi/10.2.1/../../../../arm-none-eabi/lib/thumb/v7-m/nofp\libg_nano.a(lib_a-fflush.o)
 .bss           0x00000000        0x0 c:/program files (x86)/on semiconductor/ide_v3.4.0.48/arm_tools/bin/../lib/gcc/arm-none-eabi/10.2.1/../../../../arm-none-eabi/lib/thumb/v7-m/nofp\libg_nano.a(lib_a-fflush.o)
 .text.fflush   0x00000000       0x24 c:/program files (x86)/on semiconductor/ide_v3.4.0.48/arm_tools/bin/../lib/gcc/arm-none-eabi/10.2.1/../../../../arm-none-eabi/lib/thumb/v7-m/nofp\libg_nano.a(lib_a-fflush.o)
 .text          0x00000000        0x0 c:/program files (x86)/on semiconductor/ide_v3.4.0.48/arm_tools/bin/../lib/gcc/arm-none-eabi/10.2.1/../../../../arm-none-eabi/lib/thumb/v7-m/nofp\libg_nano.a(lib_a-findfp.o)
 .data          0x00000000        0x0 c:/program files (x86)/on semiconductor/ide_v3.4.0.48/arm_tools/bin/../lib/gcc/arm-none-eabi/10.2.1/../../../../arm-none-eabi/lib/thumb/v7-m/nofp\libg_nano.a(lib_a-findfp.o)
 .bss           0x00000000        0x0 c:/program files (x86)/on semiconductor/ide_v3.4.0.48/arm_tools/bin/../lib/gcc/arm-none-eabi/10.2.1/../../../../arm-none-eabi/lib/thumb/v7-m/nofp\libg_nano.a(lib_a-findfp.o)
 .text.__fp_lock
                0x00000000       0x18 c:/program files (x86)/on semiconductor/ide_v3.4.0.48/arm_tools/bin/../lib/gcc/arm-none-eabi/10.2.1/../../../../arm-none-eabi/lib/thumb/v7-m/nofp\libg_nano.a(lib_a-findfp.o)
 .text.__fp_unlock
                0x00000000       0x18 c:/program files (x86)/on semiconductor/ide_v3.4.0.48/arm_tools/bin/../lib/gcc/arm-none-eabi/10.2.1/../../../../arm-none-eabi/lib/thumb/v7-m/nofp\libg_nano.a(lib_a-findfp.o)
 .text._cleanup
                0x00000000        0xc c:/program files (x86)/on semiconductor/ide_v3.4.0.48/arm_tools/bin/../lib/gcc/arm-none-eabi/10.2.1/../../../../arm-none-eabi/lib/thumb/v7-m/nofp\libg_nano.a(lib_a-findfp.o)
 .text.__fp_lock_all
                0x00000000       0x1c c:/program files (x86)/on semiconductor/ide_v3.4.0.48/arm_tools/bin/../lib/gcc/arm-none-eabi/10.2.1/../../../../arm-none-eabi/lib/thumb/v7-m/nofp\libg_nano.a(lib_a-findfp.o)
 .text.__fp_unlock_all
                0x00000000       0x1c c:/program files (x86)/on semiconductor/ide_v3.4.0.48/arm_tools/bin/../lib/gcc/arm-none-eabi/10.2.1/../../../../arm-none-eabi/lib/thumb/v7-m/nofp\libg_nano.a(lib_a-findfp.o)
 .text          0x00000000        0x0 c:/program files (x86)/on semiconductor/ide_v3.4.0.48/arm_tools/bin/../lib/gcc/arm-none-eabi/10.2.1/../../../../arm-none-eabi/lib/thumb/v7-m/nofp\libg_nano.a(lib_a-fvwrite.o)
 .data          0x00000000        0x0 c:/program files (x86)/on semiconductor/ide_v3.4.0.48/arm_tools/bin/../lib/gcc/arm-none-eabi/10.2.1/../../../../arm-none-eabi/lib/thumb/v7-m/nofp\libg_nano.a(lib_a-fvwrite.o)
 .bss           0x00000000        0x0 c:/program files (x86)/on semiconductor/ide_v3.4.0.48/arm_tools/bin/../lib/gcc/arm-none-eabi/10.2.1/../../../../arm-none-eabi/lib/thumb/v7-m/nofp\libg_nano.a(lib_a-fvwrite.o)
 .text.__sfvwrite_r
                0x00000000      0x290 c:/program files (x86)/on semiconductor/ide_v3.4.0.48/arm_tools/bin/../lib/gcc/arm-none-eabi/10.2.1/../../../../arm-none-eabi/lib/thumb/v7-m/nofp\libg_nano.a(lib_a-fvwrite.o)
 .debug_frame   0x00000000       0x3c c:/program files (x86)/on semiconductor/ide_v3.4.0.48/arm_tools/bin/../lib/gcc/arm-none-eabi/10.2.1/../../../../arm-none-eabi/lib/thumb/v7-m/nofp\libg_nano.a(lib_a-fvwrite.o)
 .ARM.attributes
                0x00000000       0x2d c:/program files (x86)/on semiconductor/ide_v3.4.0.48/arm_tools/bin/../lib/gcc/arm-none-eabi/10.2.1/../../../../arm-none-eabi/lib/thumb/v7-m/nofp\libg_nano.a(lib_a-fvwrite.o)
 .text          0x00000000        0x0 c:/program files (x86)/on semiconductor/ide_v3.4.0.48/arm_tools/bin/../lib/gcc/arm-none-eabi/10.2.1/../../../../arm-none-eabi/lib/thumb/v7-m/nofp\libg_nano.a(lib_a-fwalk.o)
 .data          0x00000000        0x0 c:/program files (x86)/on semiconductor/ide_v3.4.0.48/arm_tools/bin/../lib/gcc/arm-none-eabi/10.2.1/../../../../arm-none-eabi/lib/thumb/v7-m/nofp\libg_nano.a(lib_a-fwalk.o)
 .bss           0x00000000        0x0 c:/program files (x86)/on semiconductor/ide_v3.4.0.48/arm_tools/bin/../lib/gcc/arm-none-eabi/10.2.1/../../../../arm-none-eabi/lib/thumb/v7-m/nofp\libg_nano.a(lib_a-fwalk.o)
 .text._fwalk   0x00000000       0x3a c:/program files (x86)/on semiconductor/ide_v3.4.0.48/arm_tools/bin/../lib/gcc/arm-none-eabi/10.2.1/../../../../arm-none-eabi/lib/thumb/v7-m/nofp\libg_nano.a(lib_a-fwalk.o)
 .text          0x00000000        0x0 c:/program files (x86)/on semiconductor/ide_v3.4.0.48/arm_tools/bin/../lib/gcc/arm-none-eabi/10.2.1/../../../../arm-none-eabi/lib/thumb/v7-m/nofp\libg_nano.a(lib_a-lock.o)
 .data          0x00000000        0x0 c:/program files (x86)/on semiconductor/ide_v3.4.0.48/arm_tools/bin/../lib/gcc/arm-none-eabi/10.2.1/../../../../arm-none-eabi/lib/thumb/v7-m/nofp\libg_nano.a(lib_a-lock.o)
 .bss           0x00000000        0x0 c:/program files (x86)/on semiconductor/ide_v3.4.0.48/arm_tools/bin/../lib/gcc/arm-none-eabi/10.2.1/../../../../arm-none-eabi/lib/thumb/v7-m/nofp\libg_nano.a(lib_a-lock.o)
 .text.__retarget_lock_init
                0x00000000        0x2 c:/program files (x86)/on semiconductor/ide_v3.4.0.48/arm_tools/bin/../lib/gcc/arm-none-eabi/10.2.1/../../../../arm-none-eabi/lib/thumb/v7-m/nofp\libg_nano.a(lib_a-lock.o)
 .text.__retarget_lock_close
                0x00000000        0x2 c:/program files (x86)/on semiconductor/ide_v3.4.0.48/arm_tools/bin/../lib/gcc/arm-none-eabi/10.2.1/../../../../arm-none-eabi/lib/thumb/v7-m/nofp\libg_nano.a(lib_a-lock.o)
 .text.__retarget_lock_close_recursive
                0x00000000        0x2 c:/program files (x86)/on semiconductor/ide_v3.4.0.48/arm_tools/bin/../lib/gcc/arm-none-eabi/10.2.1/../../../../arm-none-eabi/lib/thumb/v7-m/nofp\libg_nano.a(lib_a-lock.o)
 .text.__retarget_lock_acquire
                0x00000000        0x2 c:/program files (x86)/on semiconductor/ide_v3.4.0.48/arm_tools/bin/../lib/gcc/arm-none-eabi/10.2.1/../../../../arm-none-eabi/lib/thumb/v7-m/nofp\libg_nano.a(lib_a-lock.o)
 .text.__retarget_lock_try_acquire
                0x00000000        0x4 c:/program files (x86)/on semiconductor/ide_v3.4.0.48/arm_tools/bin/../lib/gcc/arm-none-eabi/10.2.1/../../../../arm-none-eabi/lib/thumb/v7-m/nofp\libg_nano.a(lib_a-lock.o)
 .text.__retarget_lock_try_acquire_recursive
                0x00000000        0x4 c:/program files (x86)/on semiconductor/ide_v3.4.0.48/arm_tools/bin/../lib/gcc/arm-none-eabi/10.2.1/../../../../arm-none-eabi/lib/thumb/v7-m/nofp\libg_nano.a(lib_a-lock.o)
 .text.__retarget_lock_release
                0x00000000        0x2 c:/program files (x86)/on semiconductor/ide_v3.4.0.48/arm_tools/bin/../lib/gcc/arm-none-eabi/10.2.1/../../../../arm-none-eabi/lib/thumb/v7-m/nofp\libg_nano.a(lib_a-lock.o)
 .bss.__lock___arc4random_mutex
                0x00000000        0x1 c:/program files (x86)/on semiconductor/ide_v3.4.0.48/arm_tools/bin/../lib/gcc/arm-none-eabi/10.2.1/../../../../arm-none-eabi/lib/thumb/v7-m/nofp\libg_nano.a(lib_a-lock.o)
 .bss.__lock___at_quick_exit_mutex
                0x00000000        0x1 c:/program files (x86)/on semiconductor/ide_v3.4.0.48/arm_tools/bin/../lib/gcc/arm-none-eabi/10.2.1/../../../../arm-none-eabi/lib/thumb/v7-m/nofp\libg_nano.a(lib_a-lock.o)
 .bss.__lock___atexit_recursive_mutex
                0x00000000        0x1 c:/program files (x86)/on semiconductor/ide_v3.4.0.48/arm_tools/bin/../lib/gcc/arm-none-eabi/10.2.1/../../../../arm-none-eabi/lib/thumb/v7-m/nofp\libg_nano.a(lib_a-lock.o)
 .bss.__lock___dd_hash_mutex
                0x00000000        0x1 c:/program files (x86)/on semiconductor/ide_v3.4.0.48/arm_tools/bin/../lib/gcc/arm-none-eabi/10.2.1/../../../../arm-none-eabi/lib/thumb/v7-m/nofp\libg_nano.a(lib_a-lock.o)
 .bss.__lock___env_recursive_mutex
                0x00000000        0x1 c:/program files (x86)/on semiconductor/ide_v3.4.0.48/arm_tools/bin/../lib/gcc/arm-none-eabi/10.2.1/../../../../arm-none-eabi/lib/thumb/v7-m/nofp\libg_nano.a(lib_a-lock.o)
 .bss.__lock___tz_mutex
                0x00000000        0x1 c:/program files (x86)/on semiconductor/ide_v3.4.0.48/arm_tools/bin/../lib/gcc/arm-none-eabi/10.2.1/../../../../arm-none-eabi/lib/thumb/v7-m/nofp\libg_nano.a(lib_a-lock.o)
 .text          0x00000000        0x0 c:/program files (x86)/on semiconductor/ide_v3.4.0.48/arm_tools/bin/../lib/gcc/arm-none-eabi/10.2.1/../../../../arm-none-eabi/lib/thumb/v7-m/nofp\libg_nano.a(lib_a-makebuf.o)
 .data          0x00000000        0x0 c:/program files (x86)/on semiconductor/ide_v3.4.0.48/arm_tools/bin/../lib/gcc/arm-none-eabi/10.2.1/../../../../arm-none-eabi/lib/thumb/v7-m/nofp\libg_nano.a(lib_a-makebuf.o)
 .bss           0x00000000        0x0 c:/program files (x86)/on semiconductor/ide_v3.4.0.48/arm_tools/bin/../lib/gcc/arm-none-eabi/10.2.1/../../../../arm-none-eabi/lib/thumb/v7-m/nofp\libg_nano.a(lib_a-makebuf.o)
 .text          0x00000000        0x0 c:/program files (x86)/on semiconductor/ide_v3.4.0.48/arm_tools/bin/../lib/gcc/arm-none-eabi/10.2.1/../../../../arm-none-eabi/lib/thumb/v7-m/nofp\libg_nano.a(lib_a-memchr-stub.o)
 .data          0x00000000        0x0 c:/program files (x86)/on semiconductor/ide_v3.4.0.48/arm_tools/bin/../lib/gcc/arm-none-eabi/10.2.1/../../../../arm-none-eabi/lib/thumb/v7-m/nofp\libg_nano.a(lib_a-memchr-stub.o)
 .bss           0x00000000        0x0 c:/program files (x86)/on semiconductor/ide_v3.4.0.48/arm_tools/bin/../lib/gcc/arm-none-eabi/10.2.1/../../../../arm-none-eabi/lib/thumb/v7-m/nofp\libg_nano.a(lib_a-memchr-stub.o)
 .text          0x00000000        0x0 c:/program files (x86)/on semiconductor/ide_v3.4.0.48/arm_tools/bin/../lib/gcc/arm-none-eabi/10.2.1/../../../../arm-none-eabi/lib/thumb/v7-m/nofp\libg_nano.a(lib_a-memmove.o)
 .data          0x00000000        0x0 c:/program files (x86)/on semiconductor/ide_v3.4.0.48/arm_tools/bin/../lib/gcc/arm-none-eabi/10.2.1/../../../../arm-none-eabi/lib/thumb/v7-m/nofp\libg_nano.a(lib_a-memmove.o)
 .bss           0x00000000        0x0 c:/program files (x86)/on semiconductor/ide_v3.4.0.48/arm_tools/bin/../lib/gcc/arm-none-eabi/10.2.1/../../../../arm-none-eabi/lib/thumb/v7-m/nofp\libg_nano.a(lib_a-memmove.o)
 .text.memmove  0x00000000       0x34 c:/program files (x86)/on semiconductor/ide_v3.4.0.48/arm_tools/bin/../lib/gcc/arm-none-eabi/10.2.1/../../../../arm-none-eabi/lib/thumb/v7-m/nofp\libg_nano.a(lib_a-memmove.o)
 .debug_frame   0x00000000       0x28 c:/program files (x86)/on semiconductor/ide_v3.4.0.48/arm_tools/bin/../lib/gcc/arm-none-eabi/10.2.1/../../../../arm-none-eabi/lib/thumb/v7-m/nofp\libg_nano.a(lib_a-memmove.o)
 .ARM.attributes
                0x00000000       0x2d c:/program files (x86)/on semiconductor/ide_v3.4.0.48/arm_tools/bin/../lib/gcc/arm-none-eabi/10.2.1/../../../../arm-none-eabi/lib/thumb/v7-m/nofp\libg_nano.a(lib_a-memmove.o)
 .text          0x00000000        0x0 c:/program files (x86)/on semiconductor/ide_v3.4.0.48/arm_tools/bin/../lib/gcc/arm-none-eabi/10.2.1/../../../../arm-none-eabi/lib/thumb/v7-m/nofp\libg_nano.a(lib_a-nano-reallocr.o)
 .data          0x00000000        0x0 c:/program files (x86)/on semiconductor/ide_v3.4.0.48/arm_tools/bin/../lib/gcc/arm-none-eabi/10.2.1/../../../../arm-none-eabi/lib/thumb/v7-m/nofp\libg_nano.a(lib_a-nano-reallocr.o)
 .bss           0x00000000        0x0 c:/program files (x86)/on semiconductor/ide_v3.4.0.48/arm_tools/bin/../lib/gcc/arm-none-eabi/10.2.1/../../../../arm-none-eabi/lib/thumb/v7-m/nofp\libg_nano.a(lib_a-nano-reallocr.o)
 .text._realloc_r
                0x00000000       0x4c c:/program files (x86)/on semiconductor/ide_v3.4.0.48/arm_tools/bin/../lib/gcc/arm-none-eabi/10.2.1/../../../../arm-none-eabi/lib/thumb/v7-m/nofp\libg_nano.a(lib_a-nano-reallocr.o)
 .debug_frame   0x00000000       0x3c c:/program files (x86)/on semiconductor/ide_v3.4.0.48/arm_tools/bin/../lib/gcc/arm-none-eabi/10.2.1/../../../../arm-none-eabi/lib/thumb/v7-m/nofp\libg_nano.a(lib_a-nano-reallocr.o)
 .ARM.attributes
                0x00000000       0x2d c:/program files (x86)/on semiconductor/ide_v3.4.0.48/arm_tools/bin/../lib/gcc/arm-none-eabi/10.2.1/../../../../arm-none-eabi/lib/thumb/v7-m/nofp\libg_nano.a(lib_a-nano-reallocr.o)
 .text          0x00000000        0x0 c:/program files (x86)/on semiconductor/ide_v3.4.0.48/arm_tools/bin/../lib/gcc/arm-none-eabi/10.2.1/../../../../arm-none-eabi/lib/thumb/v7-m/nofp\libg_nano.a(lib_a-signal.o)
 .data          0x00000000        0x0 c:/program files (x86)/on semiconductor/ide_v3.4.0.48/arm_tools/bin/../lib/gcc/arm-none-eabi/10.2.1/../../../../arm-none-eabi/lib/thumb/v7-m/nofp\libg_nano.a(lib_a-signal.o)
 .bss           0x00000000        0x0 c:/program files (x86)/on semiconductor/ide_v3.4.0.48/arm_tools/bin/../lib/gcc/arm-none-eabi/10.2.1/../../../../arm-none-eabi/lib/thumb/v7-m/nofp\libg_nano.a(lib_a-signal.o)
 .text._init_signal_r
                0x00000000       0x28 c:/program files (x86)/on semiconductor/ide_v3.4.0.48/arm_tools/bin/../lib/gcc/arm-none-eabi/10.2.1/../../../../arm-none-eabi/lib/thumb/v7-m/nofp\libg_nano.a(lib_a-signal.o)
 .text._signal_r
                0x00000000       0x30 c:/program files (x86)/on semiconductor/ide_v3.4.0.48/arm_tools/bin/../lib/gcc/arm-none-eabi/10.2.1/../../../../arm-none-eabi/lib/thumb/v7-m/nofp\libg_nano.a(lib_a-signal.o)
 .text.__sigtramp_r
                0x00000000       0x48 c:/program files (x86)/on semiconductor/ide_v3.4.0.48/arm_tools/bin/../lib/gcc/arm-none-eabi/10.2.1/../../../../arm-none-eabi/lib/thumb/v7-m/nofp\libg_nano.a(lib_a-signal.o)
 .text.signal   0x00000000       0x10 c:/program files (x86)/on semiconductor/ide_v3.4.0.48/arm_tools/bin/../lib/gcc/arm-none-eabi/10.2.1/../../../../arm-none-eabi/lib/thumb/v7-m/nofp\libg_nano.a(lib_a-signal.o)
 .text._init_signal
                0x00000000        0xc c:/program files (x86)/on semiconductor/ide_v3.4.0.48/arm_tools/bin/../lib/gcc/arm-none-eabi/10.2.1/../../../../arm-none-eabi/lib/thumb/v7-m/nofp\libg_nano.a(lib_a-signal.o)
 .text.__sigtramp
                0x00000000       0x10 c:/program files (x86)/on semiconductor/ide_v3.4.0.48/arm_tools/bin/../lib/gcc/arm-none-eabi/10.2.1/../../../../arm-none-eabi/lib/thumb/v7-m/nofp\libg_nano.a(lib_a-signal.o)
 .text          0x00000000        0x0 c:/program files (x86)/on semiconductor/ide_v3.4.0.48/arm_tools/bin/../lib/gcc/arm-none-eabi/10.2.1/../../../../arm-none-eabi/lib/thumb/v7-m/nofp\libg_nano.a(lib_a-signalr.o)
 .data          0x00000000        0x0 c:/program files (x86)/on semiconductor/ide_v3.4.0.48/arm_tools/bin/../lib/gcc/arm-none-eabi/10.2.1/../../../../arm-none-eabi/lib/thumb/v7-m/nofp\libg_nano.a(lib_a-signalr.o)
 .bss           0x00000000        0x0 c:/program files (x86)/on semiconductor/ide_v3.4.0.48/arm_tools/bin/../lib/gcc/arm-none-eabi/10.2.1/../../../../arm-none-eabi/lib/thumb/v7-m/nofp\libg_nano.a(lib_a-signalr.o)
 .text          0x00000000        0x0 c:/program files (x86)/on semiconductor/ide_v3.4.0.48/arm_tools/bin/../lib/gcc/arm-none-eabi/10.2.1/../../../../arm-none-eabi/lib/thumb/v7-m/nofp\libg_nano.a(lib_a-stdio.o)
 .data          0x00000000        0x0 c:/program files (x86)/on semiconductor/ide_v3.4.0.48/arm_tools/bin/../lib/gcc/arm-none-eabi/10.2.1/../../../../arm-none-eabi/lib/thumb/v7-m/nofp\libg_nano.a(lib_a-stdio.o)
 .bss           0x00000000        0x0 c:/program files (x86)/on semiconductor/ide_v3.4.0.48/arm_tools/bin/../lib/gcc/arm-none-eabi/10.2.1/../../../../arm-none-eabi/lib/thumb/v7-m/nofp\libg_nano.a(lib_a-stdio.o)
 .text.__seofread
                0x00000000        0x4 c:/program files (x86)/on semiconductor/ide_v3.4.0.48/arm_tools/bin/../lib/gcc/arm-none-eabi/10.2.1/../../../../arm-none-eabi/lib/thumb/v7-m/nofp\libg_nano.a(lib_a-stdio.o)
 .text          0x00000000        0x0 c:/program files (x86)/on semiconductor/ide_v3.4.0.48/arm_tools/bin/../lib/gcc/arm-none-eabi/10.2.1/../../../../arm-none-eabi/lib/thumb/v7-m/nofp\libg_nano.a(lib_a-writer.o)
 .data          0x00000000        0x0 c:/program files (x86)/on semiconductor/ide_v3.4.0.48/arm_tools/bin/../lib/gcc/arm-none-eabi/10.2.1/../../../../arm-none-eabi/lib/thumb/v7-m/nofp\libg_nano.a(lib_a-writer.o)
 .bss           0x00000000        0x0 c:/program files (x86)/on semiconductor/ide_v3.4.0.48/arm_tools/bin/../lib/gcc/arm-none-eabi/10.2.1/../../../../arm-none-eabi/lib/thumb/v7-m/nofp\libg_nano.a(lib_a-writer.o)
 .text          0x00000000        0x0 c:/program files (x86)/on semiconductor/ide_v3.4.0.48/arm_tools/bin/../lib/gcc/arm-none-eabi/10.2.1/../../../../arm-none-eabi/lib/thumb/v7-m/nofp\libg_nano.a(lib_a-closer.o)
 .data          0x00000000        0x0 c:/program files (x86)/on semiconductor/ide_v3.4.0.48/arm_tools/bin/../lib/gcc/arm-none-eabi/10.2.1/../../../../arm-none-eabi/lib/thumb/v7-m/nofp\libg_nano.a(lib_a-closer.o)
 .bss           0x00000000        0x0 c:/program files (x86)/on semiconductor/ide_v3.4.0.48/arm_tools/bin/../lib/gcc/arm-none-eabi/10.2.1/../../../../arm-none-eabi/lib/thumb/v7-m/nofp\libg_nano.a(lib_a-closer.o)
 .text          0x00000000        0x0 c:/program files (x86)/on semiconductor/ide_v3.4.0.48/arm_tools/bin/../lib/gcc/arm-none-eabi/10.2.1/../../../../arm-none-eabi/lib/thumb/v7-m/nofp\libg_nano.a(lib_a-fstatr.o)
 .data          0x00000000        0x0 c:/program files (x86)/on semiconductor/ide_v3.4.0.48/arm_tools/bin/../lib/gcc/arm-none-eabi/10.2.1/../../../../arm-none-eabi/lib/thumb/v7-m/nofp\libg_nano.a(lib_a-fstatr.o)
 .bss           0x00000000        0x0 c:/program files (x86)/on semiconductor/ide_v3.4.0.48/arm_tools/bin/../lib/gcc/arm-none-eabi/10.2.1/../../../../arm-none-eabi/lib/thumb/v7-m/nofp\libg_nano.a(lib_a-fstatr.o)
 .text          0x00000000        0x0 c:/program files (x86)/on semiconductor/ide_v3.4.0.48/arm_tools/bin/../lib/gcc/arm-none-eabi/10.2.1/../../../../arm-none-eabi/lib/thumb/v7-m/nofp\libg_nano.a(lib_a-isattyr.o)
 .data          0x00000000        0x0 c:/program files (x86)/on semiconductor/ide_v3.4.0.48/arm_tools/bin/../lib/gcc/arm-none-eabi/10.2.1/../../../../arm-none-eabi/lib/thumb/v7-m/nofp\libg_nano.a(lib_a-isattyr.o)
 .bss           0x00000000        0x0 c:/program files (x86)/on semiconductor/ide_v3.4.0.48/arm_tools/bin/../lib/gcc/arm-none-eabi/10.2.1/../../../../arm-none-eabi/lib/thumb/v7-m/nofp\libg_nano.a(lib_a-isattyr.o)
 .text          0x00000000        0x0 c:/program files (x86)/on semiconductor/ide_v3.4.0.48/arm_tools/bin/../lib/gcc/arm-none-eabi/10.2.1/../../../../arm-none-eabi/lib/thumb/v7-m/nofp\libg_nano.a(lib_a-lseekr.o)
 .data          0x00000000        0x0 c:/program files (x86)/on semiconductor/ide_v3.4.0.48/arm_tools/bin/../lib/gcc/arm-none-eabi/10.2.1/../../../../arm-none-eabi/lib/thumb/v7-m/nofp\libg_nano.a(lib_a-lseekr.o)
 .bss           0x00000000        0x0 c:/program files (x86)/on semiconductor/ide_v3.4.0.48/arm_tools/bin/../lib/gcc/arm-none-eabi/10.2.1/../../../../arm-none-eabi/lib/thumb/v7-m/nofp\libg_nano.a(lib_a-lseekr.o)
 .text          0x00000000        0x0 c:/program files (x86)/on semiconductor/ide_v3.4.0.48/arm_tools/bin/../lib/gcc/arm-none-eabi/10.2.1/../../../../arm-none-eabi/lib/thumb/v7-m/nofp\libg_nano.a(lib_a-nano-msizer.o)
 .data          0x00000000        0x0 c:/program files (x86)/on semiconductor/ide_v3.4.0.48/arm_tools/bin/../lib/gcc/arm-none-eabi/10.2.1/../../../../arm-none-eabi/lib/thumb/v7-m/nofp\libg_nano.a(lib_a-nano-msizer.o)
 .bss           0x00000000        0x0 c:/program files (x86)/on semiconductor/ide_v3.4.0.48/arm_tools/bin/../lib/gcc/arm-none-eabi/10.2.1/../../../../arm-none-eabi/lib/thumb/v7-m/nofp\libg_nano.a(lib_a-nano-msizer.o)
 .text._malloc_usable_size_r
                0x00000000       0x10 c:/program files (x86)/on semiconductor/ide_v3.4.0.48/arm_tools/bin/../lib/gcc/arm-none-eabi/10.2.1/../../../../arm-none-eabi/lib/thumb/v7-m/nofp\libg_nano.a(lib_a-nano-msizer.o)
 .debug_frame   0x00000000       0x20 c:/program files (x86)/on semiconductor/ide_v3.4.0.48/arm_tools/bin/../lib/gcc/arm-none-eabi/10.2.1/../../../../arm-none-eabi/lib/thumb/v7-m/nofp\libg_nano.a(lib_a-nano-msizer.o)
 .ARM.attributes
                0x00000000       0x2d c:/program files (x86)/on semiconductor/ide_v3.4.0.48/arm_tools/bin/../lib/gcc/arm-none-eabi/10.2.1/../../../../arm-none-eabi/lib/thumb/v7-m/nofp\libg_nano.a(lib_a-nano-msizer.o)
 .text          0x00000000        0x0 c:/program files (x86)/on semiconductor/ide_v3.4.0.48/arm_tools/bin/../lib/gcc/arm-none-eabi/10.2.1/../../../../arm-none-eabi/lib/thumb/v7-m/nofp\libg_nano.a(lib_a-readr.o)
 .data          0x00000000        0x0 c:/program files (x86)/on semiconductor/ide_v3.4.0.48/arm_tools/bin/../lib/gcc/arm-none-eabi/10.2.1/../../../../arm-none-eabi/lib/thumb/v7-m/nofp\libg_nano.a(lib_a-readr.o)
 .bss           0x00000000        0x0 c:/program files (x86)/on semiconductor/ide_v3.4.0.48/arm_tools/bin/../lib/gcc/arm-none-eabi/10.2.1/../../../../arm-none-eabi/lib/thumb/v7-m/nofp\libg_nano.a(lib_a-readr.o)
 .text          0x00000000        0x0 c:/program files (x86)/on semiconductor/ide_v3.4.0.48/arm_tools/bin/../lib/gcc/arm-none-eabi/10.2.1/../../../../arm-none-eabi/lib/thumb/v7-m/nofp\libnosys.a(close.o)
 .data          0x00000000        0x0 c:/program files (x86)/on semiconductor/ide_v3.4.0.48/arm_tools/bin/../lib/gcc/arm-none-eabi/10.2.1/../../../../arm-none-eabi/lib/thumb/v7-m/nofp\libnosys.a(close.o)
 .bss           0x00000000        0x0 c:/program files (x86)/on semiconductor/ide_v3.4.0.48/arm_tools/bin/../lib/gcc/arm-none-eabi/10.2.1/../../../../arm-none-eabi/lib/thumb/v7-m/nofp\libnosys.a(close.o)
 .text          0x00000000        0x0 c:/program files (x86)/on semiconductor/ide_v3.4.0.48/arm_tools/bin/../lib/gcc/arm-none-eabi/10.2.1/../../../../arm-none-eabi/lib/thumb/v7-m/nofp\libnosys.a(fstat.o)
 .data          0x00000000        0x0 c:/program files (x86)/on semiconductor/ide_v3.4.0.48/arm_tools/bin/../lib/gcc/arm-none-eabi/10.2.1/../../../../arm-none-eabi/lib/thumb/v7-m/nofp\libnosys.a(fstat.o)
 .bss           0x00000000        0x0 c:/program files (x86)/on semiconductor/ide_v3.4.0.48/arm_tools/bin/../lib/gcc/arm-none-eabi/10.2.1/../../../../arm-none-eabi/lib/thumb/v7-m/nofp\libnosys.a(fstat.o)
 .text          0x00000000        0x0 c:/program files (x86)/on semiconductor/ide_v3.4.0.48/arm_tools/bin/../lib/gcc/arm-none-eabi/10.2.1/../../../../arm-none-eabi/lib/thumb/v7-m/nofp\libnosys.a(getpid.o)
 .data          0x00000000        0x0 c:/program files (x86)/on semiconductor/ide_v3.4.0.48/arm_tools/bin/../lib/gcc/arm-none-eabi/10.2.1/../../../../arm-none-eabi/lib/thumb/v7-m/nofp\libnosys.a(getpid.o)
 .bss           0x00000000        0x0 c:/program files (x86)/on semiconductor/ide_v3.4.0.48/arm_tools/bin/../lib/gcc/arm-none-eabi/10.2.1/../../../../arm-none-eabi/lib/thumb/v7-m/nofp\libnosys.a(getpid.o)
 .text          0x00000000        0x0 c:/program files (x86)/on semiconductor/ide_v3.4.0.48/arm_tools/bin/../lib/gcc/arm-none-eabi/10.2.1/../../../../arm-none-eabi/lib/thumb/v7-m/nofp\libnosys.a(isatty.o)
 .data          0x00000000        0x0 c:/program files (x86)/on semiconductor/ide_v3.4.0.48/arm_tools/bin/../lib/gcc/arm-none-eabi/10.2.1/../../../../arm-none-eabi/lib/thumb/v7-m/nofp\libnosys.a(isatty.o)
 .bss           0x00000000        0x0 c:/program files (x86)/on semiconductor/ide_v3.4.0.48/arm_tools/bin/../lib/gcc/arm-none-eabi/10.2.1/../../../../arm-none-eabi/lib/thumb/v7-m/nofp\libnosys.a(isatty.o)
 .text          0x00000000        0x0 c:/program files (x86)/on semiconductor/ide_v3.4.0.48/arm_tools/bin/../lib/gcc/arm-none-eabi/10.2.1/../../../../arm-none-eabi/lib/thumb/v7-m/nofp\libnosys.a(kill.o)
 .data          0x00000000        0x0 c:/program files (x86)/on semiconductor/ide_v3.4.0.48/arm_tools/bin/../lib/gcc/arm-none-eabi/10.2.1/../../../../arm-none-eabi/lib/thumb/v7-m/nofp\libnosys.a(kill.o)
 .bss           0x00000000        0x0 c:/program files (x86)/on semiconductor/ide_v3.4.0.48/arm_tools/bin/../lib/gcc/arm-none-eabi/10.2.1/../../../../arm-none-eabi/lib/thumb/v7-m/nofp\libnosys.a(kill.o)
 .text          0x00000000        0x0 c:/program files (x86)/on semiconductor/ide_v3.4.0.48/arm_tools/bin/../lib/gcc/arm-none-eabi/10.2.1/../../../../arm-none-eabi/lib/thumb/v7-m/nofp\libnosys.a(lseek.o)
 .data          0x00000000        0x0 c:/program files (x86)/on semiconductor/ide_v3.4.0.48/arm_tools/bin/../lib/gcc/arm-none-eabi/10.2.1/../../../../arm-none-eabi/lib/thumb/v7-m/nofp\libnosys.a(lseek.o)
 .bss           0x00000000        0x0 c:/program files (x86)/on semiconductor/ide_v3.4.0.48/arm_tools/bin/../lib/gcc/arm-none-eabi/10.2.1/../../../../arm-none-eabi/lib/thumb/v7-m/nofp\libnosys.a(lseek.o)
 .text          0x00000000        0x0 c:/program files (x86)/on semiconductor/ide_v3.4.0.48/arm_tools/bin/../lib/gcc/arm-none-eabi/10.2.1/../../../../arm-none-eabi/lib/thumb/v7-m/nofp\libnosys.a(read.o)
 .data          0x00000000        0x0 c:/program files (x86)/on semiconductor/ide_v3.4.0.48/arm_tools/bin/../lib/gcc/arm-none-eabi/10.2.1/../../../../arm-none-eabi/lib/thumb/v7-m/nofp\libnosys.a(read.o)
 .bss           0x00000000        0x0 c:/program files (x86)/on semiconductor/ide_v3.4.0.48/arm_tools/bin/../lib/gcc/arm-none-eabi/10.2.1/../../../../arm-none-eabi/lib/thumb/v7-m/nofp\libnosys.a(read.o)
 .text          0x00000000        0x0 c:/program files (x86)/on semiconductor/ide_v3.4.0.48/arm_tools/bin/../lib/gcc/arm-none-eabi/10.2.1/../../../../arm-none-eabi/lib/thumb/v7-m/nofp\libnosys.a(write.o)
 .data          0x00000000        0x0 c:/program files (x86)/on semiconductor/ide_v3.4.0.48/arm_tools/bin/../lib/gcc/arm-none-eabi/10.2.1/../../../../arm-none-eabi/lib/thumb/v7-m/nofp\libnosys.a(write.o)
 .bss           0x00000000        0x0 c:/program files (x86)/on semiconductor/ide_v3.4.0.48/arm_tools/bin/../lib/gcc/arm-none-eabi/10.2.1/../../../../arm-none-eabi/lib/thumb/v7-m/nofp\libnosys.a(write.o)
 .text          0x00000000        0x0 c:/program files (x86)/on semiconductor/ide_v3.4.0.48/arm_tools/bin/../lib/gcc/arm-none-eabi/10.2.1/../../../../arm-none-eabi/lib/thumb/v7-m/nofp\libnosys.a(_exit.o)
 .data          0x00000000        0x0 c:/program files (x86)/on semiconductor/ide_v3.4.0.48/arm_tools/bin/../lib/gcc/arm-none-eabi/10.2.1/../../../../arm-none-eabi/lib/thumb/v7-m/nofp\libnosys.a(_exit.o)
 .bss           0x00000000        0x0 c:/program files (x86)/on semiconductor/ide_v3.4.0.48/arm_tools/bin/../lib/gcc/arm-none-eabi/10.2.1/../../../../arm-none-eabi/lib/thumb/v7-m/nofp\libnosys.a(_exit.o)

Memory Configuration

Name             Origin             Length             Attributes
ROM              0x00000000         0x00001000         r
FLASH            0x00100000         0x0005f000         xrw
PRAM             0x00200000         0x00008000         xrw
DRAM             0x20000000         0x00008000         xrw
DRAM_DSP         0x20008000         0x0000a000         xrw
DRAM_BB          0x20012000         0x00004000         xrw
*default*        0x00000000         0xffffffff

Linker script and memory map

START GROUP
LOAD ./code/app_bass.o
LOAD ./code/app_init.o
LOAD ./code/app_process.o
LOAD ./code/ble_basc.o
LOAD ./code/ble_custom.o
LOAD ./code/ble_std.o
LOAD ./code/uart.o
LOAD ./code/ui_handler.o
LOAD ./RTE/Utility/SEGGER_RTT.o
LOAD ./RTE/Utility/SEGGER_RTT_ASM_ARMv7M.o
LOAD ./RTE/Utility/SEGGER_RTT_printf.o
LOAD ./RTE/Utility/printf.o
LOAD ./RTE/Device/RSL10/rsl10_protocol.o
LOAD ./RTE/Device/RSL10/rsl10_romvect.o
LOAD ./RTE/Device/RSL10/rsl10_sys_asrc.o
LOAD ./RTE/Device/RSL10/rsl10_sys_audio.o
LOAD ./RTE/Device/RSL10/rsl10_sys_clocks.o
LOAD ./RTE/Device/RSL10/rsl10_sys_crc.o
LOAD ./RTE/Device/RSL10/rsl10_sys_dma.o
LOAD ./RTE/Device/RSL10/rsl10_sys_flash.o
LOAD ./RTE/Device/RSL10/rsl10_sys_power.o
LOAD ./RTE/Device/RSL10/rsl10_sys_power_modes.o
LOAD ./RTE/Device/RSL10/rsl10_sys_rffe.o
LOAD ./RTE/Device/RSL10/rsl10_sys_timers.o
LOAD ./RTE/Device/RSL10/rsl10_sys_uart.o
LOAD ./RTE/Device/RSL10/rsl10_sys_version.o
LOAD ./RTE/Device/RSL10/sbrk.o
LOAD ./RTE/Device/RSL10/start.o
LOAD ./RTE/Device/RSL10/startup_rsl10.o
LOAD ./RTE/Device/RSL10/system_rsl10.o
LOAD ./RTE/Device/stubprf.o
LOAD ./app.o
LOAD C:/Users/xeeen/ON_Semiconductor/PACK/ONSemiconductor/RSL10/3.7.606/lib/ble_core/Release/libblelib.a
LOAD C:/Users/xeeen/ON_Semiconductor/PACK/ONSemiconductor/RSL10/3.7.606/lib/ble_core/Release/libkelib.a
LOAD C:/Users/xeeen/ON_Semiconductor/PACK/ONSemiconductor/RSL10/3.7.606/lib/ble_profiles/Release/libbasc.a
LOAD c:/program files (x86)/on semiconductor/ide_v3.4.0.48/arm_tools/bin/../lib/gcc/arm-none-eabi/10.2.1/../../../../arm-none-eabi/lib/thumb/v7-m/nofp\libm.a
END GROUP
START GROUP
LOAD c:/program files (x86)/on semiconductor/ide_v3.4.0.48/arm_tools/bin/../lib/gcc/arm-none-eabi/10.2.1/thumb/v7-m/nofp\libgcc.a
LOAD c:/program files (x86)/on semiconductor/ide_v3.4.0.48/arm_tools/bin/../lib/gcc/arm-none-eabi/10.2.1/../../../../arm-none-eabi/lib/thumb/v7-m/nofp\libg_nano.a
LOAD c:/program files (x86)/on semiconductor/ide_v3.4.0.48/arm_tools/bin/../lib/gcc/arm-none-eabi/10.2.1/../../../../arm-none-eabi/lib/thumb/v7-m/nofp\libc_nano.a
END GROUP
START GROUP
LOAD c:/program files (x86)/on semiconductor/ide_v3.4.0.48/arm_tools/bin/../lib/gcc/arm-none-eabi/10.2.1/thumb/v7-m/nofp\libgcc.a
LOAD c:/program files (x86)/on semiconductor/ide_v3.4.0.48/arm_tools/bin/../lib/gcc/arm-none-eabi/10.2.1/../../../../arm-none-eabi/lib/thumb/v7-m/nofp\libc_nano.a
LOAD c:/program files (x86)/on semiconductor/ide_v3.4.0.48/arm_tools/bin/../lib/gcc/arm-none-eabi/10.2.1/../../../../arm-none-eabi/lib/thumb/v7-m/nofp\libnosys.a
END GROUP
START GROUP
LOAD c:/program files (x86)/on semiconductor/ide_v3.4.0.48/arm_tools/bin/../lib/gcc/arm-none-eabi/10.2.1/thumb/v7-m/nofp\libgcc.a
LOAD c:/program files (x86)/on semiconductor/ide_v3.4.0.48/arm_tools/bin/../lib/gcc/arm-none-eabi/10.2.1/../../../../arm-none-eabi/lib/thumb/v7-m/nofp\libc_nano.a
LOAD c:/program files (x86)/on semiconductor/ide_v3.4.0.48/arm_tools/bin/../lib/gcc/arm-none-eabi/10.2.1/../../../../arm-none-eabi/lib/thumb/v7-m/nofp\libnosys.a
END GROUP
                0x20008000                __stack = (ORIGIN (DRAM) + LENGTH (DRAM))
                [!provide]                PROVIDE (__stack = __stack)
                0x00000400                __Main_Stack_Size = 0x400
                [!provide]                PROVIDE (_Main_Stack_Size = __Main_Stack_Size)
                0x20007c00                __Main_Stack_Limit = (__stack - __Main_Stack_Size)
                [!provide]                PROVIDE (_Main_Stack_Limit = __Main_Stack_Limit)
                0x2000564c                PROVIDE (__Heap_Begin__ = __noinit_end__)
                0x20007c00                PROVIDE (__Heap_Limit__ = (__stack - __Main_Stack_Size))
                0xe000ed08                __VTOR = 0xe000ed08

.text           0x00100000    0x2639c
                0x00100000                . = ALIGN (0x4)
 *(.interrupt_vector)
 .interrupt_vector
                0x00100000      0x158 ./RTE/Device/RSL10/startup_rsl10.o
                0x00100000                ISR_Vector_Table
 *(.reset)
 .reset         0x00100158       0x18 ./RTE/Device/RSL10/startup_rsl10.o
                0x00100158                Reset_Handler
                0x00100170                . = ALIGN (0x4)
                0x00100170                PROVIDE (__preinit_array_start__ = .)
 *(.preinit_array_sysinit .preinit_array_sysinit.*)
 *(.preinit_array_platform .preinit_array_platform.*)
 *(.preinit_array .preinit_array.*)
                0x00100170                PROVIDE (__preinit_array_end__ = .)
                0x00100170                . = ALIGN (0x4)
                0x00100170                PROVIDE (__init_array_start__ = .)
 *(SORT_BY_NAME(.init_array.*))
 *(.init_array)
                0x00100170                PROVIDE (__init_array_end__ = .)
                0x00100170                . = ALIGN (0x4)
 *(.text .text.*)
 .text.__NVIC_EnableIRQ
                0x00100170       0x38 ./code/app_bass.o
 .text.Sys_DIO_Config
                0x001001a8       0x24 ./code/app_bass.o
 .text.Sys_ADC_Set_Config
                0x001001cc       0x20 ./code/app_bass.o
 .text.Sys_ADC_Set_BATMONConfig
                0x001001ec       0x24 ./code/app_bass.o
 .text.Sys_ADC_Set_BATMONIntConfig
                0x00100210       0x20 ./code/app_bass.o
 .text.Sys_ADC_Clear_BATMONStatus
                0x00100230       0x18 ./code/app_bass.o
 .text.Sys_ADC_Get_BATMONStatus
                0x00100248       0x14 ./code/app_bass.o
 .text.Sys_ADC_InputSelectConfig
                0x0010025c       0x24 ./code/app_bass.o
 .text.APP_BASS_SetBatMonAlarm
                0x00100280       0x4c ./code/app_bass.o
                0x00100280                APP_BASS_SetBatMonAlarm
 .text.ADC_BATMON_IRQHandler
                0x001002cc       0x34 ./code/app_bass.o
                0x001002cc                ADC_BATMON_IRQHandler
 .text.Sys_DIO_Config
                0x00100300       0x24 ./code/app_init.o
 .text.Sys_Clocks_SystemClkConfig
                0x00100324       0x34 ./code/app_init.o
 .text.Sys_NVIC_DisableAllInt
                0x00100358       0x30 ./code/app_init.o
 .text.Sys_NVIC_ClearAllPendingInt
                0x00100388       0x30 ./code/app_init.o
 .text.App_Initialize
                0x001003b8      0x168 ./code/app_init.o
                0x001003b8                App_Initialize
 .text.App_Env_Initialize
                0x00100520       0x2c ./code/app_init.o
                0x00100520                App_Env_Initialize
 .text.Sys_GPIO_Set_High
                0x0010054c       0x3c ./code/app_process.o
 .text.Sys_GPIO_Toggle
                0x00100588       0x3c ./code/app_process.o
 .text.APP_Timer
                0x001005c4       0x4c ./code/app_process.o
                0x001005c4                APP_Timer
 .text.LED_Timer
                0x00100610       0x48 ./code/app_process.o
                0x00100610                LED_Timer
 .text.Msg_Handler
                0x00100658       0x24 ./code/app_process.o
                0x00100658                Msg_Handler
 .text.Sys_GPIO_Toggle
                0x0010067c       0x3c ./code/ble_basc.o
 .text.Basc_Env_Initialize
                0x001006b8       0x24 ./code/ble_basc.o
                0x001006b8                Basc_Env_Initialize
 .text.Batt_ServiceAdd_Client
                0x001006dc       0x42 ./code/ble_basc.o
                0x001006dc                Batt_ServiceAdd_Client
 *fill*         0x0010071e        0x2 
 .text.Batt_ServiceEnable_Client
                0x00100720       0x64 ./code/ble_basc.o
                0x00100720                Batt_ServiceEnable_Client
 .text.Batt_ReadInfoRsp
                0x00100784       0x88 ./code/ble_basc.o
                0x00100784                Batt_ReadInfoRsp
 .text.Batt_LevelInd
                0x0010080c       0x38 ./code/ble_basc.o
                0x0010080c                Batt_LevelInd
 .text.Batt_LevelNtfCfgRsp
                0x00100844       0x48 ./code/ble_basc.o
                0x00100844                Batt_LevelNtfCfgRsp
 .text.Batt_EnableRsp_Client
                0x0010088c       0x7c ./code/ble_basc.o
                0x0010088c                Batt_EnableRsp_Client
 .text.Batt_SendLevelNtfCfgReq
                0x00100908       0x64 ./code/ble_basc.o
                0x00100908                Batt_SendLevelNtfCfgReq
 .text.CustomService_Env_Initialize
                0x0010096c       0x28 ./code/ble_custom.o
                0x0010096c                CustomService_Env_Initialize
 .text.CustomService_ServiceEnable
                0x00100994       0x78 ./code/ble_custom.o
                0x00100994                CustomService_ServiceEnable
 .text.GATTC_DiscCharInd
                0x00100a0c      0x228 ./code/ble_custom.o
                0x00100a0c                GATTC_DiscCharInd
 .text.GATTC_CmpEvt
                0x00100c34      0x10c ./code/ble_custom.o
                0x00100c34                GATTC_CmpEvt
 .text.GATTC_DiscSvcInd
                0x00100d40      0x128 ./code/ble_custom.o
                0x00100d40                GATTC_DiscSvcInd
 .text.GATTC_ReadInd
                0x00100e68       0xd0 ./code/ble_custom.o
                0x00100e68                GATTC_ReadInd
 .text.GATTC_EvtInd
                0x00100f38      0x1d4 ./code/ble_custom.o
                0x00100f38                GATTC_EvtInd
 .text.CustomSrvice_SendWrite
                0x0010110c       0xc8 ./code/ble_custom.o
                0x0010110c                CustomSrvice_SendWrite
 .text.J10_SendWriteCmd
                0x001011d4      0x118 ./code/ble_custom.o
                0x001011d4                J10_SendWriteCmd
 .text.__NVIC_EnableIRQ
                0x001012ec       0x38 ./code/ble_std.o
 .text.Device_Param_Prepare
                0x00101324       0x48 ./code/ble_std.o
                0x00101324                Device_Param_Prepare
 .text.BLE_Initialize
                0x0010136c      0x1a8 ./code/ble_std.o
                0x0010136c                BLE_Initialize
 .text.Service_Add
                0x00101514       0x40 ./code/ble_std.o
                0x00101514                Service_Add
 .text.GAPM_ProfileAddedInd
                0x00101554       0x50 ./code/ble_std.o
                0x00101554                GAPM_ProfileAddedInd
 .text.GAPM_CmpEvt
                0x001015a4       0xbc ./code/ble_std.o
                0x001015a4                GAPM_CmpEvt
 .text.GAPC_ConnectionReqInd
                0x00101660      0x1b4 ./code/ble_std.o
                0x00101660                GAPC_ConnectionReqInd
 .text.GAPC_CmpEvt
                0x00101814       0x24 ./code/ble_std.o
                0x00101814                GAPC_CmpEvt
 .text.GAPC_DisconnectInd
                0x00101838       0x9c ./code/ble_std.o
                0x00101838                GAPC_DisconnectInd
 .text.GAPC_ParamUpdatedInd
                0x001018d4       0x8c ./code/ble_std.o
                0x001018d4                GAPC_ParamUpdatedInd
 .text.GAPC_ParamUpdateReqInd
                0x00101960       0x94 ./code/ble_std.o
                0x00101960                GAPC_ParamUpdateReqInd
 .text.Connection_SendStartCmd
                0x001019f4       0x6c ./code/ble_std.o
                0x001019f4                Connection_SendStartCmd
 .text.BLE_SetServiceState
                0x00101a60       0x78 ./code/ble_std.o
                0x00101a60                BLE_SetServiceState
 .text.Service_Enable
                0x00101ad8       0x9c ./code/ble_std.o
                0x00101ad8                Service_Enable
 .text.Find_Ble_Env
                0x00101b74       0x38 ./code/ble_std.o
                0x00101b74                Find_Ble_Env
 .text.__NVIC_EnableIRQ
                0x00101bac       0x38 ./code/uart.o
 .text.Sys_DIO_Config
                0x00101be4       0x24 ./code/uart.o
 .text.Sys_DMA_ClearChannelStatus
                0x00101c08       0x24 ./code/uart.o
 .text.Sys_DMA_ChannelDisable
                0x00101c2c       0x22 ./code/uart.o
 *fill*         0x00101c4e        0x2 
 .text.Sys_UART_DIOConfig
                0x00101c50       0x3c ./code/uart.o
 .text.DMA1_IRQHandler
                0x00101c8c        0xc ./code/uart.o
                0x00101c8c                DMA1_IRQHandler
 .text.UART_Initialize
                0x00101c98       0x80 ./code/uart.o
                0x00101c98                UART_Initialize
 .text.UART_FillTXBuffer
                0x00101d18      0x124 ./code/uart.o
                0x00101d18                UART_FillTXBuffer
 .text.createNode
                0x00101e3c       0x48 ./code/uart.o
                0x00101e3c                createNode
 .text.removeNode
                0x00101e84       0x22 ./code/uart.o
                0x00101e84                removeNode
 *fill*         0x00101ea6        0x2 
 .text.UART_Timer
                0x00101ea8       0x38 ./code/uart.o
                0x00101ea8                UART_Timer
 .text.Sys_Delay_ProgramROM
                0x00101ee0       0x22 ./code/ui_handler.o
 *fill*         0x00101f02        0x2 
 .text.Sys_Watchdog_Refresh
                0x00101f04       0x1c ./code/ui_handler.o
 .text.Dec_Volume
                0x00101f20       0x7c ./code/ui_handler.o
                0x00101f20                Dec_Volume
 .text.Inc_Volume
                0x00101f9c       0x74 ./code/ui_handler.o
                0x00101f9c                Inc_Volume
 .text.Change_Mode
                0x00102010       0x6c ./code/ui_handler.o
                0x00102010                Change_Mode
 *fill*         0x0010207c        0x4 
 .text.ADC_BUTTON_Handler
                0x00102080       0xe8 ./code/ui_handler.o
                0x00102080                ADC_BUTTON_Handler
 .text._DoInit  0x00102168       0xb0 ./RTE/Utility/SEGGER_RTT.o
 .text._WriteBlocking
                0x00102218       0xb6 ./RTE/Utility/SEGGER_RTT.o
 .text._WriteNoCheck
                0x001022ce       0x88 ./RTE/Utility/SEGGER_RTT.o
 .text._GetAvailWriteSpace
                0x00102356       0x44 ./RTE/Utility/SEGGER_RTT.o
 *fill*         0x0010239a        0x2 
 .text.SEGGER_RTT_WriteNoLock
                0x0010239c       0xa0 ./RTE/Utility/SEGGER_RTT.o
                0x0010239c                SEGGER_RTT_WriteNoLock
 .text.SEGGER_RTT_Write
                0x0010243c       0x4c ./RTE/Utility/SEGGER_RTT.o
                0x0010243c                SEGGER_RTT_Write
 .text.SEGGER_RTT_Init
                0x00102488        0xc ./RTE/Utility/SEGGER_RTT.o
                0x00102488                SEGGER_RTT_Init
 .text._StoreChar
                0x00102494       0x7c ./RTE/Utility/SEGGER_RTT_printf.o
 .text._PrintUnsigned
                0x00102510      0x15c ./RTE/Utility/SEGGER_RTT_printf.o
 .text._PrintInt
                0x0010266c      0x14e ./RTE/Utility/SEGGER_RTT_printf.o
 *fill*         0x001027ba        0x2 
 .text.SEGGER_RTT_vprintf
                0x001027bc      0x3a8 ./RTE/Utility/SEGGER_RTT_printf.o
                0x001027bc                SEGGER_RTT_vprintf
 .text.SEGGER_RTT_printf
                0x00102b64       0x30 ./RTE/Utility/SEGGER_RTT_printf.o
                0x00102b64                SEGGER_RTT_printf
 .text.printf_init
                0x00102b94        0xc ./RTE/Utility/printf.o
                0x00102b94                printf_init
 .text.Device_Param_Read
                0x00102ba0      0x320 ./RTE/Device/RSL10/rsl10_protocol.o
                0x00102ba0                Device_Param_Read
 .text.BLE_DeviceParam_Set_MaxRxOctet
                0x00102ec0       0x60 ./RTE/Device/RSL10/rsl10_protocol.o
                0x00102ec0                BLE_DeviceParam_Set_MaxRxOctet
 .text.BLE_DeviceParam_Set_AdvDelay
                0x00102f20       0x2c ./RTE/Device/RSL10/rsl10_protocol.o
                0x00102f20                BLE_DeviceParam_Set_AdvDelay
 .text.BLE_DeviceParam_Set_SlaveLatencyDelay
                0x00102f4c       0x20 ./RTE/Device/RSL10/rsl10_protocol.o
                0x00102f4c                BLE_DeviceParam_Set_SlaveLatencyDelay
 .text.Sys_DMA_ChannelConfig
                0x00102f6c       0x60 ./RTE/Device/RSL10/rsl10_sys_dma.o
                0x00102f6c                Sys_DMA_ChannelConfig
 .text.Sys_GetTrim
                0x00102fcc       0x24 ./RTE/Device/RSL10/rsl10_sys_power.o
 .text.Sys_Power_VDDRFCalibratedConfig
                0x00102ff0       0x60 ./RTE/Device/RSL10/rsl10_sys_power.o
                0x00102ff0                Sys_Power_VDDRFCalibratedConfig
 .text.Sys_Delay_ProgramROM
                0x00103050       0x22 ./RTE/Device/RSL10/rsl10_sys_rffe.o
 .text.Sys_ReadNVR4
                0x00103072       0x22 ./RTE/Device/RSL10/rsl10_sys_rffe.o
 .text.Sys_ADC_Set_Config
                0x00103094       0x20 ./RTE/Device/RSL10/rsl10_sys_rffe.o
 .text.Sys_ADC_InputSelectConfig
                0x001030b4       0x24 ./RTE/Device/RSL10/rsl10_sys_rffe.o
 .text.Sys_GetTrim
                0x001030d8       0x24 ./RTE/Device/RSL10/rsl10_sys_rffe.o
 .text.Sys_RFFE_SetTXPower
                0x001030fc      0x470 ./RTE/Device/RSL10/rsl10_sys_rffe.o
                0x001030fc                Sys_RFFE_SetTXPower
 .text.Sys_RFFE_Interpolate
                0x0010356c      0x170 ./RTE/Device/RSL10/rsl10_sys_rffe.o
                0x0010356c                Sys_RFFE_Interpolate
 .text.Sys_UART_Enable
                0x001036dc       0xa0 ./RTE/Device/RSL10/rsl10_sys_uart.o
                0x001036dc                Sys_UART_Enable
 .text._sbrk    0x0010377c       0x9c ./RTE/Device/RSL10/sbrk.o
                0x0010377c                _sbrk
 .text.__NVIC_EnableIRQ
                0x00103818       0x38 ./RTE/Device/RSL10/start.o
 .text.__NVIC_DisableIRQ
                0x00103850       0x48 ./RTE/Device/RSL10/start.o
 .text.__NVIC_ClearPendingIRQ
                0x00103898       0x3c ./RTE/Device/RSL10/start.o
 .text.Sys_NVIC_DisableAllInt
                0x001038d4       0x30 ./RTE/Device/RSL10/start.o
 .text.Sys_NVIC_ClearAllPendingInt
                0x00103904       0x30 ./RTE/Device/RSL10/start.o
 .text.Sys_DMA_ClearChannelStatus
                0x00103934       0x24 ./RTE/Device/RSL10/start.o
 .text._start   0x00103958      0x210 ./RTE/Device/RSL10/start.o
                0x00103958                _start
 .text          0x00103b68       0x14 ./RTE/Device/RSL10/startup_rsl10.o
                0x00103b68                NMI_Handler
                0x00103b6a                HardFault_Handler
                0x00103b6c                MemManage_Handler
                0x00103b6e                BusFault_Handler
                0x00103b70                UsageFault_Handler
                0x00103b72                SVC_Handler
                0x00103b74                DebugMon_Handler
                0x00103b76                PendSV_Handler
                0x00103b78                SysTick_Handler
                0x00103b7a                UART_ERROR_IRQHandler
                0x00103b7a                DSP7_IRQHandler
                0x00103b7a                BLE_COEX_RX_TX_IRQHandler
                0x00103b7a                DMA2_IRQHandler
                0x00103b7a                DSP2_IRQHandler
                0x00103b7a                MEMORY_ERROR_IRQHandler
                0x00103b7a                TIMER3_IRQHandler
                0x00103b7a                WATCHDOG_IRQHandler
                0x00103b7a                DIO1_IRQHandler
                0x00103b7a                DIO3_IRQHandler
                0x00103b7a                DSP3_IRQHandler
                0x00103b7a                FLASH_COPY_IRQHandler
                0x00103b7a                RF_TXFIFO_IRQHandler
                0x00103b7a                RTC_ALARM_IRQHandler
                0x00103b7a                SPI0_ERROR_IRQHandler
                0x00103b7a                BLE_COEX_IN_PROCESS_IRQHandler
                0x00103b7a                DIO0_IRQHandler
                0x00103b7a                DMA5_IRQHandler
                0x00103b7a                ASRC_IN_IRQHandler
                0x00103b7a                SPI1_ERROR_IRQHandler
                0x00103b7a                DMIC_OD_ERROR_IRQHandler
                0x00103b7a                TIMER1_IRQHandler
                0x00103b7a                PCM_TX_IRQHandler
                0x00103b7a                DSP0_IRQHandler
                0x00103b7a                SPI0_TX_IRQHandler
                0x00103b7a                UART_TX_IRQHandler
                0x00103b7a                Default_Handler
                0x00103b7a                DMIC_OUT_OD_IN_IRQHandler
                0x00103b7a                DMA7_IRQHandler
                0x00103b7a                PCM_RX_IRQHandler
                0x00103b7a                RF_TX_IRQHandler
                0x00103b7a                SPI0_RX_IRQHandler
                0x00103b7a                ASRC_ERROR_IRQHandler
                0x00103b7a                RF_RXSTOP_IRQHandler
                0x00103b7a                DSP1_IRQHandler
                0x00103b7a                AUDIOSINK_PHASE_IRQHandler
                0x00103b7a                WAKEUP_IRQHandler
                0x00103b7a                RF_SYNC_IRQHandler
                0x00103b7a                SPI1_RX_IRQHandler
                0x00103b7a                CLKDET_IRQHandler
                0x00103b7a                DSP6_IRQHandler
                0x00103b7a                I2C_IRQHandler
                0x00103b7a                TIMER2_IRQHandler
                0x00103b7a                AUDIOSINK_PERIOD_IRQHandler
                0x00103b7a                TIMER0_IRQHandler
                0x00103b7a                DMA3_IRQHandler
                0x00103b7a                RTC_CLOCK_IRQHandler
                0x00103b7a                DIO2_IRQHandler
                0x00103b7a                DMA0_IRQHandler
                0x00103b7a                ASRC_OUT_IRQHandler
                0x00103b7a                PCM_ERROR_IRQHandler
                0x00103b7a                DSP5_IRQHandler
                0x00103b7a                DMA4_IRQHandler
                0x00103b7a                UART_RX_IRQHandler
                0x00103b7a                FLASH_ECC_IRQHandler
                0x00103b7a                SPI1_TX_IRQHandler
                0x00103b7a                RF_IRQ_RECEIVED_IRQHandler
                0x00103b7a                DSP4_IRQHandler
                0x00103b7a                DMA6_IRQHandler
                0x00103b7a                RF_RXFIFO_IRQHandler
 .text.Sys_ReadNVR4
                0x00103b7c       0x22 ./RTE/Device/RSL10/system_rsl10.o
 .text.System_GetTargetForTrim
                0x00103b9e       0x80 ./RTE/Device/RSL10/system_rsl10.o
                0x00103b9e                System_GetTargetForTrim
 *fill*         0x00103c1e        0x2 
 .text.SystemInit
                0x00103c20       0x34 ./RTE/Device/RSL10/system_rsl10.o
                0x00103c20                SystemInit
 .text.SystemCoreClockUpdate
                0x00103c54      0x258 ./RTE/Device/RSL10/system_rsl10.o
                0x00103c54                SystemCoreClockUpdate
 .text.htpt_prf_itf_get
                0x00103eac        0xe ./RTE/Device/stubprf.o
                0x00103eac                htpt_prf_itf_get
 .text.htpc_prf_itf_get
                0x00103eba        0xe ./RTE/Device/stubprf.o
                0x00103eba                htpc_prf_itf_get
 .text.diss_prf_itf_get
                0x00103ec8        0xe ./RTE/Device/stubprf.o
                0x00103ec8                diss_prf_itf_get
 .text.disc_prf_itf_get
                0x00103ed6        0xe ./RTE/Device/stubprf.o
                0x00103ed6                disc_prf_itf_get
 .text.blps_prf_itf_get
                0x00103ee4        0xe ./RTE/Device/stubprf.o
                0x00103ee4                blps_prf_itf_get
 .text.blpc_prf_itf_get
                0x00103ef2        0xe ./RTE/Device/stubprf.o
                0x00103ef2                blpc_prf_itf_get
 .text.tips_prf_itf_get
                0x00103f00        0xe ./RTE/Device/stubprf.o
                0x00103f00                tips_prf_itf_get
 .text.tipc_prf_itf_get
                0x00103f0e        0xe ./RTE/Device/stubprf.o
                0x00103f0e                tipc_prf_itf_get
 .text.hrps_prf_itf_get
                0x00103f1c        0xe ./RTE/Device/stubprf.o
                0x00103f1c                hrps_prf_itf_get
 .text.hrpc_prf_itf_get
                0x00103f2a        0xe ./RTE/Device/stubprf.o
                0x00103f2a                hrpc_prf_itf_get
 .text.findl_prf_itf_get
                0x00103f38        0xe ./RTE/Device/stubprf.o
                0x00103f38                findl_prf_itf_get
 .text.findt_prf_itf_get
                0x00103f46        0xe ./RTE/Device/stubprf.o
                0x00103f46                findt_prf_itf_get
 .text.proxm_prf_itf_get
                0x00103f54        0xe ./RTE/Device/stubprf.o
                0x00103f54                proxm_prf_itf_get
 .text.proxr_prf_itf_get
                0x00103f62        0xe ./RTE/Device/stubprf.o
                0x00103f62                proxr_prf_itf_get
 .text.scppc_prf_itf_get
                0x00103f70        0xe ./RTE/Device/stubprf.o
                0x00103f70                scppc_prf_itf_get
 .text.scpps_prf_itf_get
                0x00103f7e        0xe ./RTE/Device/stubprf.o
                0x00103f7e                scpps_prf_itf_get
 .text.bass_prf_itf_get
                0x00103f8c        0xe ./RTE/Device/stubprf.o
                0x00103f8c                bass_prf_itf_get
 .text.hogpd_prf_itf_get
                0x00103f9a        0xe ./RTE/Device/stubprf.o
                0x00103f9a                hogpd_prf_itf_get
 .text.hogpbh_prf_itf_get
                0x00103fa8        0xe ./RTE/Device/stubprf.o
                0x00103fa8                hogpbh_prf_itf_get
 .text.hogprh_prf_itf_get
                0x00103fb6        0xe ./RTE/Device/stubprf.o
                0x00103fb6                hogprh_prf_itf_get
 .text.glpc_prf_itf_get
                0x00103fc4        0xe ./RTE/Device/stubprf.o
                0x00103fc4                glpc_prf_itf_get
 .text.glps_prf_itf_get
                0x00103fd2        0xe ./RTE/Device/stubprf.o
                0x00103fd2                glps_prf_itf_get
 .text.rscpc_prf_itf_get
                0x00103fe0        0xe ./RTE/Device/stubprf.o
                0x00103fe0                rscpc_prf_itf_get
 .text.rscps_prf_itf_get
                0x00103fee        0xe ./RTE/Device/stubprf.o
                0x00103fee                rscps_prf_itf_get
 .text.cscpc_prf_itf_get
                0x00103ffc        0xe ./RTE/Device/stubprf.o
                0x00103ffc                cscpc_prf_itf_get
 .text.cscps_prf_itf_get
                0x0010400a        0xe ./RTE/Device/stubprf.o
                0x0010400a                cscps_prf_itf_get
 .text.anpc_prf_itf_get
                0x00104018        0xe ./RTE/Device/stubprf.o
                0x00104018                anpc_prf_itf_get
 .text.anps_prf_itf_get
                0x00104026        0xe ./RTE/Device/stubprf.o
                0x00104026                anps_prf_itf_get
 .text.paspc_prf_itf_get
                0x00104034        0xe ./RTE/Device/stubprf.o
                0x00104034                paspc_prf_itf_get
 .text.pasps_prf_itf_get
                0x00104042        0xe ./RTE/Device/stubprf.o
                0x00104042                pasps_prf_itf_get
 .text.cppc_prf_itf_get
                0x00104050        0xe ./RTE/Device/stubprf.o
                0x00104050                cppc_prf_itf_get
 .text.cpps_prf_itf_get
                0x0010405e        0xe ./RTE/Device/stubprf.o
                0x0010405e                cpps_prf_itf_get
 .text.lanc_prf_itf_get
                0x0010406c        0xe ./RTE/Device/stubprf.o
                0x0010406c                lanc_prf_itf_get
 .text.lans_prf_itf_get
                0x0010407a        0xe ./RTE/Device/stubprf.o
                0x0010407a                lans_prf_itf_get
 .text.wpts_prf_itf_get
                0x00104088        0xe ./RTE/Device/stubprf.o
                0x00104088                wpts_prf_itf_get
 .text.wptc_prf_itf_get
                0x00104096        0xe ./RTE/Device/stubprf.o
                0x00104096                wptc_prf_itf_get
 .text.cgms_prf_itf_get
                0x001040a4        0xe ./RTE/Device/stubprf.o
                0x001040a4                cgms_prf_itf_get
 .text.cgmc_prf_itf_get
                0x001040b2        0xe ./RTE/Device/stubprf.o
                0x001040b2                cgmc_prf_itf_get
 .text.Sys_Watchdog_Refresh
                0x001040c0       0x1c ./app.o
 .text.main     0x001040dc       0x74 ./app.o
                0x001040dc                main
 .text.prf_itf_get
                0x00104150       0xe0 C:/Users/xeeen/ON_Semiconductor/PACK/ONSemiconductor/RSL10/3.7.606/lib/ble_core/Release/libblelib.a(prf-prf_utils.o)
 .text.prf_init
                0x00104230       0x64 C:/Users/xeeen/ON_Semiconductor/PACK/ONSemiconductor/RSL10/3.7.606/lib/ble_core/Release/libblelib.a(prf-prf_utils.o)
                0x00104230                prf_init
 .text.prf_add_profile
                0x00104294       0x70 C:/Users/xeeen/ON_Semiconductor/PACK/ONSemiconductor/RSL10/3.7.606/lib/ble_core/Release/libblelib.a(prf-prf_utils.o)
                0x00104294                prf_add_profile
 .text.prf_create
                0x00104304       0x2c C:/Users/xeeen/ON_Semiconductor/PACK/ONSemiconductor/RSL10/3.7.606/lib/ble_core/Release/libblelib.a(prf-prf_utils.o)
                0x00104304                prf_create
 .text.prf_cleanup
                0x00104330       0x30 C:/Users/xeeen/ON_Semiconductor/PACK/ONSemiconductor/RSL10/3.7.606/lib/ble_core/Release/libblelib.a(prf-prf_utils.o)
                0x00104330                prf_cleanup
 .text.prf_env_get
                0x00104360       0x2c C:/Users/xeeen/ON_Semiconductor/PACK/ONSemiconductor/RSL10/3.7.606/lib/ble_core/Release/libblelib.a(prf-prf_utils.o)
                0x00104360                prf_env_get
 .text.prf_src_task_get
                0x0010438c       0x10 C:/Users/xeeen/ON_Semiconductor/PACK/ONSemiconductor/RSL10/3.7.606/lib/ble_core/Release/libblelib.a(prf-prf_utils.o)
                0x0010438c                prf_src_task_get
 .text.prf_dst_task_get
                0x0010439c       0x10 C:/Users/xeeen/ON_Semiconductor/PACK/ONSemiconductor/RSL10/3.7.606/lib/ble_core/Release/libblelib.a(prf-prf_utils.o)
                0x0010439c                prf_dst_task_get
 .text.prf_unpack_char_pres_fmt
                0x001043ac       0x18 C:/Users/xeeen/ON_Semiconductor/PACK/ONSemiconductor/RSL10/3.7.606/lib/ble_core/Release/libblelib.a(prf-prf_utils.o)
                0x001043ac                prf_unpack_char_pres_fmt
 .text.prf_read_char_send
                0x001043c4       0x32 C:/Users/xeeen/ON_Semiconductor/PACK/ONSemiconductor/RSL10/3.7.606/lib/ble_core/Release/libblelib.a(prf-prf_utils.o)
                0x001043c4                prf_read_char_send
 .text.prf_register_atthdl2gatt
                0x001043f6       0x34 C:/Users/xeeen/ON_Semiconductor/PACK/ONSemiconductor/RSL10/3.7.606/lib/ble_core/Release/libblelib.a(prf-prf_utils.o)
                0x001043f6                prf_register_atthdl2gatt
 .text.prf_disc_svc_send
                0x0010442a       0x38 C:/Users/xeeen/ON_Semiconductor/PACK/ONSemiconductor/RSL10/3.7.606/lib/ble_core/Release/libblelib.a(prf-prf_utils.o)
                0x0010442a                prf_disc_svc_send
 .text.prf_gatt_write
                0x00104462       0x58 C:/Users/xeeen/ON_Semiconductor/PACK/ONSemiconductor/RSL10/3.7.606/lib/ble_core/Release/libblelib.a(prf-prf_utils.o)
                0x00104462                prf_gatt_write
 .text.prf_gatt_write_ntf_ind
                0x001044ba       0x22 C:/Users/xeeen/ON_Semiconductor/PACK/ONSemiconductor/RSL10/3.7.606/lib/ble_core/Release/libblelib.a(prf-prf_utils.o)
                0x001044ba                prf_gatt_write_ntf_ind
 .text.prf_check_svc_char_validity
                0x001044dc       0x2e C:/Users/xeeen/ON_Semiconductor/PACK/ONSemiconductor/RSL10/3.7.606/lib/ble_core/Release/libblelib.a(prf-prf_utils.o)
                0x001044dc                prf_check_svc_char_validity
 .text.prf_check_svc_char_desc_validity
                0x0010450a       0x30 C:/Users/xeeen/ON_Semiconductor/PACK/ONSemiconductor/RSL10/3.7.606/lib/ble_core/Release/libblelib.a(prf-prf_utils.o)
                0x0010450a                prf_check_svc_char_desc_validity
 .text.prf_extract_svc_info
                0x0010453a      0x12e C:/Users/xeeen/ON_Semiconductor/PACK/ONSemiconductor/RSL10/3.7.606/lib/ble_core/Release/libblelib.a(prf-prf_utils.o)
                0x0010453a                prf_extract_svc_info
 .text.rwip_reset
                0x00104668       0x3c C:/Users/xeeen/ON_Semiconductor/PACK/ONSemiconductor/RSL10/3.7.606/lib/ble_core/Release/libblelib.a(rwip.o)
                0x00104668                rwip_reset
 .text.rwip_prevent_sleep_set
                0x001046a4       0x1c C:/Users/xeeen/ON_Semiconductor/PACK/ONSemiconductor/RSL10/3.7.606/lib/ble_core/Release/libblelib.a(rwip.o)
                0x001046a4                rwip_prevent_sleep_set
 .text.rwip_wakeup
                0x001046c0       0x10 C:/Users/xeeen/ON_Semiconductor/PACK/ONSemiconductor/RSL10/3.7.606/lib/ble_core/Release/libblelib.a(rwip.o)
                0x001046c0                rwip_wakeup
 .text.rwip_prevent_sleep_clear
                0x001046d0       0x20 C:/Users/xeeen/ON_Semiconductor/PACK/ONSemiconductor/RSL10/3.7.606/lib/ble_core/Release/libblelib.a(rwip.o)
                0x001046d0                rwip_prevent_sleep_clear
 .text.rwip_wakeup_end
                0x001046f0       0x24 C:/Users/xeeen/ON_Semiconductor/PACK/ONSemiconductor/RSL10/3.7.606/lib/ble_core/Release/libblelib.a(rwip.o)
                0x001046f0                rwip_wakeup_end
 .text.rwip_sleep_lpcycles_2_us
                0x00104714       0x54 C:/Users/xeeen/ON_Semiconductor/PACK/ONSemiconductor/RSL10/3.7.606/lib/ble_core/Release/libblelib.a(rwip.o)
                0x00104714                rwip_sleep_lpcycles_2_us
 .text.rwip_us_2_lpcycles
                0x00104768       0x24 C:/Users/xeeen/ON_Semiconductor/PACK/ONSemiconductor/RSL10/3.7.606/lib/ble_core/Release/libblelib.a(rwip.o)
                0x00104768                rwip_us_2_lpcycles
 .text.rwip_wakeup_delay_set
                0x0010478c       0x2c C:/Users/xeeen/ON_Semiconductor/PACK/ONSemiconductor/RSL10/3.7.606/lib/ble_core/Release/libblelib.a(rwip.o)
                0x0010478c                rwip_wakeup_delay_set
 .text.BLE_InitNoTL
                0x001047b8       0xd8 C:/Users/xeeen/ON_Semiconductor/PACK/ONSemiconductor/RSL10/3.7.606/lib/ble_core/Release/libblelib.a(rwip.o)
                0x001047b8                BLE_InitNoTL
 .text.rf_atl_reg_rd
                0x00104890       0x1c C:/Users/xeeen/ON_Semiconductor/PACK/ONSemiconductor/RSL10/3.7.606/lib/ble_core/Release/libblelib.a(rf_atlas.o)
 .text.rf_atl_reg_wr
                0x001048ac        0xc C:/Users/xeeen/ON_Semiconductor/PACK/ONSemiconductor/RSL10/3.7.606/lib/ble_core/Release/libblelib.a(rf_atlas.o)
 .text.rf_reset
                0x001048b8        0x2 C:/Users/xeeen/ON_Semiconductor/PACK/ONSemiconductor/RSL10/3.7.606/lib/ble_core/Release/libblelib.a(rf_atlas.o)
 .text.rf_force_agc_enable
                0x001048ba        0x2 C:/Users/xeeen/ON_Semiconductor/PACK/ONSemiconductor/RSL10/3.7.606/lib/ble_core/Release/libblelib.a(rf_atlas.o)
 .text.rf_txpwr_dbm_get
                0x001048bc        0x4 C:/Users/xeeen/ON_Semiconductor/PACK/ONSemiconductor/RSL10/3.7.606/lib/ble_core/Release/libblelib.a(rf_atlas.o)
 .text.rf_sleep
                0x001048c0       0x14 C:/Users/xeeen/ON_Semiconductor/PACK/ONSemiconductor/RSL10/3.7.606/lib/ble_core/Release/libblelib.a(rf_atlas.o)
 *fill*         0x001048d4        0x4 
 .text.rf_rssi_convert
                0x001048d8       0x34 C:/Users/xeeen/ON_Semiconductor/PACK/ONSemiconductor/RSL10/3.7.606/lib/ble_core/Release/libblelib.a(rf_atlas.o)
 .text.rf_init  0x0010490c      0x4d0 C:/Users/xeeen/ON_Semiconductor/PACK/ONSemiconductor/RSL10/3.7.606/lib/ble_core/Release/libblelib.a(rf_atlas.o)
                0x0010490c                rf_init
 .text.AddBigHex256
                0x00104ddc       0x4a C:/Users/xeeen/ON_Semiconductor/PACK/ONSemiconductor/RSL10/3.7.606/lib/ble_core/Release/libblelib.a(ecc_p256.o)
                0x00104ddc                AddBigHex256
 .text.Add2SelfBigHex256
                0x00104e26       0x40 C:/Users/xeeen/ON_Semiconductor/PACK/ONSemiconductor/RSL10/3.7.606/lib/ble_core/Release/libblelib.a(ecc_p256.o)
                0x00104e26                Add2SelfBigHex256
 .text.SubtractBigHex256
                0x00104e66       0x48 C:/Users/xeeen/ON_Semiconductor/PACK/ONSemiconductor/RSL10/3.7.606/lib/ble_core/Release/libblelib.a(ecc_p256.o)
                0x00104e66                SubtractBigHex256
 .text.SubtractFromSelfBigHex256
                0x00104eae       0x4c C:/Users/xeeen/ON_Semiconductor/PACK/ONSemiconductor/RSL10/3.7.606/lib/ble_core/Release/libblelib.a(ecc_p256.o)
                0x00104eae                SubtractFromSelfBigHex256
 *fill*         0x00104efa        0x2 
 .text.AddP256  0x00104efc       0x3c C:/Users/xeeen/ON_Semiconductor/PACK/ONSemiconductor/RSL10/3.7.606/lib/ble_core/Release/libblelib.a(ecc_p256.o)
                0x00104efc                AddP256
 .text.AddBigHexModP256
                0x00104f38       0x48 C:/Users/xeeen/ON_Semiconductor/PACK/ONSemiconductor/RSL10/3.7.606/lib/ble_core/Release/libblelib.a(ecc_p256.o)
                0x00104f38                AddBigHexModP256
 .text.AddPdiv2_256
                0x00104f80       0xf0 C:/Users/xeeen/ON_Semiconductor/PACK/ONSemiconductor/RSL10/3.7.606/lib/ble_core/Release/libblelib.a(ecc_p256.o)
                0x00104f80                AddPdiv2_256
 .text.SubtractFromSelfBigHexSign256
                0x00105070       0xd2 C:/Users/xeeen/ON_Semiconductor/PACK/ONSemiconductor/RSL10/3.7.606/lib/ble_core/Release/libblelib.a(ecc_p256.o)
                0x00105070                SubtractFromSelfBigHexSign256
 *fill*         0x00105142        0x2 
 .text.SubtractBigHexMod256
                0x00105144       0xd4 C:/Users/xeeen/ON_Semiconductor/PACK/ONSemiconductor/RSL10/3.7.606/lib/ble_core/Release/libblelib.a(ecc_p256.o)
                0x00105144                SubtractBigHexMod256
 .text.MultiplyByU32ModP256
                0x00105218       0x30 C:/Users/xeeen/ON_Semiconductor/PACK/ONSemiconductor/RSL10/3.7.606/lib/ble_core/Release/libblelib.a(ecc_p256.o)
                0x00105218                MultiplyByU32ModP256
 .text.specialModP256
                0x00105248       0xb0 C:/Users/xeeen/ON_Semiconductor/PACK/ONSemiconductor/RSL10/3.7.606/lib/ble_core/Release/libblelib.a(ecc_p256.o)
                0x00105248                specialModP256
 .text.MultiplyBigHexModP256
                0x001052f8      0x158 C:/Users/xeeen/ON_Semiconductor/PACK/ONSemiconductor/RSL10/3.7.606/lib/ble_core/Release/libblelib.a(ecc_p256.o)
                0x001052f8                MultiplyBigHexModP256
 .text.MultiplyBigHexByUint32_256
                0x00105450       0x44 C:/Users/xeeen/ON_Semiconductor/PACK/ONSemiconductor/RSL10/3.7.606/lib/ble_core/Release/libblelib.a(ecc_p256.o)
                0x00105450                MultiplyBigHexByUint32_256
 .text.notEqual256
                0x00105494       0x1e C:/Users/xeeen/ON_Semiconductor/PACK/ONSemiconductor/RSL10/3.7.606/lib/ble_core/Release/libblelib.a(ecc_p256.o)
                0x00105494                notEqual256
 *fill*         0x001054b2        0x2 
 .text.GF_Jacobian_Point_Double256
                0x001054b4      0x1a4 C:/Users/xeeen/ON_Semiconductor/PACK/ONSemiconductor/RSL10/3.7.606/lib/ble_core/Release/libblelib.a(ecc_p256.o)
                0x001054b4                GF_Jacobian_Point_Double256
 .text.GF_Jacobian_Point_Addition256
                0x00105658      0x550 C:/Users/xeeen/ON_Semiconductor/PACK/ONSemiconductor/RSL10/3.7.606/lib/ble_core/Release/libblelib.a(ecc_p256.o)
                0x00105658                GF_Jacobian_Point_Addition256
 .text.bigHexInversion256
                0x00105ba8      0x228 C:/Users/xeeen/ON_Semiconductor/PACK/ONSemiconductor/RSL10/3.7.606/lib/ble_core/Release/libblelib.a(ecc_p256.o)
                0x00105ba8                bigHexInversion256
 .text.GF_Point_Jacobian_To_Affine256
                0x00105dd0       0x2c C:/Users/xeeen/ON_Semiconductor/PACK/ONSemiconductor/RSL10/3.7.606/lib/ble_core/Release/libblelib.a(ecc_p256.o)
                0x00105dd0                GF_Point_Jacobian_To_Affine256
 .text.ecc_multiplication_event_handler
                0x00105dfc      0x5b8 C:/Users/xeeen/ON_Semiconductor/PACK/ONSemiconductor/RSL10/3.7.606/lib/ble_core/Release/libblelib.a(ecc_p256.o)
 .text.ecc_init
                0x001063b4       0x48 C:/Users/xeeen/ON_Semiconductor/PACK/ONSemiconductor/RSL10/3.7.606/lib/ble_core/Release/libblelib.a(ecc_p256.o)
                0x001063b4                ecc_init
 .text.ecc_generate_key256
                0x001063fc      0x3f8 C:/Users/xeeen/ON_Semiconductor/PACK/ONSemiconductor/RSL10/3.7.606/lib/ble_core/Release/libblelib.a(ecc_p256.o)
                0x001063fc                ecc_generate_key256
 .text.ecc_gen_new_public_key
                0x001067f4       0x20 C:/Users/xeeen/ON_Semiconductor/PACK/ONSemiconductor/RSL10/3.7.606/lib/ble_core/Release/libblelib.a(ecc_p256.o)
                0x001067f4                ecc_gen_new_public_key
 .text.ecc_gen_new_secret_key
                0x00106814       0xc4 C:/Users/xeeen/ON_Semiconductor/PACK/ONSemiconductor/RSL10/3.7.606/lib/ble_core/Release/libblelib.a(ecc_p256.o)
                0x00106814                ecc_gen_new_secret_key
 .text.hci_evt_mask_set.part.0
                0x001068d8       0x30 C:/Users/xeeen/ON_Semiconductor/PACK/ONSemiconductor/RSL10/3.7.606/lib/ble_core/Release/libblelib.a(hci.o)
 .text.hci_init
                0x00106908       0x24 C:/Users/xeeen/ON_Semiconductor/PACK/ONSemiconductor/RSL10/3.7.606/lib/ble_core/Release/libblelib.a(hci.o)
                0x00106908                hci_init
 .text.hci_reset
                0x0010692c        0x4 C:/Users/xeeen/ON_Semiconductor/PACK/ONSemiconductor/RSL10/3.7.606/lib/ble_core/Release/libblelib.a(hci.o)
                0x0010692c                hci_reset
 .text.hci_send_2_host
                0x00106930       0xf0 C:/Users/xeeen/ON_Semiconductor/PACK/ONSemiconductor/RSL10/3.7.606/lib/ble_core/Release/libblelib.a(hci.o)
                0x00106930                hci_send_2_host
 .text.hci_send_2_controller
                0x00106a20       0x8c C:/Users/xeeen/ON_Semiconductor/PACK/ONSemiconductor/RSL10/3.7.606/lib/ble_core/Release/libblelib.a(hci.o)
                0x00106a20                hci_send_2_controller
 .text.hci_evt_mask_set
                0x00106aac       0x24 C:/Users/xeeen/ON_Semiconductor/PACK/ONSemiconductor/RSL10/3.7.606/lib/ble_core/Release/libblelib.a(hci.o)
                0x00106aac                hci_evt_mask_set
 .text.hci_fc_init
                0x00106ad0       0x10 C:/Users/xeeen/ON_Semiconductor/PACK/ONSemiconductor/RSL10/3.7.606/lib/ble_core/Release/libblelib.a(hci_fc.o)
                0x00106ad0                hci_fc_init
 .text.hci_fc_acl_buf_size_set
                0x00106ae0       0x20 C:/Users/xeeen/ON_Semiconductor/PACK/ONSemiconductor/RSL10/3.7.606/lib/ble_core/Release/libblelib.a(hci_fc.o)
                0x00106ae0                hci_fc_acl_buf_size_set
 .text.hci_fc_acl_en
                0x00106b00       0x30 C:/Users/xeeen/ON_Semiconductor/PACK/ONSemiconductor/RSL10/3.7.606/lib/ble_core/Release/libblelib.a(hci_fc.o)
                0x00106b00                hci_fc_acl_en
 .text.hci_fc_host_nb_acl_pkts_complete
                0x00106b30       0x18 C:/Users/xeeen/ON_Semiconductor/PACK/ONSemiconductor/RSL10/3.7.606/lib/ble_core/Release/libblelib.a(hci_fc.o)
                0x00106b30                hci_fc_host_nb_acl_pkts_complete
 .text.hci_look_for_cmd_desc
                0x00106b48       0x6c C:/Users/xeeen/ON_Semiconductor/PACK/ONSemiconductor/RSL10/3.7.606/lib/ble_core/Release/libblelib.a(hci_msg.o)
                0x00106b48                hci_look_for_cmd_desc
 .text.hci_look_for_evt_desc
                0x00106bb4       0x20 C:/Users/xeeen/ON_Semiconductor/PACK/ONSemiconductor/RSL10/3.7.606/lib/ble_core/Release/libblelib.a(hci_msg.o)
                0x00106bb4                hci_look_for_evt_desc
 .text.hci_look_for_le_evt_desc
                0x00106bd4       0x20 C:/Users/xeeen/ON_Semiconductor/PACK/ONSemiconductor/RSL10/3.7.606/lib/ble_core/Release/libblelib.a(hci_msg.o)
                0x00106bd4                hci_look_for_le_evt_desc
 .text.ea_conflict_check
                0x00106bf4       0xa4 C:/Users/xeeen/ON_Semiconductor/PACK/ONSemiconductor/RSL10/3.7.606/lib/ble_core/Release/libblelib.a(ea.o)
 .text.ea_elt_cancel
                0x00106c98      0x114 C:/Users/xeeen/ON_Semiconductor/PACK/ONSemiconductor/RSL10/3.7.606/lib/ble_core/Release/libblelib.a(ea.o)
                0x00106c98                ea_elt_cancel
 .text.ea_init  0x00106dac       0x2c C:/Users/xeeen/ON_Semiconductor/PACK/ONSemiconductor/RSL10/3.7.606/lib/ble_core/Release/libblelib.a(ea.o)
                0x00106dac                ea_init
 .text.ea_elt_create
                0x00106dd8       0x1e C:/Users/xeeen/ON_Semiconductor/PACK/ONSemiconductor/RSL10/3.7.606/lib/ble_core/Release/libblelib.a(ea.o)
                0x00106dd8                ea_elt_create
 .text.ea_interval_create
                0x00106df6       0x18 C:/Users/xeeen/ON_Semiconductor/PACK/ONSemiconductor/RSL10/3.7.606/lib/ble_core/Release/libblelib.a(ea.o)
                0x00106df6                ea_interval_create
 *fill*         0x00106e0e        0x2 
 .text.ea_interval_insert
                0x00106e10        0xc C:/Users/xeeen/ON_Semiconductor/PACK/ONSemiconductor/RSL10/3.7.606/lib/ble_core/Release/libblelib.a(ea.o)
                0x00106e10                ea_interval_insert
 .text.ea_interval_remove
                0x00106e1c       0x10 C:/Users/xeeen/ON_Semiconductor/PACK/ONSemiconductor/RSL10/3.7.606/lib/ble_core/Release/libblelib.a(ea.o)
                0x00106e1c                ea_interval_remove
 .text.ea_sw_isr
                0x00106e2c       0x24 C:/Users/xeeen/ON_Semiconductor/PACK/ONSemiconductor/RSL10/3.7.606/lib/ble_core/Release/libblelib.a(ea.o)
                0x00106e2c                ea_sw_isr
 .text.ea_offset_req
                0x00106e50      0x190 C:/Users/xeeen/ON_Semiconductor/PACK/ONSemiconductor/RSL10/3.7.606/lib/ble_core/Release/libblelib.a(ea.o)
                0x00106e50                ea_offset_req
 .text.ea_time_get_slot_rounded
                0x00106fe0       0x2c C:/Users/xeeen/ON_Semiconductor/PACK/ONSemiconductor/RSL10/3.7.606/lib/ble_core/Release/libblelib.a(ea.o)
                0x00106fe0                ea_time_get_slot_rounded
 .text.ea_prog_timer
                0x0010700c      0x134 C:/Users/xeeen/ON_Semiconductor/PACK/ONSemiconductor/RSL10/3.7.606/lib/ble_core/Release/libblelib.a(ea.o)
 .text.ea_elt_insert
                0x00107140      0x208 C:/Users/xeeen/ON_Semiconductor/PACK/ONSemiconductor/RSL10/3.7.606/lib/ble_core/Release/libblelib.a(ea.o)
                0x00107140                ea_elt_insert
 .text.ea_elt_remove
                0x00107348       0x60 C:/Users/xeeen/ON_Semiconductor/PACK/ONSemiconductor/RSL10/3.7.606/lib/ble_core/Release/libblelib.a(ea.o)
                0x00107348                ea_elt_remove
 .text.ea_finetimer_isr
                0x001073a8       0xc4 C:/Users/xeeen/ON_Semiconductor/PACK/ONSemiconductor/RSL10/3.7.606/lib/ble_core/Release/libblelib.a(ea.o)
                0x001073a8                ea_finetimer_isr
 .text.ea_interval_duration_req
                0x0010746c       0x9c C:/Users/xeeen/ON_Semiconductor/PACK/ONSemiconductor/RSL10/3.7.606/lib/ble_core/Release/libblelib.a(ea.o)
                0x0010746c                ea_interval_duration_req
 .text.rwble_recovery
                0x00107508      0x130 C:/Users/xeeen/ON_Semiconductor/PACK/ONSemiconductor/RSL10/3.7.606/lib/ble_core/Release/libblelib.a(rwble.o)
                0x00107508                rwble_recovery
 .text.rwble_init
                0x00107638       0x2c C:/Users/xeeen/ON_Semiconductor/PACK/ONSemiconductor/RSL10/3.7.606/lib/ble_core/Release/libblelib.a(rwble.o)
                0x00107638                rwble_init
 .text.rwble_reset
                0x00107664       0x64 C:/Users/xeeen/ON_Semiconductor/PACK/ONSemiconductor/RSL10/3.7.606/lib/ble_core/Release/libblelib.a(rwble.o)
                0x00107664                rwble_reset
 .text.rwble_sleep_check
                0x001076c8       0x10 C:/Users/xeeen/ON_Semiconductor/PACK/ONSemiconductor/RSL10/3.7.606/lib/ble_core/Release/libblelib.a(rwble.o)
                0x001076c8                rwble_sleep_check
 .text.rwble_isr
                0x001076d8       0xf8 C:/Users/xeeen/ON_Semiconductor/PACK/ONSemiconductor/RSL10/3.7.606/lib/ble_core/Release/libblelib.a(rwble.o)
                0x001076d8                BLE_CSCNT_IRQHandler
                0x001076d8                BLE_SW_IRQHandler
                0x001076d8                BLE_AUDIO0_IRQHandler
                0x001076d8                BLE_SLP_IRQHandler
                0x001076d8                BLE_RX_IRQHandler
                0x001076d8                rwble_isr
                0x001076d8                BLE_AUDIO2_IRQHandler
                0x001076d8                BLE_AUDIO1_IRQHandler
                0x001076d8                BLE_ERROR_IRQHandler
                0x001076d8                BLE_EVENT_IRQHandler
                0x001076d8                BLE_CRYPT_IRQHandler
                0x001076d8                BLE_FINETGTIM_IRQHandler
 .text.llm_wlpub_addr_set
                0x001077d0       0x2c C:/Users/xeeen/ON_Semiconductor/PACK/ONSemiconductor/RSL10/3.7.606/lib/ble_core/Release/libblelib.a(llm.o)
 .text.llm_wlpriv_addr_set
                0x001077fc       0x2c C:/Users/xeeen/ON_Semiconductor/PACK/ONSemiconductor/RSL10/3.7.606/lib/ble_core/Release/libblelib.a(llm.o)
 .text.llm_con_req_ind
                0x00107828      0x1fc C:/Users/xeeen/ON_Semiconductor/PACK/ONSemiconductor/RSL10/3.7.606/lib/ble_core/Release/libblelib.a(llm.o)
                0x00107828                llm_con_req_ind
 .text.llm_le_adv_report_ind
                0x00107a24      0x2e0 C:/Users/xeeen/ON_Semiconductor/PACK/ONSemiconductor/RSL10/3.7.606/lib/ble_core/Release/libblelib.a(llm.o)
                0x00107a24                llm_le_adv_report_ind
 .text.llm_con_req_tx_cfm
                0x00107d04      0x144 C:/Users/xeeen/ON_Semiconductor/PACK/ONSemiconductor/RSL10/3.7.606/lib/ble_core/Release/libblelib.a(llm.o)
                0x00107d04                llm_con_req_tx_cfm
 .text.llm_common_cmd_complete_send
                0x00107e48       0x1c C:/Users/xeeen/ON_Semiconductor/PACK/ONSemiconductor/RSL10/3.7.606/lib/ble_core/Release/libblelib.a(llm.o)
                0x00107e48                llm_common_cmd_complete_send
 .text.llm_ble_ready
                0x00107e64        0x8 C:/Users/xeeen/ON_Semiconductor/PACK/ONSemiconductor/RSL10/3.7.606/lib/ble_core/Release/libblelib.a(llm.o)
                0x00107e64                llm_ble_ready
 .text.llm_common_cmd_status_send
                0x00107e6c       0x1c C:/Users/xeeen/ON_Semiconductor/PACK/ONSemiconductor/RSL10/3.7.606/lib/ble_core/Release/libblelib.a(llm.o)
                0x00107e6c                llm_common_cmd_status_send
 .text.llm_test_mode_start_tx
                0x00107e88      0x260 C:/Users/xeeen/ON_Semiconductor/PACK/ONSemiconductor/RSL10/3.7.606/lib/ble_core/Release/libblelib.a(llm.o)
                0x00107e88                llm_test_mode_start_tx
 .text.llm_test_mode_start_rx
                0x001080e8       0xc8 C:/Users/xeeen/ON_Semiconductor/PACK/ONSemiconductor/RSL10/3.7.606/lib/ble_core/Release/libblelib.a(llm.o)
                0x001080e8                llm_test_mode_start_rx
 .text.llm_set_adv_param
                0x001081b0      0x144 C:/Users/xeeen/ON_Semiconductor/PACK/ONSemiconductor/RSL10/3.7.606/lib/ble_core/Release/libblelib.a(llm.o)
                0x001081b0                llm_set_adv_param
 .text.llm_set_adv_data
                0x001082f4       0x84 C:/Users/xeeen/ON_Semiconductor/PACK/ONSemiconductor/RSL10/3.7.606/lib/ble_core/Release/libblelib.a(llm.o)
                0x001082f4                llm_set_adv_data
 .text.llm_set_scan_rsp_data
                0x00108378       0x84 C:/Users/xeeen/ON_Semiconductor/PACK/ONSemiconductor/RSL10/3.7.606/lib/ble_core/Release/libblelib.a(llm.o)
                0x00108378                llm_set_scan_rsp_data
 .text.llm_set_scan_param
                0x001083fc       0x74 C:/Users/xeeen/ON_Semiconductor/PACK/ONSemiconductor/RSL10/3.7.606/lib/ble_core/Release/libblelib.a(llm.o)
                0x001083fc                llm_set_scan_param
 .text.llm_wl_clr
                0x00108470       0x58 C:/Users/xeeen/ON_Semiconductor/PACK/ONSemiconductor/RSL10/3.7.606/lib/ble_core/Release/libblelib.a(llm.o)
                0x00108470                llm_wl_clr
 .text.llm_wl_dev_add
                0x001084c8       0x38 C:/Users/xeeen/ON_Semiconductor/PACK/ONSemiconductor/RSL10/3.7.606/lib/ble_core/Release/libblelib.a(llm.o)
                0x001084c8                llm_wl_dev_add
 .text.llm_wl_dev_rem
                0x00108500       0x34 C:/Users/xeeen/ON_Semiconductor/PACK/ONSemiconductor/RSL10/3.7.606/lib/ble_core/Release/libblelib.a(llm.o)
                0x00108500                llm_wl_dev_rem
 .text.llm_wl_dev_add_hdl
                0x00108534       0x7c C:/Users/xeeen/ON_Semiconductor/PACK/ONSemiconductor/RSL10/3.7.606/lib/ble_core/Release/libblelib.a(llm.o)
                0x00108534                llm_wl_dev_add_hdl
 .text.llm_wl_dev_rem_hdl
                0x001085b0       0x78 C:/Users/xeeen/ON_Semiconductor/PACK/ONSemiconductor/RSL10/3.7.606/lib/ble_core/Release/libblelib.a(llm.o)
                0x001085b0                llm_wl_dev_rem_hdl
 .text.llm_encryption_start
                0x00108628       0x60 C:/Users/xeeen/ON_Semiconductor/PACK/ONSemiconductor/RSL10/3.7.606/lib/ble_core/Release/libblelib.a(llm.o)
                0x00108628                llm_encryption_start
 .text.llm_encryption_done
                0x00108688       0xe4 C:/Users/xeeen/ON_Semiconductor/PACK/ONSemiconductor/RSL10/3.7.606/lib/ble_core/Release/libblelib.a(llm.o)
                0x00108688                llm_encryption_done
 .text.llm_ral_clear
                0x0010876c       0x1c C:/Users/xeeen/ON_Semiconductor/PACK/ONSemiconductor/RSL10/3.7.606/lib/ble_core/Release/libblelib.a(llm.o)
                0x0010876c                llm_ral_clear
 .text.llm_init
                0x00108788      0x1e0 C:/Users/xeeen/ON_Semiconductor/PACK/ONSemiconductor/RSL10/3.7.606/lib/ble_core/Release/libblelib.a(llm.o)
                0x00108788                llm_init
 .text.llm_ral_dev_add
                0x00108968      0x14c C:/Users/xeeen/ON_Semiconductor/PACK/ONSemiconductor/RSL10/3.7.606/lib/ble_core/Release/libblelib.a(llm.o)
                0x00108968                llm_ral_dev_add
 .text.llm_ral_dev_rm
                0x00108ab4       0x3c C:/Users/xeeen/ON_Semiconductor/PACK/ONSemiconductor/RSL10/3.7.606/lib/ble_core/Release/libblelib.a(llm.o)
                0x00108ab4                llm_ral_dev_rm
 .text.llm_ral_get_rpa
                0x00108af0       0x70 C:/Users/xeeen/ON_Semiconductor/PACK/ONSemiconductor/RSL10/3.7.606/lib/ble_core/Release/libblelib.a(llm.o)
                0x00108af0                llm_ral_get_rpa
 .text.llm_ral_set_timeout
                0x00108b60       0x48 C:/Users/xeeen/ON_Semiconductor/PACK/ONSemiconductor/RSL10/3.7.606/lib/ble_core/Release/libblelib.a(llm.o)
                0x00108b60                llm_ral_set_timeout
 .text.llm_ral_update
                0x00108ba8       0x34 C:/Users/xeeen/ON_Semiconductor/PACK/ONSemiconductor/RSL10/3.7.606/lib/ble_core/Release/libblelib.a(llm.o)
                0x00108ba8                llm_ral_update
 .text.llm_set_adv_en
                0x00108bdc      0x124 C:/Users/xeeen/ON_Semiconductor/PACK/ONSemiconductor/RSL10/3.7.606/lib/ble_core/Release/libblelib.a(llm.o)
                0x00108bdc                llm_set_adv_en
 .text.llm_set_scan_en
                0x00108d00       0xb4 C:/Users/xeeen/ON_Semiconductor/PACK/ONSemiconductor/RSL10/3.7.606/lib/ble_core/Release/libblelib.a(llm.o)
                0x00108d00                llm_set_scan_en
 .text.llm_create_con
                0x00108db4      0x138 C:/Users/xeeen/ON_Semiconductor/PACK/ONSemiconductor/RSL10/3.7.606/lib/ble_core/Release/libblelib.a(llm.o)
                0x00108db4                llm_create_con
 .text.llm_dft_handler
                0x00108eec        0x4 C:/Users/xeeen/ON_Semiconductor/PACK/ONSemiconductor/RSL10/3.7.606/lib/ble_core/Release/libblelib.a(llm_task.o)
 .text.llm_le_set_host_ch_class_cmd_sto_handler
                0x00108ef0       0x10 C:/Users/xeeen/ON_Semiconductor/PACK/ONSemiconductor/RSL10/3.7.606/lib/ble_core/Release/libblelib.a(llm_task.o)
 .text.llm_ecc_result_ind_handler
                0x00108f00       0xa0 C:/Users/xeeen/ON_Semiconductor/PACK/ONSemiconductor/RSL10/3.7.606/lib/ble_core/Release/libblelib.a(llm_task.o)
 .text.llm_le_enh_priv_addr_renew_timer_handler
                0x00108fa0       0x4c C:/Users/xeeen/ON_Semiconductor/PACK/ONSemiconductor/RSL10/3.7.606/lib/ble_core/Release/libblelib.a(llm_task.o)
 .text.llm_enc_req_handler
                0x00108fec       0x30 C:/Users/xeeen/ON_Semiconductor/PACK/ONSemiconductor/RSL10/3.7.606/lib/ble_core/Release/libblelib.a(llm_task.o)
 .text.lld_stop_ind_handler
                0x0010901c       0x5c C:/Users/xeeen/ON_Semiconductor/PACK/ONSemiconductor/RSL10/3.7.606/lib/ble_core/Release/libblelib.a(llm_task.o)
 .text.llm_util_bd_addr_wl_position
                0x00109078       0x74 C:/Users/xeeen/ON_Semiconductor/PACK/ONSemiconductor/RSL10/3.7.606/lib/ble_core/Release/libblelib.a(llm_util.o)
                0x00109078                llm_util_bd_addr_wl_position
 .text.llm_util_check_address_validity
                0x001090ec       0x18 C:/Users/xeeen/ON_Semiconductor/PACK/ONSemiconductor/RSL10/3.7.606/lib/ble_core/Release/libblelib.a(llm_util.o)
                0x001090ec                llm_util_check_address_validity
 .text.llm_util_check_map_validity
                0x00109104       0x48 C:/Users/xeeen/ON_Semiconductor/PACK/ONSemiconductor/RSL10/3.7.606/lib/ble_core/Release/libblelib.a(llm_util.o)
                0x00109104                llm_util_check_map_validity
 .text.llm_util_apply_bd_addr
                0x0010914c       0x1c C:/Users/xeeen/ON_Semiconductor/PACK/ONSemiconductor/RSL10/3.7.606/lib/ble_core/Release/libblelib.a(llm_util.o)
                0x0010914c                llm_util_apply_bd_addr
 .text.llm_util_check_evt_mask
                0x00109168       0x1c C:/Users/xeeen/ON_Semiconductor/PACK/ONSemiconductor/RSL10/3.7.606/lib/ble_core/Release/libblelib.a(llm_util.o)
                0x00109168                llm_util_check_evt_mask
 .text.llm_util_get_channel_map
                0x00109184       0x10 C:/Users/xeeen/ON_Semiconductor/PACK/ONSemiconductor/RSL10/3.7.606/lib/ble_core/Release/libblelib.a(llm_util.o)
                0x00109184                llm_util_get_channel_map
 .text.llm_util_get_supp_features
                0x00109194       0x10 C:/Users/xeeen/ON_Semiconductor/PACK/ONSemiconductor/RSL10/3.7.606/lib/ble_core/Release/libblelib.a(llm_util.o)
                0x00109194                llm_util_get_supp_features
 .text.llm_util_adv_data_update
                0x001091a4       0x40 C:/Users/xeeen/ON_Semiconductor/PACK/ONSemiconductor/RSL10/3.7.606/lib/ble_core/Release/libblelib.a(llm_util.o)
                0x001091a4                llm_util_adv_data_update
 .text.llm_util_bl_check
                0x001091e4       0x68 C:/Users/xeeen/ON_Semiconductor/PACK/ONSemiconductor/RSL10/3.7.606/lib/ble_core/Release/libblelib.a(llm_util.o)
                0x001091e4                llm_util_bl_check
 .text.llm_util_bd_addr_in_wl
                0x0010924c       0x4e C:/Users/xeeen/ON_Semiconductor/PACK/ONSemiconductor/RSL10/3.7.606/lib/ble_core/Release/libblelib.a(llm_util.o)
                0x0010924c                llm_util_bd_addr_in_wl
 *fill*         0x0010929a        0x2 
 .text.llm_util_get_default_phy
                0x0010929c       0x2c C:/Users/xeeen/ON_Semiconductor/PACK/ONSemiconductor/RSL10/3.7.606/lib/ble_core/Release/libblelib.a(llm_util.o)
                0x0010929c                llm_util_get_default_phy
 .text.llm_util_bd_addr_in_ral
                0x001092c8       0x74 C:/Users/xeeen/ON_Semiconductor/PACK/ONSemiconductor/RSL10/3.7.606/lib/ble_core/Release/libblelib.a(llm_util.o)
                0x001092c8                llm_util_bd_addr_in_ral
 .text.llm_util_bl_add
                0x0010933c       0x8c C:/Users/xeeen/ON_Semiconductor/PACK/ONSemiconductor/RSL10/3.7.606/lib/ble_core/Release/libblelib.a(llm_util.o)
                0x0010933c                llm_util_bl_add
 .text.llm_util_bl_rem
                0x001093c8       0x6c C:/Users/xeeen/ON_Semiconductor/PACK/ONSemiconductor/RSL10/3.7.606/lib/ble_core/Release/libblelib.a(llm_util.o)
                0x001093c8                llm_util_bl_rem
 .text.llm_end_evt_defer
                0x00109434       0xbc C:/Users/xeeen/ON_Semiconductor/PACK/ONSemiconductor/RSL10/3.7.606/lib/ble_core/Release/libblelib.a(llm_util.o)
                0x00109434                llm_end_evt_defer
 .text.llm_pdu_defer
                0x001094f0       0x7c C:/Users/xeeen/ON_Semiconductor/PACK/ONSemiconductor/RSL10/3.7.606/lib/ble_core/Release/libblelib.a(llm_util.o)
                0x001094f0                llm_pdu_defer
 .text.lld_init
                0x0010956c      0x210 C:/Users/xeeen/ON_Semiconductor/PACK/ONSemiconductor/RSL10/3.7.606/lib/ble_core/Release/libblelib.a(lld.o)
                0x0010956c                lld_init
 .text.lld_core_reset
                0x0010977c       0x64 C:/Users/xeeen/ON_Semiconductor/PACK/ONSemiconductor/RSL10/3.7.606/lib/ble_core/Release/libblelib.a(lld.o)
                0x0010977c                lld_core_reset
 .text.lld_adv_start
                0x001097e0      0x22c C:/Users/xeeen/ON_Semiconductor/PACK/ONSemiconductor/RSL10/3.7.606/lib/ble_core/Release/libblelib.a(lld.o)
                0x001097e0                lld_adv_start
 .text.lld_adv_stop
                0x00109a0c       0x30 C:/Users/xeeen/ON_Semiconductor/PACK/ONSemiconductor/RSL10/3.7.606/lib/ble_core/Release/libblelib.a(lld.o)
                0x00109a0c                lld_adv_stop
 .text.lld_scan_start
                0x00109a3c      0x1c8 C:/Users/xeeen/ON_Semiconductor/PACK/ONSemiconductor/RSL10/3.7.606/lib/ble_core/Release/libblelib.a(lld.o)
                0x00109a3c                lld_scan_start
 .text.lld_scan_stop
                0x00109c04       0x30 C:/Users/xeeen/ON_Semiconductor/PACK/ONSemiconductor/RSL10/3.7.606/lib/ble_core/Release/libblelib.a(lld.o)
                0x00109c04                lld_scan_stop
 .text.lld_con_start
                0x00109c34      0x64c C:/Users/xeeen/ON_Semiconductor/PACK/ONSemiconductor/RSL10/3.7.606/lib/ble_core/Release/libblelib.a(lld.o)
                0x00109c34                lld_con_start
 .text.lld_move_to_master
                0x0010a280       0xc8 C:/Users/xeeen/ON_Semiconductor/PACK/ONSemiconductor/RSL10/3.7.606/lib/ble_core/Release/libblelib.a(lld.o)
                0x0010a280                lld_move_to_master
 .text.lld_con_update_req
                0x0010a348       0x5a C:/Users/xeeen/ON_Semiconductor/PACK/ONSemiconductor/RSL10/3.7.606/lib/ble_core/Release/libblelib.a(lld.o)
                0x0010a348                lld_con_update_req
 *fill*         0x0010a3a2        0x2 
 .text.lld_con_update_after_param_req
                0x0010a3a4      0x230 C:/Users/xeeen/ON_Semiconductor/PACK/ONSemiconductor/RSL10/3.7.606/lib/ble_core/Release/libblelib.a(lld.o)
                0x0010a3a4                lld_con_update_after_param_req
 .text.lld_con_param_rsp
                0x0010a5d4      0x110 C:/Users/xeeen/ON_Semiconductor/PACK/ONSemiconductor/RSL10/3.7.606/lib/ble_core/Release/libblelib.a(lld.o)
                0x0010a5d4                lld_con_param_rsp
 .text.lld_con_param_req
                0x0010a6e4       0xca C:/Users/xeeen/ON_Semiconductor/PACK/ONSemiconductor/RSL10/3.7.606/lib/ble_core/Release/libblelib.a(lld.o)
                0x0010a6e4                lld_con_param_req
 .text.lld_con_stop
                0x0010a7ae        0x8 C:/Users/xeeen/ON_Semiconductor/PACK/ONSemiconductor/RSL10/3.7.606/lib/ble_core/Release/libblelib.a(lld.o)
                0x0010a7ae                lld_con_stop
 *fill*         0x0010a7b6        0x2 
 .text.lld_get_mode
                0x0010a7b8       0x28 C:/Users/xeeen/ON_Semiconductor/PACK/ONSemiconductor/RSL10/3.7.606/lib/ble_core/Release/libblelib.a(lld.o)
                0x0010a7b8                lld_get_mode
 .text.lld_move_to_slave
                0x0010a7e0      0x1a0 C:/Users/xeeen/ON_Semiconductor/PACK/ONSemiconductor/RSL10/3.7.606/lib/ble_core/Release/libblelib.a(lld.o)
                0x0010a7e0                lld_move_to_slave
 .text.lld_ch_map_ind
                0x0010a980       0x46 C:/Users/xeeen/ON_Semiconductor/PACK/ONSemiconductor/RSL10/3.7.606/lib/ble_core/Release/libblelib.a(lld.o)
                0x0010a980                lld_ch_map_ind
 .text.lld_con_update_ind
                0x0010a9c6        0xa C:/Users/xeeen/ON_Semiconductor/PACK/ONSemiconductor/RSL10/3.7.606/lib/ble_core/Release/libblelib.a(lld.o)
                0x0010a9c6                lld_con_update_ind
 .text.lld_crypt_isr
                0x0010a9d0        0x6 C:/Users/xeeen/ON_Semiconductor/PACK/ONSemiconductor/RSL10/3.7.606/lib/ble_core/Release/libblelib.a(lld.o)
                0x0010a9d0                lld_crypt_isr
 *fill*         0x0010a9d6        0x2 
 .text.lld_test_mode_tx
                0x0010a9d8      0x100 C:/Users/xeeen/ON_Semiconductor/PACK/ONSemiconductor/RSL10/3.7.606/lib/ble_core/Release/libblelib.a(lld.o)
                0x0010a9d8                lld_test_mode_tx
 .text.lld_test_mode_rx
                0x0010aad8      0x100 C:/Users/xeeen/ON_Semiconductor/PACK/ONSemiconductor/RSL10/3.7.606/lib/ble_core/Release/libblelib.a(lld.o)
                0x0010aad8                lld_test_mode_rx
 .text.lld_test_stop
                0x0010abd8       0x94 C:/Users/xeeen/ON_Semiconductor/PACK/ONSemiconductor/RSL10/3.7.606/lib/ble_core/Release/libblelib.a(lld.o)
                0x0010abd8                lld_test_stop
 .text.lld_ral_renew_req
                0x0010ac6c       0x1c C:/Users/xeeen/ON_Semiconductor/PACK/ONSemiconductor/RSL10/3.7.606/lib/ble_core/Release/libblelib.a(lld.o)
                0x0010ac6c                lld_ral_renew_req
 .text.lld_evt_winsize_change
                0x0010ac88       0xbc C:/Users/xeeen/ON_Semiconductor/PACK/ONSemiconductor/RSL10/3.7.606/lib/ble_core/Release/libblelib.a(lld_evt.o)
 .text.lld_evt_slave_time_compute
                0x0010ad44       0xe8 C:/Users/xeeen/ON_Semiconductor/PACK/ONSemiconductor/RSL10/3.7.606/lib/ble_core/Release/libblelib.a(lld_evt.o)
 .text.lld_evt_prevent_stop
                0x0010ae2c        0x2 C:/Users/xeeen/ON_Semiconductor/PACK/ONSemiconductor/RSL10/3.7.606/lib/ble_core/Release/libblelib.a(lld_evt.o)
                0x0010ae2c                lld_evt_prevent_stop
 *fill*         0x0010ae2e        0x2 
 .text.lld_evt_elt_wait_insert
                0x0010ae30       0x20 C:/Users/xeeen/ON_Semiconductor/PACK/ONSemiconductor/RSL10/3.7.606/lib/ble_core/Release/libblelib.a(lld_evt.o)
 .text.lld_evt_deferred_elt_push
                0x0010ae50       0x34 C:/Users/xeeen/ON_Semiconductor/PACK/ONSemiconductor/RSL10/3.7.606/lib/ble_core/Release/libblelib.a(lld_evt.o)
 .text.lld_evt_deferred_elt_pop
                0x0010ae84       0x38 C:/Users/xeeen/ON_Semiconductor/PACK/ONSemiconductor/RSL10/3.7.606/lib/ble_core/Release/libblelib.a(lld_evt.o)
 .text.lld_evt_get_next_free_slot
                0x0010aebc       0x3c C:/Users/xeeen/ON_Semiconductor/PACK/ONSemiconductor/RSL10/3.7.606/lib/ble_core/Release/libblelib.a(lld_evt.o)
 .text.lld_evt_elt_wait_get
                0x0010aef8       0x34 C:/Users/xeeen/ON_Semiconductor/PACK/ONSemiconductor/RSL10/3.7.606/lib/ble_core/Release/libblelib.a(lld_evt.o)
 .text.lld_evt_schedule
                0x0010af2c      0x14c C:/Users/xeeen/ON_Semiconductor/PACK/ONSemiconductor/RSL10/3.7.606/lib/ble_core/Release/libblelib.a(lld_evt.o)
                0x0010af2c                lld_evt_schedule
 .text.lld_evt_delete_elt_push
                0x0010b078       0x4c C:/Users/xeeen/ON_Semiconductor/PACK/ONSemiconductor/RSL10/3.7.606/lib/ble_core/Release/libblelib.a(lld_evt.o)
                0x0010b078                lld_evt_delete_elt_push
 .text.lld_evt_deffered_elt_handler
                0x0010b0c4       0xb4 C:/Users/xeeen/ON_Semiconductor/PACK/ONSemiconductor/RSL10/3.7.606/lib/ble_core/Release/libblelib.a(lld_evt.o)
                0x0010b0c4                lld_evt_deffered_elt_handler
 .text.lld_evt_channel_next
                0x0010b178       0x3c C:/Users/xeeen/ON_Semiconductor/PACK/ONSemiconductor/RSL10/3.7.606/lib/ble_core/Release/libblelib.a(lld_evt.o)
                0x0010b178                lld_evt_channel_next
 .text.lld_evt_init
                0x0010b1b4      0x12c C:/Users/xeeen/ON_Semiconductor/PACK/ONSemiconductor/RSL10/3.7.606/lib/ble_core/Release/libblelib.a(lld_evt.o)
                0x0010b1b4                lld_evt_init
 .text.lld_evt_init_evt
                0x0010b2e0       0x5c C:/Users/xeeen/ON_Semiconductor/PACK/ONSemiconductor/RSL10/3.7.606/lib/ble_core/Release/libblelib.a(lld_evt.o)
                0x0010b2e0                lld_evt_init_evt
 .text.lld_evt_elt_delete
                0x0010b33c      0x12c C:/Users/xeeen/ON_Semiconductor/PACK/ONSemiconductor/RSL10/3.7.606/lib/ble_core/Release/libblelib.a(lld_evt.o)
                0x0010b33c                lld_evt_elt_delete
 .text.lld_evt_delete_elt_handler
                0x0010b468       0xd8 C:/Users/xeeen/ON_Semiconductor/PACK/ONSemiconductor/RSL10/3.7.606/lib/ble_core/Release/libblelib.a(lld_evt.o)
 .text.lld_evt_drift_compute
                0x0010b540       0x38 C:/Users/xeeen/ON_Semiconductor/PACK/ONSemiconductor/RSL10/3.7.606/lib/ble_core/Release/libblelib.a(lld_evt.o)
                0x0010b540                lld_evt_drift_compute
 .text.lld_evt_rxwin_compute
                0x0010b578       0x4c C:/Users/xeeen/ON_Semiconductor/PACK/ONSemiconductor/RSL10/3.7.606/lib/ble_core/Release/libblelib.a(lld_evt.o)
 .text.lld_evt_restart
                0x0010b5c4      0x844 C:/Users/xeeen/ON_Semiconductor/PACK/ONSemiconductor/RSL10/3.7.606/lib/ble_core/Release/libblelib.a(lld_evt.o)
                0x0010b5c4                lld_evt_restart
 .text.lld_evt_elt_insert
                0x0010be08       0x88 C:/Users/xeeen/ON_Semiconductor/PACK/ONSemiconductor/RSL10/3.7.606/lib/ble_core/Release/libblelib.a(lld_evt.o)
                0x0010be08                lld_evt_elt_insert
 .text.lld_evt_canceled
                0x0010be90       0x58 C:/Users/xeeen/ON_Semiconductor/PACK/ONSemiconductor/RSL10/3.7.606/lib/ble_core/Release/libblelib.a(lld_evt.o)
                0x0010be90                lld_evt_canceled
 .text.lld_evt_schedule_next
                0x0010bee8      0x1ac C:/Users/xeeen/ON_Semiconductor/PACK/ONSemiconductor/RSL10/3.7.606/lib/ble_core/Release/libblelib.a(lld_evt.o)
                0x0010bee8                lld_evt_schedule_next
 .text.lld_evt_scan_create
                0x0010c094       0x88 C:/Users/xeeen/ON_Semiconductor/PACK/ONSemiconductor/RSL10/3.7.606/lib/ble_core/Release/libblelib.a(lld_evt.o)
                0x0010c094                lld_evt_scan_create
 .text.lld_evt_move_to_master
                0x0010c11c      0x170 C:/Users/xeeen/ON_Semiconductor/PACK/ONSemiconductor/RSL10/3.7.606/lib/ble_core/Release/libblelib.a(lld_evt.o)
                0x0010c11c                lld_evt_move_to_master
 .text.lld_evt_update_create
                0x0010c28c      0x12e C:/Users/xeeen/ON_Semiconductor/PACK/ONSemiconductor/RSL10/3.7.606/lib/ble_core/Release/libblelib.a(lld_evt.o)
                0x0010c28c                lld_evt_update_create
 *fill*         0x0010c3ba        0x2 
 .text.lld_evt_move_to_slave
                0x0010c3bc      0x348 C:/Users/xeeen/ON_Semiconductor/PACK/ONSemiconductor/RSL10/3.7.606/lib/ble_core/Release/libblelib.a(lld_evt.o)
                0x0010c3bc                lld_evt_move_to_slave
 .text.lld_evt_slave_update
                0x0010c704      0x158 C:/Users/xeeen/ON_Semiconductor/PACK/ONSemiconductor/RSL10/3.7.606/lib/ble_core/Release/libblelib.a(lld_evt.o)
                0x0010c704                lld_evt_slave_update
 .text.lld_evt_adv_create
                0x0010c85c       0x84 C:/Users/xeeen/ON_Semiconductor/PACK/ONSemiconductor/RSL10/3.7.606/lib/ble_core/Release/libblelib.a(lld_evt.o)
                0x0010c85c                lld_evt_adv_create
 .text.lld_evt_end
                0x0010c8e0      0x280 C:/Users/xeeen/ON_Semiconductor/PACK/ONSemiconductor/RSL10/3.7.606/lib/ble_core/Release/libblelib.a(lld_evt.o)
                0x0010c8e0                lld_evt_end
 .text.lld_evt_rx
                0x0010cb60       0x5c C:/Users/xeeen/ON_Semiconductor/PACK/ONSemiconductor/RSL10/3.7.606/lib/ble_core/Release/libblelib.a(lld_evt.o)
                0x0010cb60                lld_evt_rx
 .text.lld_evt_end_isr
                0x0010cbbc       0x4c C:/Users/xeeen/ON_Semiconductor/PACK/ONSemiconductor/RSL10/3.7.606/lib/ble_core/Release/libblelib.a(lld_evt.o)
                0x0010cbbc                lld_evt_end_isr
 .text.lld_evt_rx_isr
                0x0010cc08       0x10 C:/Users/xeeen/ON_Semiconductor/PACK/ONSemiconductor/RSL10/3.7.606/lib/ble_core/Release/libblelib.a(lld_evt.o)
                0x0010cc08                lld_evt_rx_isr
 .text.lld_evt_set_power_save
                0x0010cc18       0x10 C:/Users/xeeen/ON_Semiconductor/PACK/ONSemiconductor/RSL10/3.7.606/lib/ble_core/Release/libblelib.a(lld_evt.o)
                0x0010cc18                lld_evt_set_power_save
 .text.lld_pdu_llcp_con_param_req_unpk
                0x0010cc28       0xcc C:/Users/xeeen/ON_Semiconductor/PACK/ONSemiconductor/RSL10/3.7.606/lib/ble_core/Release/libblelib.a(lld_pdu.o)
 .text.lld_pdu_llcp_con_param_rsp_unpk
                0x0010ccf4       0xcc C:/Users/xeeen/ON_Semiconductor/PACK/ONSemiconductor/RSL10/3.7.606/lib/ble_core/Release/libblelib.a(lld_pdu.o)
 .text.lld_pdu_llcp_length_req_unpk
                0x0010cdc0       0x3e C:/Users/xeeen/ON_Semiconductor/PACK/ONSemiconductor/RSL10/3.7.606/lib/ble_core/Release/libblelib.a(lld_pdu.o)
 .text.lld_pdu_llcp_length_rsp_unpk
                0x0010cdfe       0x3e C:/Users/xeeen/ON_Semiconductor/PACK/ONSemiconductor/RSL10/3.7.606/lib/ble_core/Release/libblelib.a(lld_pdu.o)
 .text.lld_pdu_llcp_phy_upd_req_unpk
                0x0010ce3c       0x2e C:/Users/xeeen/ON_Semiconductor/PACK/ONSemiconductor/RSL10/3.7.606/lib/ble_core/Release/libblelib.a(lld_pdu.o)
 .text.lld_pdu_pack
                0x0010ce6a       0xba C:/Users/xeeen/ON_Semiconductor/PACK/ONSemiconductor/RSL10/3.7.606/lib/ble_core/Release/libblelib.a(lld_pdu.o)
 .text.lld_pdu_tx_flush_list
                0x0010cf24       0x98 C:/Users/xeeen/ON_Semiconductor/PACK/ONSemiconductor/RSL10/3.7.606/lib/ble_core/Release/libblelib.a(lld_pdu.o)
 .text.lld_pdu_cntl_aligned_unpk
                0x0010cfbc       0x16 C:/Users/xeeen/ON_Semiconductor/PACK/ONSemiconductor/RSL10/3.7.606/lib/ble_core/Release/libblelib.a(lld_pdu.o)
 *fill*         0x0010cfd2        0x2 
 .text.lld_pdu_check
                0x0010cfd4      0x1f0 C:/Users/xeeen/ON_Semiconductor/PACK/ONSemiconductor/RSL10/3.7.606/lib/ble_core/Release/libblelib.a(lld_pdu.o)
                0x0010cfd4                lld_pdu_check
 .text.lld_pdu_tx_loop
                0x0010d1c4       0x38 C:/Users/xeeen/ON_Semiconductor/PACK/ONSemiconductor/RSL10/3.7.606/lib/ble_core/Release/libblelib.a(lld_pdu.o)
                0x0010d1c4                lld_pdu_tx_loop
 .text.lld_pdu_data_tx_push
                0x0010d1fc       0x78 C:/Users/xeeen/ON_Semiconductor/PACK/ONSemiconductor/RSL10/3.7.606/lib/ble_core/Release/libblelib.a(lld_pdu.o)
                0x0010d1fc                lld_pdu_data_tx_push
 .text.lld_pdu_data_send
                0x0010d274       0x58 C:/Users/xeeen/ON_Semiconductor/PACK/ONSemiconductor/RSL10/3.7.606/lib/ble_core/Release/libblelib.a(lld_pdu.o)
                0x0010d274                lld_pdu_data_send
 .text.lld_pdu_tx_push
                0x0010d2cc       0x48 C:/Users/xeeen/ON_Semiconductor/PACK/ONSemiconductor/RSL10/3.7.606/lib/ble_core/Release/libblelib.a(lld_pdu.o)
                0x0010d2cc                lld_pdu_tx_push
 .text.lld_pdu_tx_prog
                0x0010d314      0x42c C:/Users/xeeen/ON_Semiconductor/PACK/ONSemiconductor/RSL10/3.7.606/lib/ble_core/Release/libblelib.a(lld_pdu.o)
                0x0010d314                lld_pdu_tx_prog
 .text.lld_pdu_tx_flush
                0x0010d740       0x7c C:/Users/xeeen/ON_Semiconductor/PACK/ONSemiconductor/RSL10/3.7.606/lib/ble_core/Release/libblelib.a(lld_pdu.o)
                0x0010d740                lld_pdu_tx_flush
 .text.lld_pdu_adv_pack
                0x0010d7bc       0x24 C:/Users/xeeen/ON_Semiconductor/PACK/ONSemiconductor/RSL10/3.7.606/lib/ble_core/Release/libblelib.a(lld_pdu.o)
                0x0010d7bc                lld_pdu_adv_pack
 .text.lld_pdu_rx_handler
                0x0010d7e0      0x308 C:/Users/xeeen/ON_Semiconductor/PACK/ONSemiconductor/RSL10/3.7.606/lib/ble_core/Release/libblelib.a(lld_pdu.o)
                0x0010d7e0                lld_pdu_rx_handler
 .text.lld_sleep_init
                0x0010dae8       0x44 C:/Users/xeeen/ON_Semiconductor/PACK/ONSemiconductor/RSL10/3.7.606/lib/ble_core/Release/libblelib.a(lld_sleep.o)
                0x0010dae8                lld_sleep_init
 .text.lld_sleep_wakeup
                0x0010db2c       0x78 C:/Users/xeeen/ON_Semiconductor/PACK/ONSemiconductor/RSL10/3.7.606/lib/ble_core/Release/libblelib.a(lld_sleep.o)
                0x0010db2c                lld_sleep_wakeup
 .text.lld_sleep_wakeup_end
                0x0010dba4       0x20 C:/Users/xeeen/ON_Semiconductor/PACK/ONSemiconductor/RSL10/3.7.606/lib/ble_core/Release/libblelib.a(lld_sleep.o)
                0x0010dba4                lld_sleep_wakeup_end
 .text.lld_util_instant_get
                0x0010dbc4       0x18 C:/Users/xeeen/ON_Semiconductor/PACK/ONSemiconductor/RSL10/3.7.606/lib/ble_core/Release/libblelib.a(lld_util.o)
                0x0010dbc4                lld_util_instant_get
 .text.lld_util_set_bd_address
                0x0010dbdc       0x30 C:/Users/xeeen/ON_Semiconductor/PACK/ONSemiconductor/RSL10/3.7.606/lib/ble_core/Release/libblelib.a(lld_util.o)
                0x0010dbdc                lld_util_set_bd_address
 .text.lld_util_ral_force_rpa_renew
                0x0010dc0c       0x44 C:/Users/xeeen/ON_Semiconductor/PACK/ONSemiconductor/RSL10/3.7.606/lib/ble_core/Release/libblelib.a(lld_util.o)
                0x0010dc0c                lld_util_ral_force_rpa_renew
 .text.lld_util_freq2chnl
                0x0010dc50       0x20 C:/Users/xeeen/ON_Semiconductor/PACK/ONSemiconductor/RSL10/3.7.606/lib/ble_core/Release/libblelib.a(lld_util.o)
                0x0010dc50                lld_util_freq2chnl
 .text.lld_util_get_local_offset
                0x0010dc70       0x16 C:/Users/xeeen/ON_Semiconductor/PACK/ONSemiconductor/RSL10/3.7.606/lib/ble_core/Release/libblelib.a(lld_util.o)
                0x0010dc70                lld_util_get_local_offset
 .text.lld_util_get_peer_offset
                0x0010dc86       0x18 C:/Users/xeeen/ON_Semiconductor/PACK/ONSemiconductor/RSL10/3.7.606/lib/ble_core/Release/libblelib.a(lld_util.o)
                0x0010dc86                lld_util_get_peer_offset
 .text.lld_util_connection_param_set
                0x0010dc9e       0x44 C:/Users/xeeen/ON_Semiconductor/PACK/ONSemiconductor/RSL10/3.7.606/lib/ble_core/Release/libblelib.a(lld_util.o)
                0x0010dc9e                lld_util_connection_param_set
 *fill*         0x0010dce2        0x2 
 .text.lld_util_dle_set_cs_fields
                0x0010dce4       0x18 C:/Users/xeeen/ON_Semiconductor/PACK/ONSemiconductor/RSL10/3.7.606/lib/ble_core/Release/libblelib.a(lld_util.o)
                0x0010dce4                lld_util_dle_set_cs_fields
 .text.lld_util_anchor_point_move
                0x0010dcfc       0xe0 C:/Users/xeeen/ON_Semiconductor/PACK/ONSemiconductor/RSL10/3.7.606/lib/ble_core/Release/libblelib.a(lld_util.o)
                0x0010dcfc                lld_util_anchor_point_move
 .text.lld_util_flush_list
                0x0010dddc       0x14 C:/Users/xeeen/ON_Semiconductor/PACK/ONSemiconductor/RSL10/3.7.606/lib/ble_core/Release/libblelib.a(lld_util.o)
                0x0010dddc                lld_util_flush_list
 .text.lld_util_instant_ongoing
                0x0010ddf0        0xc C:/Users/xeeen/ON_Semiconductor/PACK/ONSemiconductor/RSL10/3.7.606/lib/ble_core/Release/libblelib.a(lld_util.o)
                0x0010ddf0                lld_util_instant_ongoing
 .text.lld_util_compute_ce_max
                0x0010ddfc       0xac C:/Users/xeeen/ON_Semiconductor/PACK/ONSemiconductor/RSL10/3.7.606/lib/ble_core/Release/libblelib.a(lld_util.o)
                0x0010ddfc                lld_util_compute_ce_max
 .text.lld_util_priority_set
                0x0010dea8       0x48 C:/Users/xeeen/ON_Semiconductor/PACK/ONSemiconductor/RSL10/3.7.606/lib/ble_core/Release/libblelib.a(lld_util.o)
                0x0010dea8                lld_util_priority_set
 .text.lld_util_get_tx_pkt_cnt
                0x0010def0        0x6 C:/Users/xeeen/ON_Semiconductor/PACK/ONSemiconductor/RSL10/3.7.606/lib/ble_core/Release/libblelib.a(lld_util.o)
                0x0010def0                lld_util_get_tx_pkt_cnt
 *fill*         0x0010def6        0x2 
 .text.lld_util_get_phys
                0x0010def8       0x34 C:/Users/xeeen/ON_Semiconductor/PACK/ONSemiconductor/RSL10/3.7.606/lib/ble_core/Release/libblelib.a(lld_util.o)
                0x0010def8                lld_util_get_phys
 .text.lld_util_phy_update_ind
                0x0010df2c       0x74 C:/Users/xeeen/ON_Semiconductor/PACK/ONSemiconductor/RSL10/3.7.606/lib/ble_core/Release/libblelib.a(lld_util.o)
                0x0010df2c                lld_util_phy_update_ind
 .text.lld_util_phy_update_req
                0x0010dfa0       0x68 C:/Users/xeeen/ON_Semiconductor/PACK/ONSemiconductor/RSL10/3.7.606/lib/ble_core/Release/libblelib.a(lld_util.o)
                0x0010dfa0                lld_util_phy_update_req
 .text.lld_util_max_rx_size_and_time_set
                0x0010e008       0x44 C:/Users/xeeen/ON_Semiconductor/PACK/ONSemiconductor/RSL10/3.7.606/lib/ble_core/Release/libblelib.a(lld_util.o)
                0x0010e008                lld_util_max_rx_size_and_time_set
 .text.lld_util_pref_slave_latency_set
                0x0010e04c       0x58 C:/Users/xeeen/ON_Semiconductor/PACK/ONSemiconductor/RSL10/3.7.606/lib/ble_core/Release/libblelib.a(lld_util.o)
                0x0010e04c                lld_util_pref_slave_latency_set
 .text.lld_util_eff_tx_time_set
                0x0010e0a4        0xa C:/Users/xeeen/ON_Semiconductor/PACK/ONSemiconductor/RSL10/3.7.606/lib/ble_core/Release/libblelib.a(lld_util.o)
                0x0010e0a4                lld_util_eff_tx_time_set
 *fill*         0x0010e0ae        0x2 
 .text.lld_util_max_lat_compute
                0x0010e0b0       0x80 C:/Users/xeeen/ON_Semiconductor/PACK/ONSemiconductor/RSL10/3.7.606/lib/ble_core/Release/libblelib.a(lld_util.o)
                0x0010e0b0                lld_util_max_lat_compute
 .text.lld_wlcoex_set
                0x0010e130       0x1c C:/Users/xeeen/ON_Semiconductor/PACK/ONSemiconductor/RSL10/3.7.606/lib/ble_core/Release/libblelib.a(lld_wlcoex.o)
                0x0010e130                lld_wlcoex_set
 .text.llc_init
                0x0010e14c       0x38 C:/Users/xeeen/ON_Semiconductor/PACK/ONSemiconductor/RSL10/3.7.606/lib/ble_core/Release/libblelib.a(llc.o)
                0x0010e14c                llc_init
 .text.llc_stop
                0x0010e184       0x54 C:/Users/xeeen/ON_Semiconductor/PACK/ONSemiconductor/RSL10/3.7.606/lib/ble_core/Release/libblelib.a(llc.o)
                0x0010e184                llc_stop
 .text.llc_reset
                0x0010e1d8       0x26 C:/Users/xeeen/ON_Semiconductor/PACK/ONSemiconductor/RSL10/3.7.606/lib/ble_core/Release/libblelib.a(llc.o)
                0x0010e1d8                llc_reset
 .text.llc_discon_event_complete_send
                0x0010e1fe       0x24 C:/Users/xeeen/ON_Semiconductor/PACK/ONSemiconductor/RSL10/3.7.606/lib/ble_core/Release/libblelib.a(llc.o)
                0x0010e1fe                llc_discon_event_complete_send
 *fill*         0x0010e222        0x2 
 .text.llc_le_con_cmp_evt_send
                0x0010e224      0x248 C:/Users/xeeen/ON_Semiconductor/PACK/ONSemiconductor/RSL10/3.7.606/lib/ble_core/Release/libblelib.a(llc.o)
                0x0010e224                llc_le_con_cmp_evt_send
 .text.llc_start
                0x0010e46c      0x15c C:/Users/xeeen/ON_Semiconductor/PACK/ONSemiconductor/RSL10/3.7.606/lib/ble_core/Release/libblelib.a(llc.o)
                0x0010e46c                llc_start
 .text.llc_con_update_complete_send
                0x0010e5c8       0x60 C:/Users/xeeen/ON_Semiconductor/PACK/ONSemiconductor/RSL10/3.7.606/lib/ble_core/Release/libblelib.a(llc.o)
                0x0010e5c8                llc_con_update_complete_send
 .text.llc_ltk_req_send
                0x0010e628       0x34 C:/Users/xeeen/ON_Semiconductor/PACK/ONSemiconductor/RSL10/3.7.606/lib/ble_core/Release/libblelib.a(llc.o)
                0x0010e628                llc_ltk_req_send
 .text.llc_feats_rd_event_send
                0x0010e65c       0x38 C:/Users/xeeen/ON_Semiconductor/PACK/ONSemiconductor/RSL10/3.7.606/lib/ble_core/Release/libblelib.a(llc.o)
                0x0010e65c                llc_feats_rd_event_send
 .text.llc_version_rd_event_send
                0x0010e694       0x3c C:/Users/xeeen/ON_Semiconductor/PACK/ONSemiconductor/RSL10/3.7.606/lib/ble_core/Release/libblelib.a(llc.o)
                0x0010e694                llc_version_rd_event_send
 .text.llc_common_cmd_complete_send
                0x0010e6d0       0x20 C:/Users/xeeen/ON_Semiconductor/PACK/ONSemiconductor/RSL10/3.7.606/lib/ble_core/Release/libblelib.a(llc.o)
                0x0010e6d0                llc_common_cmd_complete_send
 .text.llc_common_cmd_status_send
                0x0010e6f0       0x1c C:/Users/xeeen/ON_Semiconductor/PACK/ONSemiconductor/RSL10/3.7.606/lib/ble_core/Release/libblelib.a(llc.o)
                0x0010e6f0                llc_common_cmd_status_send
 .text.llc_common_enc_key_ref_comp_evt_send
                0x0010e70c       0x20 C:/Users/xeeen/ON_Semiconductor/PACK/ONSemiconductor/RSL10/3.7.606/lib/ble_core/Release/libblelib.a(llc.o)
                0x0010e70c                llc_common_enc_key_ref_comp_evt_send
 .text.llc_common_enc_change_evt_send
                0x0010e72c       0x78 C:/Users/xeeen/ON_Semiconductor/PACK/ONSemiconductor/RSL10/3.7.606/lib/ble_core/Release/libblelib.a(llc.o)
                0x0010e72c                llc_common_enc_change_evt_send
 .text.llc_common_nb_of_pkt_comp_evt_send
                0x0010e7a4       0x24 C:/Users/xeeen/ON_Semiconductor/PACK/ONSemiconductor/RSL10/3.7.606/lib/ble_core/Release/libblelib.a(llc.o)
                0x0010e7a4                llc_common_nb_of_pkt_comp_evt_send
 .text.llc_con_update_ind
                0x0010e7c8       0x4c C:/Users/xeeen/ON_Semiconductor/PACK/ONSemiconductor/RSL10/3.7.606/lib/ble_core/Release/libblelib.a(llc.o)
                0x0010e7c8                llc_con_update_ind
 .text.llc_lsto_con_update
                0x0010e814       0x40 C:/Users/xeeen/ON_Semiconductor/PACK/ONSemiconductor/RSL10/3.7.606/lib/ble_core/Release/libblelib.a(llc.o)
                0x0010e814                llc_lsto_con_update
 .text.llc_map_update_ind
                0x0010e854       0x58 C:/Users/xeeen/ON_Semiconductor/PACK/ONSemiconductor/RSL10/3.7.606/lib/ble_core/Release/libblelib.a(llc.o)
                0x0010e854                llc_map_update_ind
 .text.llc_con_update_finished
                0x0010e8ac       0x84 C:/Users/xeeen/ON_Semiconductor/PACK/ONSemiconductor/RSL10/3.7.606/lib/ble_core/Release/libblelib.a(llc.o)
                0x0010e8ac                llc_con_update_finished
 .text.llc_map_update_finished
                0x0010e930       0x7c C:/Users/xeeen/ON_Semiconductor/PACK/ONSemiconductor/RSL10/3.7.606/lib/ble_core/Release/libblelib.a(llc.o)
                0x0010e930                llc_map_update_finished
 .text.llc_phy_update_complete_send
                0x0010e9ac       0x2e C:/Users/xeeen/ON_Semiconductor/PACK/ONSemiconductor/RSL10/3.7.606/lib/ble_core/Release/libblelib.a(llc.o)
                0x0010e9ac                llc_phy_update_complete_send
 *fill*         0x0010e9da        0x2 
 .text.llc_phy_update_finished
                0x0010e9dc       0xb8 C:/Users/xeeen/ON_Semiconductor/PACK/ONSemiconductor/RSL10/3.7.606/lib/ble_core/Release/libblelib.a(llc.o)
                0x0010e9dc                llc_phy_update_finished
 .text.llc_allocate_env
                0x0010ea94       0x34 C:/Users/xeeen/ON_Semiconductor/PACK/ONSemiconductor/RSL10/3.7.606/lib/ble_core/Release/libblelib.a(llc.o)
                0x0010ea94                llc_allocate_env
 .text.llc_end_procedure_with_instant
                0x0010eac8       0x78 C:/Users/xeeen/ON_Semiconductor/PACK/ONSemiconductor/RSL10/3.7.606/lib/ble_core/Release/libblelib.a(llc.o)
                0x0010eac8                llc_end_procedure_with_instant
 .text.llc_llcp_send
                0x0010eb40       0x80 C:/Users/xeeen/ON_Semiconductor/PACK/ONSemiconductor/RSL10/3.7.606/lib/ble_core/Release/libblelib.a(llc_llcp.o)
 .text.llcp_ping_rsp_handler
                0x0010ebc0       0x54 C:/Users/xeeen/ON_Semiconductor/PACK/ONSemiconductor/RSL10/3.7.606/lib/ble_core/Release/libblelib.a(llc_llcp.o)
 .text.llcp_enc_rsp_handler
                0x0010ec14       0xe0 C:/Users/xeeen/ON_Semiconductor/PACK/ONSemiconductor/RSL10/3.7.606/lib/ble_core/Release/libblelib.a(llc_llcp.o)
 .text.llcp_terminate_ind_handler
                0x0010ecf4       0x4c C:/Users/xeeen/ON_Semiconductor/PACK/ONSemiconductor/RSL10/3.7.606/lib/ble_core/Release/libblelib.a(llc_llcp.o)
 .text.llc_llcp_reject_ind
                0x0010ed40      0x23c C:/Users/xeeen/ON_Semiconductor/PACK/ONSemiconductor/RSL10/3.7.606/lib/ble_core/Release/libblelib.a(llc_llcp.o)
 .text.llcp_reject_ind_ext_handler
                0x0010ef7c       0x10 C:/Users/xeeen/ON_Semiconductor/PACK/ONSemiconductor/RSL10/3.7.606/lib/ble_core/Release/libblelib.a(llc_llcp.o)
 .text.llcp_reject_ind_handler
                0x0010ef8c       0x10 C:/Users/xeeen/ON_Semiconductor/PACK/ONSemiconductor/RSL10/3.7.606/lib/ble_core/Release/libblelib.a(llc_llcp.o)
 .text.llcp_pause_enc_req_handler
                0x0010ef9c       0xbc C:/Users/xeeen/ON_Semiconductor/PACK/ONSemiconductor/RSL10/3.7.606/lib/ble_core/Release/libblelib.a(llc_llcp.o)
 .text.llcp_start_enc_req_handler
                0x0010f058       0x68 C:/Users/xeeen/ON_Semiconductor/PACK/ONSemiconductor/RSL10/3.7.606/lib/ble_core/Release/libblelib.a(llc_llcp.o)
 .text.llcp_enc_req_handler
                0x0010f0c0       0xcc C:/Users/xeeen/ON_Semiconductor/PACK/ONSemiconductor/RSL10/3.7.606/lib/ble_core/Release/libblelib.a(llc_llcp.o)
 .text.llcp_unknown_rsp_handler
                0x0010f18c      0x23c C:/Users/xeeen/ON_Semiconductor/PACK/ONSemiconductor/RSL10/3.7.606/lib/ble_core/Release/libblelib.a(llc_llcp.o)
 .text.llc_llcp_version_ind_pdu_send
                0x0010f3c8       0x2a C:/Users/xeeen/ON_Semiconductor/PACK/ONSemiconductor/RSL10/3.7.606/lib/ble_core/Release/libblelib.a(llc_llcp.o)
                0x0010f3c8                llc_llcp_version_ind_pdu_send
 *fill*         0x0010f3f2        0x2 
 .text.llcp_vers_ind_handler
                0x0010f3f4       0x98 C:/Users/xeeen/ON_Semiconductor/PACK/ONSemiconductor/RSL10/3.7.606/lib/ble_core/Release/libblelib.a(llc_llcp.o)
 .text.llc_llcp_ch_map_update_pdu_send
                0x0010f48c       0x44 C:/Users/xeeen/ON_Semiconductor/PACK/ONSemiconductor/RSL10/3.7.606/lib/ble_core/Release/libblelib.a(llc_llcp.o)
                0x0010f48c                llc_llcp_ch_map_update_pdu_send
 .text.llc_llcp_pause_enc_req_pdu_send
                0x0010f4d0       0x30 C:/Users/xeeen/ON_Semiconductor/PACK/ONSemiconductor/RSL10/3.7.606/lib/ble_core/Release/libblelib.a(llc_llcp.o)
                0x0010f4d0                llc_llcp_pause_enc_req_pdu_send
 .text.llc_llcp_pause_enc_rsp_pdu_send
                0x0010f500       0x40 C:/Users/xeeen/ON_Semiconductor/PACK/ONSemiconductor/RSL10/3.7.606/lib/ble_core/Release/libblelib.a(llc_llcp.o)
                0x0010f500                llc_llcp_pause_enc_rsp_pdu_send
 .text.llcp_pause_enc_rsp_handler
                0x0010f540       0xd4 C:/Users/xeeen/ON_Semiconductor/PACK/ONSemiconductor/RSL10/3.7.606/lib/ble_core/Release/libblelib.a(llc_llcp.o)
 .text.llc_llcp_enc_req_pdu_send
                0x0010f614       0xcc C:/Users/xeeen/ON_Semiconductor/PACK/ONSemiconductor/RSL10/3.7.606/lib/ble_core/Release/libblelib.a(llc_llcp.o)
                0x0010f614                llc_llcp_enc_req_pdu_send
 .text.llc_llcp_enc_rsp_pdu_send
                0x0010f6e0       0x5c C:/Users/xeeen/ON_Semiconductor/PACK/ONSemiconductor/RSL10/3.7.606/lib/ble_core/Release/libblelib.a(llc_llcp.o)
                0x0010f6e0                llc_llcp_enc_rsp_pdu_send
 .text.llc_llcp_start_enc_rsp_pdu_send
                0x0010f73c       0x16 C:/Users/xeeen/ON_Semiconductor/PACK/ONSemiconductor/RSL10/3.7.606/lib/ble_core/Release/libblelib.a(llc_llcp.o)
                0x0010f73c                llc_llcp_start_enc_rsp_pdu_send
 *fill*         0x0010f752        0x2 
 .text.llcp_start_enc_rsp_handler
                0x0010f754      0x124 C:/Users/xeeen/ON_Semiconductor/PACK/ONSemiconductor/RSL10/3.7.606/lib/ble_core/Release/libblelib.a(llc_llcp.o)
 .text.llc_llcp_reject_ind_pdu_send
                0x0010f878       0x5c C:/Users/xeeen/ON_Semiconductor/PACK/ONSemiconductor/RSL10/3.7.606/lib/ble_core/Release/libblelib.a(llc_llcp.o)
                0x0010f878                llc_llcp_reject_ind_pdu_send
 .text.llcp_phy_upd_ind_handler
                0x0010f8d4      0x1e4 C:/Users/xeeen/ON_Semiconductor/PACK/ONSemiconductor/RSL10/3.7.606/lib/ble_core/Release/libblelib.a(llc_llcp.o)
 .text.llcp_phy_rsp_handler
                0x0010fab8       0x7c C:/Users/xeeen/ON_Semiconductor/PACK/ONSemiconductor/RSL10/3.7.606/lib/ble_core/Release/libblelib.a(llc_llcp.o)
 .text.llcp_length_rsp_handler
                0x0010fb34      0x17c C:/Users/xeeen/ON_Semiconductor/PACK/ONSemiconductor/RSL10/3.7.606/lib/ble_core/Release/libblelib.a(llc_llcp.o)
 .text.llcp_con_param_rsp_handler
                0x0010fcb0       0xf0 C:/Users/xeeen/ON_Semiconductor/PACK/ONSemiconductor/RSL10/3.7.606/lib/ble_core/Release/libblelib.a(llc_llcp.o)
 .text.llcp_feats_rsp_handler
                0x0010fda0       0xa4 C:/Users/xeeen/ON_Semiconductor/PACK/ONSemiconductor/RSL10/3.7.606/lib/ble_core/Release/libblelib.a(llc_llcp.o)
 .text.llcp_channel_map_ind_handler
                0x0010fe44      0x154 C:/Users/xeeen/ON_Semiconductor/PACK/ONSemiconductor/RSL10/3.7.606/lib/ble_core/Release/libblelib.a(llc_llcp.o)
 .text.llcp_con_upd_ind_handler
                0x0010ff98      0x1e4 C:/Users/xeeen/ON_Semiconductor/PACK/ONSemiconductor/RSL10/3.7.606/lib/ble_core/Release/libblelib.a(llc_llcp.o)
 .text.llc_llcp_con_update_pdu_send
                0x0011017c       0x3a C:/Users/xeeen/ON_Semiconductor/PACK/ONSemiconductor/RSL10/3.7.606/lib/ble_core/Release/libblelib.a(llc_llcp.o)
                0x0011017c                llc_llcp_con_update_pdu_send
 *fill*         0x001101b6        0x2 
 .text.llc_llcp_con_param_req_pdu_send
                0x001101b8       0x94 C:/Users/xeeen/ON_Semiconductor/PACK/ONSemiconductor/RSL10/3.7.606/lib/ble_core/Release/libblelib.a(llc_llcp.o)
                0x001101b8                llc_llcp_con_param_req_pdu_send
 .text.llc_llcp_con_param_rsp_pdu_send
                0x0011024c       0x60 C:/Users/xeeen/ON_Semiconductor/PACK/ONSemiconductor/RSL10/3.7.606/lib/ble_core/Release/libblelib.a(llc_llcp.o)
                0x0011024c                llc_llcp_con_param_rsp_pdu_send
 .text.llcp_con_param_req_handler
                0x001102ac      0x444 C:/Users/xeeen/ON_Semiconductor/PACK/ONSemiconductor/RSL10/3.7.606/lib/ble_core/Release/libblelib.a(llc_llcp.o)
 .text.llc_llcp_feats_req_pdu_send
                0x001106f0       0x38 C:/Users/xeeen/ON_Semiconductor/PACK/ONSemiconductor/RSL10/3.7.606/lib/ble_core/Release/libblelib.a(llc_llcp.o)
                0x001106f0                llc_llcp_feats_req_pdu_send
 .text.llc_llcp_feats_rsp_pdu_send
                0x00110728       0x2e C:/Users/xeeen/ON_Semiconductor/PACK/ONSemiconductor/RSL10/3.7.606/lib/ble_core/Release/libblelib.a(llc_llcp.o)
                0x00110728                llc_llcp_feats_rsp_pdu_send
 *fill*         0x00110756        0x2 
 .text.llcp_slave_feature_req_handler
                0x00110758       0x54 C:/Users/xeeen/ON_Semiconductor/PACK/ONSemiconductor/RSL10/3.7.606/lib/ble_core/Release/libblelib.a(llc_llcp.o)
 .text.llcp_feats_req_handler
                0x001107ac       0x64 C:/Users/xeeen/ON_Semiconductor/PACK/ONSemiconductor/RSL10/3.7.606/lib/ble_core/Release/libblelib.a(llc_llcp.o)
 .text.llc_llcp_start_enc_req_pdu_send
                0x00110810       0x16 C:/Users/xeeen/ON_Semiconductor/PACK/ONSemiconductor/RSL10/3.7.606/lib/ble_core/Release/libblelib.a(llc_llcp.o)
                0x00110810                llc_llcp_start_enc_req_pdu_send
 *fill*         0x00110826        0x2 
 .text.llc_llcp_terminate_ind_pdu_send
                0x00110828       0x60 C:/Users/xeeen/ON_Semiconductor/PACK/ONSemiconductor/RSL10/3.7.606/lib/ble_core/Release/libblelib.a(llc_llcp.o)
                0x00110828                llc_llcp_terminate_ind_pdu_send
 .text.llc_llcp_unknown_rsp_send_pdu
                0x00110888       0x1a C:/Users/xeeen/ON_Semiconductor/PACK/ONSemiconductor/RSL10/3.7.606/lib/ble_core/Release/libblelib.a(llc_llcp.o)
                0x00110888                llc_llcp_unknown_rsp_send_pdu
 .text.llc_llcp_ping_req_pdu_send
                0x001108a2       0x16 C:/Users/xeeen/ON_Semiconductor/PACK/ONSemiconductor/RSL10/3.7.606/lib/ble_core/Release/libblelib.a(llc_llcp.o)
                0x001108a2                llc_llcp_ping_req_pdu_send
 .text.llc_llcp_ping_rsp_pdu_send
                0x001108b8       0x16 C:/Users/xeeen/ON_Semiconductor/PACK/ONSemiconductor/RSL10/3.7.606/lib/ble_core/Release/libblelib.a(llc_llcp.o)
                0x001108b8                llc_llcp_ping_rsp_pdu_send
 *fill*         0x001108ce        0x2 
 .text.llcp_ping_req_handler
                0x001108d0       0x24 C:/Users/xeeen/ON_Semiconductor/PACK/ONSemiconductor/RSL10/3.7.606/lib/ble_core/Release/libblelib.a(llc_llcp.o)
 .text.llc_llcp_length_req_pdu_send
                0x001108f4       0x40 C:/Users/xeeen/ON_Semiconductor/PACK/ONSemiconductor/RSL10/3.7.606/lib/ble_core/Release/libblelib.a(llc_llcp.o)
                0x001108f4                llc_llcp_length_req_pdu_send
 .text.llc_llcp_length_rsp_pdu_send
                0x00110934       0x40 C:/Users/xeeen/ON_Semiconductor/PACK/ONSemiconductor/RSL10/3.7.606/lib/ble_core/Release/libblelib.a(llc_llcp.o)
                0x00110934                llc_llcp_length_rsp_pdu_send
 .text.llcp_length_req_handler
                0x00110974      0x150 C:/Users/xeeen/ON_Semiconductor/PACK/ONSemiconductor/RSL10/3.7.606/lib/ble_core/Release/libblelib.a(llc_llcp.o)
 .text.llc_llcp_phy_req_pdu_send
                0x00110ac4       0x22 C:/Users/xeeen/ON_Semiconductor/PACK/ONSemiconductor/RSL10/3.7.606/lib/ble_core/Release/libblelib.a(llc_llcp.o)
                0x00110ac4                llc_llcp_phy_req_pdu_send
 .text.llc_llcp_phy_rsp_pdu_send
                0x00110ae6       0x22 C:/Users/xeeen/ON_Semiconductor/PACK/ONSemiconductor/RSL10/3.7.606/lib/ble_core/Release/libblelib.a(llc_llcp.o)
                0x00110ae6                llc_llcp_phy_rsp_pdu_send
 .text.llcp_phy_req_handler
                0x00110b08      0x1b4 C:/Users/xeeen/ON_Semiconductor/PACK/ONSemiconductor/RSL10/3.7.606/lib/ble_core/Release/libblelib.a(llc_llcp.o)
 .text.llc_llcp_phy_upd_ind_pdu_send
                0x00110cbc       0x28 C:/Users/xeeen/ON_Semiconductor/PACK/ONSemiconductor/RSL10/3.7.606/lib/ble_core/Release/libblelib.a(llc_llcp.o)
                0x00110cbc                llc_llcp_phy_upd_ind_pdu_send
 .text.llc_llcp_recv_handler
                0x00110ce4       0x98 C:/Users/xeeen/ON_Semiconductor/PACK/ONSemiconductor/RSL10/3.7.606/lib/ble_core/Release/libblelib.a(llc_llcp.o)
                0x00110ce4                llc_llcp_recv_handler
 .text.llc_llcp_get_autorize
                0x00110d7c       0x14 C:/Users/xeeen/ON_Semiconductor/PACK/ONSemiconductor/RSL10/3.7.606/lib/ble_core/Release/libblelib.a(llc_llcp.o)
                0x00110d7c                llc_llcp_get_autorize
 .text.llc_dft_handler
                0x00110d90        0x4 C:/Users/xeeen/ON_Semiconductor/PACK/ONSemiconductor/RSL10/3.7.606/lib/ble_core/Release/libblelib.a(llc_task.o)
 .text.llm_enc_ind_handler
                0x00110d94       0xc8 C:/Users/xeeen/ON_Semiconductor/PACK/ONSemiconductor/RSL10/3.7.606/lib/ble_core/Release/libblelib.a(llc_task.o)
 .text.llc_llcp_recv_ind_handler
                0x00110e5c        0xe C:/Users/xeeen/ON_Semiconductor/PACK/ONSemiconductor/RSL10/3.7.606/lib/ble_core/Release/libblelib.a(llc_task.o)
 *fill*         0x00110e6a        0x2 
 .text.llc_phy_upd_req_ind_handler
                0x00110e6c      0x3f0 C:/Users/xeeen/ON_Semiconductor/PACK/ONSemiconductor/RSL10/3.7.606/lib/ble_core/Release/libblelib.a(llc_task.o)
 .text.llc_chmap_update_req_ind_handler
                0x0011125c       0x64 C:/Users/xeeen/ON_Semiconductor/PACK/ONSemiconductor/RSL10/3.7.606/lib/ble_core/Release/libblelib.a(llc_task.o)
 .text.llc_auth_payl_real_to_ind_handler
                0x001112c0       0x5c C:/Users/xeeen/ON_Semiconductor/PACK/ONSemiconductor/RSL10/3.7.606/lib/ble_core/Release/libblelib.a(llc_task.o)
 .text.llc_con_upd_req_ind_handler
                0x0011131c      0x230 C:/Users/xeeen/ON_Semiconductor/PACK/ONSemiconductor/RSL10/3.7.606/lib/ble_core/Release/libblelib.a(llc_task.o)
 .text.llc_length_req_ind_handler
                0x0011154c       0x80 C:/Users/xeeen/ON_Semiconductor/PACK/ONSemiconductor/RSL10/3.7.606/lib/ble_core/Release/libblelib.a(llc_task.o)
 .text.llc_task_random_gen_request
                0x001115cc       0x32 C:/Users/xeeen/ON_Semiconductor/PACK/ONSemiconductor/RSL10/3.7.606/lib/ble_core/Release/libblelib.a(llc_task.o)
 *fill*         0x001115fe        0x2 
 .text.llc_enc_mgt_ind_handler
                0x00111600      0x204 C:/Users/xeeen/ON_Semiconductor/PACK/ONSemiconductor/RSL10/3.7.606/lib/ble_core/Release/libblelib.a(llc_task.o)
 .text.llc_chnl_assess_timer_handler
                0x00111804       0x90 C:/Users/xeeen/ON_Semiconductor/PACK/ONSemiconductor/RSL10/3.7.606/lib/ble_core/Release/libblelib.a(llc_task.o)
 .text.llc_llcp_rsp_to_ind_handler
                0x00111894        0xe C:/Users/xeeen/ON_Semiconductor/PACK/ONSemiconductor/RSL10/3.7.606/lib/ble_core/Release/libblelib.a(llc_task.o)
 .text.llc_link_sup_to_ind_handler
                0x001118a2       0x20 C:/Users/xeeen/ON_Semiconductor/PACK/ONSemiconductor/RSL10/3.7.606/lib/ble_core/Release/libblelib.a(llc_task.o)
 *fill*         0x001118c2        0x2 
 .text.llc_auth_payl_nearly_to_ind_handler
                0x001118c4       0x78 C:/Users/xeeen/ON_Semiconductor/PACK/ONSemiconductor/RSL10/3.7.606/lib/ble_core/Release/libblelib.a(llc_task.o)
 .text.llc_data_ind_handler
                0x0011193c       0x58 C:/Users/xeeen/ON_Semiconductor/PACK/ONSemiconductor/RSL10/3.7.606/lib/ble_core/Release/libblelib.a(llc_task.o)
 .text.lld_stop_ind_handler
                0x00111994      0x124 C:/Users/xeeen/ON_Semiconductor/PACK/ONSemiconductor/RSL10/3.7.606/lib/ble_core/Release/libblelib.a(llc_task.o)
 .text.llc_check_trafic_paused
                0x00111ab8       0x54 C:/Users/xeeen/ON_Semiconductor/PACK/ONSemiconductor/RSL10/3.7.606/lib/ble_core/Release/libblelib.a(llc_util.o)
 .text.llc_util_get_free_conhdl
                0x00111b0c       0x32 C:/Users/xeeen/ON_Semiconductor/PACK/ONSemiconductor/RSL10/3.7.606/lib/ble_core/Release/libblelib.a(llc_util.o)
                0x00111b0c                llc_util_get_free_conhdl
 .text.llc_util_free_allocated_conhdl
                0x00111b3e       0x2e C:/Users/xeeen/ON_Semiconductor/PACK/ONSemiconductor/RSL10/3.7.606/lib/ble_core/Release/libblelib.a(llc_util.o)
                0x00111b3e                llc_util_free_allocated_conhdl
 .text.llc_util_get_nb_active_link
                0x00111b6c       0x28 C:/Users/xeeen/ON_Semiconductor/PACK/ONSemiconductor/RSL10/3.7.606/lib/ble_core/Release/libblelib.a(llc_util.o)
                0x00111b6c                llc_util_get_nb_active_link
 .text.llc_util_dicon_procedure
                0x00111b94       0x48 C:/Users/xeeen/ON_Semiconductor/PACK/ONSemiconductor/RSL10/3.7.606/lib/ble_core/Release/libblelib.a(llc_util.o)
                0x00111b94                llc_util_dicon_procedure
 .text.llc_util_update_channel_map
                0x00111bdc       0x18 C:/Users/xeeen/ON_Semiconductor/PACK/ONSemiconductor/RSL10/3.7.606/lib/ble_core/Release/libblelib.a(llc_util.o)
                0x00111bdc                llc_util_update_channel_map
 .text.llc_util_set_auth_payl_to_margin
                0x00111bf4       0x34 C:/Users/xeeen/ON_Semiconductor/PACK/ONSemiconductor/RSL10/3.7.606/lib/ble_core/Release/libblelib.a(llc_util.o)
                0x00111bf4                llc_util_set_auth_payl_to_margin
 .text.llc_util_clear_operation_ptr
                0x00111c28       0x20 C:/Users/xeeen/ON_Semiconductor/PACK/ONSemiconductor/RSL10/3.7.606/lib/ble_core/Release/libblelib.a(llc_util.o)
                0x00111c28                llc_util_clear_operation_ptr
 .text.llc_util_bw_mgt
                0x00111c48       0xe4 C:/Users/xeeen/ON_Semiconductor/PACK/ONSemiconductor/RSL10/3.7.606/lib/ble_core/Release/libblelib.a(llc_util.o)
                0x00111c48                llc_util_bw_mgt
 .text.llc_end_evt_defer
                0x00111d2c       0x50 C:/Users/xeeen/ON_Semiconductor/PACK/ONSemiconductor/RSL10/3.7.606/lib/ble_core/Release/libblelib.a(llc_util.o)
                0x00111d2c                llc_end_evt_defer
 .text.llc_pdu_llcp_tx_ack_defer
                0x00111d7c       0xe0 C:/Users/xeeen/ON_Semiconductor/PACK/ONSemiconductor/RSL10/3.7.606/lib/ble_core/Release/libblelib.a(llc_util.o)
                0x00111d7c                llc_pdu_llcp_tx_ack_defer
 .text.llc_pdu_acl_tx_ack_defer
                0x00111e5c       0x24 C:/Users/xeeen/ON_Semiconductor/PACK/ONSemiconductor/RSL10/3.7.606/lib/ble_core/Release/libblelib.a(llc_util.o)
                0x00111e5c                llc_pdu_acl_tx_ack_defer
 .text.llc_pdu_defer
                0x00111e80      0x128 C:/Users/xeeen/ON_Semiconductor/PACK/ONSemiconductor/RSL10/3.7.606/lib/ble_core/Release/libblelib.a(llc_util.o)
                0x00111e80                llc_pdu_defer
 .text.llc_start_enc_tx
                0x00111fa8       0x64 C:/Users/xeeen/ON_Semiconductor/PACK/ONSemiconductor/RSL10/3.7.606/lib/ble_core/Release/libblelib.a(llc_util.o)
                0x00111fa8                llc_start_enc_tx
 .text.llc_start_enc_rx
                0x0011200c       0x68 C:/Users/xeeen/ON_Semiconductor/PACK/ONSemiconductor/RSL10/3.7.606/lib/ble_core/Release/libblelib.a(llc_util.o)
                0x0011200c                llc_start_enc_rx
 .text.em_buf_init
                0x00112074       0xf8 C:/Users/xeeen/ON_Semiconductor/PACK/ONSemiconductor/RSL10/3.7.606/lib/ble_core/Release/libblelib.a(em_buf.o)
                0x00112074                em_buf_init
 .text.em_buf_rx_free
                0x0011216c       0x20 C:/Users/xeeen/ON_Semiconductor/PACK/ONSemiconductor/RSL10/3.7.606/lib/ble_core/Release/libblelib.a(em_buf.o)
                0x0011216c                em_buf_rx_free
 .text.em_buf_rx_buff_addr_get
                0x0011218c       0x18 C:/Users/xeeen/ON_Semiconductor/PACK/ONSemiconductor/RSL10/3.7.606/lib/ble_core/Release/libblelib.a(em_buf.o)
                0x0011218c                em_buf_rx_buff_addr_get
 .text.em_buf_tx_free
                0x001121a4       0x6c C:/Users/xeeen/ON_Semiconductor/PACK/ONSemiconductor/RSL10/3.7.606/lib/ble_core/Release/libblelib.a(em_buf.o)
                0x001121a4                em_buf_tx_free
 .text.rwble_hl_init
                0x00112210       0x1e C:/Users/xeeen/ON_Semiconductor/PACK/ONSemiconductor/RSL10/3.7.606/lib/ble_core/Release/libblelib.a(rwble_hl.o)
                0x00112210                rwble_hl_init
 .text.rwble_hl_reset
                0x0011222e       0x1e C:/Users/xeeen/ON_Semiconductor/PACK/ONSemiconductor/RSL10/3.7.606/lib/ble_core/Release/libblelib.a(rwble_hl.o)
                0x0011222e                rwble_hl_reset
 .text.l2cm_l2cap_tx_handler
                0x0011224c       0x48 C:/Users/xeeen/ON_Semiconductor/PACK/ONSemiconductor/RSL10/3.7.606/lib/ble_core/Release/libblelib.a(l2cm.o)
 .text.l2cm_init
                0x00112294       0x38 C:/Users/xeeen/ON_Semiconductor/PACK/ONSemiconductor/RSL10/3.7.606/lib/ble_core/Release/libblelib.a(l2cm.o)
                0x00112294                l2cm_init
 .text.l2cm_create
                0x001122cc        0x4 C:/Users/xeeen/ON_Semiconductor/PACK/ONSemiconductor/RSL10/3.7.606/lib/ble_core/Release/libblelib.a(l2cm.o)
                0x001122cc                l2cm_create
 .text.l2cm_set_link_layer_buff_size
                0x001122d0       0x10 C:/Users/xeeen/ON_Semiconductor/PACK/ONSemiconductor/RSL10/3.7.606/lib/ble_core/Release/libblelib.a(l2cm.o)
                0x001122d0                l2cm_set_link_layer_buff_size
 .text.l2cm_get_nb_buffer_available
                0x001122e0        0xc C:/Users/xeeen/ON_Semiconductor/PACK/ONSemiconductor/RSL10/3.7.606/lib/ble_core/Release/libblelib.a(l2cm.o)
                0x001122e0                l2cm_get_nb_buffer_available
 .text.l2cm_tx_status
                0x001122ec       0x30 C:/Users/xeeen/ON_Semiconductor/PACK/ONSemiconductor/RSL10/3.7.606/lib/ble_core/Release/libblelib.a(l2cm.o)
                0x001122ec                l2cm_tx_status
 .text.l2cm_cleanup
                0x0011231c       0x16 C:/Users/xeeen/ON_Semiconductor/PACK/ONSemiconductor/RSL10/3.7.606/lib/ble_core/Release/libblelib.a(l2cm.o)
                0x0011231c                l2cm_cleanup
 *fill*         0x00112332        0x2 
 .text.l2cc_create
                0x00112334       0x44 C:/Users/xeeen/ON_Semiconductor/PACK/ONSemiconductor/RSL10/3.7.606/lib/ble_core/Release/libblelib.a(l2cc.o)
                0x00112334                l2cc_create
 .text.l2cc_update_state
                0x00112378       0x2a C:/Users/xeeen/ON_Semiconductor/PACK/ONSemiconductor/RSL10/3.7.606/lib/ble_core/Release/libblelib.a(l2cc.o)
                0x00112378                l2cc_update_state
 *fill*         0x001123a2        0x2 
 .text.l2cc_send_complete_evt
                0x001123a4       0x60 C:/Users/xeeen/ON_Semiconductor/PACK/ONSemiconductor/RSL10/3.7.606/lib/ble_core/Release/libblelib.a(l2cc.o)
                0x001123a4                l2cc_send_complete_evt
 .text.l2cc_send_error_evt
                0x00112404       0x2e C:/Users/xeeen/ON_Semiconductor/PACK/ONSemiconductor/RSL10/3.7.606/lib/ble_core/Release/libblelib.a(l2cc.o)
                0x00112404                l2cc_send_error_evt
 *fill*         0x00112432        0x2 
 .text.l2cc_cleanup
                0x00112434       0xb8 C:/Users/xeeen/ON_Semiconductor/PACK/ONSemiconductor/RSL10/3.7.606/lib/ble_core/Release/libblelib.a(l2cc.o)
                0x00112434                l2cc_cleanup
 .text.l2cc_init
                0x001124ec       0x38 C:/Users/xeeen/ON_Semiconductor/PACK/ONSemiconductor/RSL10/3.7.606/lib/ble_core/Release/libblelib.a(l2cc.o)
                0x001124ec                l2cc_init
 .text.l2cc_get_operation
                0x00112524       0x14 C:/Users/xeeen/ON_Semiconductor/PACK/ONSemiconductor/RSL10/3.7.606/lib/ble_core/Release/libblelib.a(l2cc.o)
                0x00112524                l2cc_get_operation
 .text.l2cc_get_operation_ptr
                0x00112538       0x10 C:/Users/xeeen/ON_Semiconductor/PACK/ONSemiconductor/RSL10/3.7.606/lib/ble_core/Release/libblelib.a(l2cc.o)
                0x00112538                l2cc_get_operation_ptr
 .text.l2cc_set_operation_ptr
                0x00112548       0x10 C:/Users/xeeen/ON_Semiconductor/PACK/ONSemiconductor/RSL10/3.7.606/lib/ble_core/Release/libblelib.a(l2cc.o)
                0x00112548                l2cc_set_operation_ptr
 .text.l2cc_data_send
                0x00112558      0x26c C:/Users/xeeen/ON_Semiconductor/PACK/ONSemiconductor/RSL10/3.7.606/lib/ble_core/Release/libblelib.a(l2cc.o)
                0x00112558                l2cc_data_send
 .text.l2cc_lecb_h2l_err
                0x001127c4       0x30 C:/Users/xeeen/ON_Semiconductor/PACK/ONSemiconductor/RSL10/3.7.606/lib/ble_core/Release/libblelib.a(l2cc_lecb.o)
                0x001127c4                l2cc_lecb_h2l_err
 .text.l2cc_lecb_find
                0x001127f4       0x38 C:/Users/xeeen/ON_Semiconductor/PACK/ONSemiconductor/RSL10/3.7.606/lib/ble_core/Release/libblelib.a(l2cc_lecb.o)
                0x001127f4                l2cc_lecb_find
 .text.l2cc_lecb_free
                0x0011282c       0xc4 C:/Users/xeeen/ON_Semiconductor/PACK/ONSemiconductor/RSL10/3.7.606/lib/ble_core/Release/libblelib.a(l2cc_lecb.o)
                0x0011282c                l2cc_lecb_free
 .text.l2cc_lecb_init_disconnect
                0x001128f0       0x36 C:/Users/xeeen/ON_Semiconductor/PACK/ONSemiconductor/RSL10/3.7.606/lib/ble_core/Release/libblelib.a(l2cc_lecb.o)
                0x001128f0                l2cc_lecb_init_disconnect
 .text.l2cc_lecb_send_con_req
                0x00112926       0x56 C:/Users/xeeen/ON_Semiconductor/PACK/ONSemiconductor/RSL10/3.7.606/lib/ble_core/Release/libblelib.a(l2cc_lecb.o)
                0x00112926                l2cc_lecb_send_con_req
 .text.l2cc_lecb_send_con_rsp
                0x0011297c       0x44 C:/Users/xeeen/ON_Semiconductor/PACK/ONSemiconductor/RSL10/3.7.606/lib/ble_core/Release/libblelib.a(l2cc_lecb.o)
                0x0011297c                l2cc_lecb_send_con_rsp
 .text.l2cc_lecb_send_disc_req
                0x001129c0       0x3e C:/Users/xeeen/ON_Semiconductor/PACK/ONSemiconductor/RSL10/3.7.606/lib/ble_core/Release/libblelib.a(l2cc_lecb.o)
                0x001129c0                l2cc_lecb_send_disc_req
 .text.l2cc_lecb_send_disc_rsp
                0x001129fe       0x2a C:/Users/xeeen/ON_Semiconductor/PACK/ONSemiconductor/RSL10/3.7.606/lib/ble_core/Release/libblelib.a(l2cc_lecb.o)
                0x001129fe                l2cc_lecb_send_disc_rsp
 .text.l2cc_lecb_send_credit_add
                0x00112a28       0x2a C:/Users/xeeen/ON_Semiconductor/PACK/ONSemiconductor/RSL10/3.7.606/lib/ble_core/Release/libblelib.a(l2cc_lecb.o)
                0x00112a28                l2cc_lecb_send_credit_add
 *fill*         0x00112a52        0x2 
 .text.l2cc_lecb_pdu_pack
                0x00112a54       0x6c C:/Users/xeeen/ON_Semiconductor/PACK/ONSemiconductor/RSL10/3.7.606/lib/ble_core/Release/libblelib.a(l2cc_pdu.o)
                0x00112a54                l2cc_lecb_pdu_pack
 .text.l2cc_lecb_pdu_unpack
                0x00112ac0       0x7c C:/Users/xeeen/ON_Semiconductor/PACK/ONSemiconductor/RSL10/3.7.606/lib/ble_core/Release/libblelib.a(l2cc_pdu.o)
                0x00112ac0                l2cc_lecb_pdu_unpack
 .text.l2cc_pdu_pack
                0x00112b3c      0x2ac C:/Users/xeeen/ON_Semiconductor/PACK/ONSemiconductor/RSL10/3.7.606/lib/ble_core/Release/libblelib.a(l2cc_pdu.o)
                0x00112b3c                l2cc_pdu_pack
 .text.l2cc_pdu_unpack
                0x00112de8      0x280 C:/Users/xeeen/ON_Semiconductor/PACK/ONSemiconductor/RSL10/3.7.606/lib/ble_core/Release/libblelib.a(l2cc_pdu.o)
                0x00112de8                l2cc_pdu_unpack
 .text.l2cc_pdu_rx_init
                0x00113068       0xb4 C:/Users/xeeen/ON_Semiconductor/PACK/ONSemiconductor/RSL10/3.7.606/lib/ble_core/Release/libblelib.a(l2cc_pdu.o)
                0x00113068                l2cc_pdu_rx_init
 .text.l2cc_pdu_header_check
                0x0011311c      0x274 C:/Users/xeeen/ON_Semiconductor/PACK/ONSemiconductor/RSL10/3.7.606/lib/ble_core/Release/libblelib.a(l2cc_pdu.o)
                0x0011311c                l2cc_pdu_header_check
 .text.l2cc_default_msg_handler
                0x00113390        0x4 C:/Users/xeeen/ON_Semiconductor/PACK/ONSemiconductor/RSL10/3.7.606/lib/ble_core/Release/libblelib.a(l2cc_task.o)
 .text.l2cc_dbg_pdu_send_cmd_handler
                0x00113394       0x36 C:/Users/xeeen/ON_Semiconductor/PACK/ONSemiconductor/RSL10/3.7.606/lib/ble_core/Release/libblelib.a(l2cc_task.o)
 .text.l2cc_pdu_recv_ind_handler
                0x001133ca       0x68 C:/Users/xeeen/ON_Semiconductor/PACK/ONSemiconductor/RSL10/3.7.606/lib/ble_core/Release/libblelib.a(l2cc_task.o)
 *fill*         0x00113432        0x2 
 .text.hci_acl_data_rx_handler
                0x00113434      0x12c C:/Users/xeeen/ON_Semiconductor/PACK/ONSemiconductor/RSL10/3.7.606/lib/ble_core/Release/libblelib.a(l2cc_task.o)
 .text.l2cc_signaling_trans_to_ind_handler
                0x00113560       0x46 C:/Users/xeeen/ON_Semiconductor/PACK/ONSemiconductor/RSL10/3.7.606/lib/ble_core/Release/libblelib.a(l2cc_task.o)
 *fill*         0x001135a6        0x2 
 .text.l2cc_lecb_sdu_send_cmd_handler
                0x001135a8       0x84 C:/Users/xeeen/ON_Semiconductor/PACK/ONSemiconductor/RSL10/3.7.606/lib/ble_core/Release/libblelib.a(l2cc_task.o)
 .text.l2cc_pdu_send_cmd_handler
                0x0011362c       0x58 C:/Users/xeeen/ON_Semiconductor/PACK/ONSemiconductor/RSL10/3.7.606/lib/ble_core/Release/libblelib.a(l2cc_task.o)
 .text.hci_nb_cmp_pkts_evt_handler
                0x00113684       0x60 C:/Users/xeeen/ON_Semiconductor/PACK/ONSemiconductor/RSL10/3.7.606/lib/ble_core/Release/libblelib.a(l2cc_task.o)
 .text.l2cc_lecb_connect_cfm_handler
                0x001136e4      0x14c C:/Users/xeeen/ON_Semiconductor/PACK/ONSemiconductor/RSL10/3.7.606/lib/ble_core/Release/libblelib.a(l2cc_task.o)
 .text.l2cc_process_op
                0x00113830       0x8a C:/Users/xeeen/ON_Semiconductor/PACK/ONSemiconductor/RSL10/3.7.606/lib/ble_core/Release/libblelib.a(l2cc_task.o)
                0x00113830                l2cc_process_op
 .text.l2cc_lecb_disconnect_cmd_handler
                0x001138ba       0x82 C:/Users/xeeen/ON_Semiconductor/PACK/ONSemiconductor/RSL10/3.7.606/lib/ble_core/Release/libblelib.a(l2cc_task.o)
 .text.l2cc_lecb_add_cmd_handler
                0x0011393c       0x82 C:/Users/xeeen/ON_Semiconductor/PACK/ONSemiconductor/RSL10/3.7.606/lib/ble_core/Release/libblelib.a(l2cc_task.o)
 *fill*         0x001139be        0x2 
 .text.l2cc_lecb_connect_cmd_handler
                0x001139c0      0x130 C:/Users/xeeen/ON_Semiconductor/PACK/ONSemiconductor/RSL10/3.7.606/lib/ble_core/Release/libblelib.a(l2cc_task.o)
 .text.l2cc_pdu_alloc
                0x00113af0       0x2a C:/Users/xeeen/ON_Semiconductor/PACK/ONSemiconductor/RSL10/3.7.606/lib/ble_core/Release/libblelib.a(l2cc_task.o)
                0x00113af0                l2cc_pdu_alloc
 .text.l2cc_pdu_send
                0x00113b1a        0x6 C:/Users/xeeen/ON_Semiconductor/PACK/ONSemiconductor/RSL10/3.7.606/lib/ble_core/Release/libblelib.a(l2cc_task.o)
                0x00113b1a                l2cc_pdu_send
 .text.gattm_svc_get_start_hdl
                0x00113b20        0xc C:/Users/xeeen/ON_Semiconductor/PACK/ONSemiconductor/RSL10/3.7.606/lib/ble_core/Release/libblelib.a(gattm.o)
                0x00113b20                gattm_svc_get_start_hdl
 .text.gattm_init
                0x00113b2c       0x24 C:/Users/xeeen/ON_Semiconductor/PACK/ONSemiconductor/RSL10/3.7.606/lib/ble_core/Release/libblelib.a(gattm.o)
                0x00113b2c                gattm_init
 .text.gattm_init_attr
                0x00113b50       0x6c C:/Users/xeeen/ON_Semiconductor/PACK/ONSemiconductor/RSL10/3.7.606/lib/ble_core/Release/libblelib.a(gattm.o)
                0x00113b50                gattm_init_attr
 .text.gattm_create
                0x00113bbc        0x4 C:/Users/xeeen/ON_Semiconductor/PACK/ONSemiconductor/RSL10/3.7.606/lib/ble_core/Release/libblelib.a(gattm.o)
                0x00113bbc                gattm_create
 .text.gattm_cleanup
                0x00113bc0        0x6 C:/Users/xeeen/ON_Semiconductor/PACK/ONSemiconductor/RSL10/3.7.606/lib/ble_core/Release/libblelib.a(gattm.o)
                0x00113bc0                gattm_cleanup
 .text.gattm_default_msg_handler
                0x00113bc6        0x4 C:/Users/xeeen/ON_Semiconductor/PACK/ONSemiconductor/RSL10/3.7.606/lib/ble_core/Release/libblelib.a(gattm_task.o)
 .text.gattm_att_set_value_req_handler
                0x00113bca       0x2e C:/Users/xeeen/ON_Semiconductor/PACK/ONSemiconductor/RSL10/3.7.606/lib/ble_core/Release/libblelib.a(gattm_task.o)
 .text.gattm_att_get_value_req_handler
                0x00113bf8       0x58 C:/Users/xeeen/ON_Semiconductor/PACK/ONSemiconductor/RSL10/3.7.606/lib/ble_core/Release/libblelib.a(gattm_task.o)
 .text.gattm_att_set_permission_req_handler
                0x00113c50       0x2c C:/Users/xeeen/ON_Semiconductor/PACK/ONSemiconductor/RSL10/3.7.606/lib/ble_core/Release/libblelib.a(gattm_task.o)
 .text.gattm_att_get_permission_req_handler
                0x00113c7c       0x46 C:/Users/xeeen/ON_Semiconductor/PACK/ONSemiconductor/RSL10/3.7.606/lib/ble_core/Release/libblelib.a(gattm_task.o)
 .text.gattm_svc_set_permission_req_handler
                0x00113cc2       0x2a C:/Users/xeeen/ON_Semiconductor/PACK/ONSemiconductor/RSL10/3.7.606/lib/ble_core/Release/libblelib.a(gattm_task.o)
 .text.gattm_svc_get_permission_req_handler
                0x00113cec       0x2a C:/Users/xeeen/ON_Semiconductor/PACK/ONSemiconductor/RSL10/3.7.606/lib/ble_core/Release/libblelib.a(gattm_task.o)
 .text.gattm_add_svc_req_handler
                0x00113d16       0x28 C:/Users/xeeen/ON_Semiconductor/PACK/ONSemiconductor/RSL10/3.7.606/lib/ble_core/Release/libblelib.a(gattm_task.o)
 *fill*         0x00113d3e        0x2 
 .text.gattc_operation_cleanup
                0x00113d40       0x6c C:/Users/xeeen/ON_Semiconductor/PACK/ONSemiconductor/RSL10/3.7.606/lib/ble_core/Release/libblelib.a(gattc.o)
 .text.gattc_get_mtu
                0x00113dac       0x10 C:/Users/xeeen/ON_Semiconductor/PACK/ONSemiconductor/RSL10/3.7.606/lib/ble_core/Release/libblelib.a(gattc.o)
                0x00113dac                gattc_get_mtu
 .text.gattc_send_error_evt
                0x00113dbc       0x2a C:/Users/xeeen/ON_Semiconductor/PACK/ONSemiconductor/RSL10/3.7.606/lib/ble_core/Release/libblelib.a(gattc.o)
                0x00113dbc                gattc_send_error_evt
 *fill*         0x00113de6        0x2 
 .text.gattc_get_operation
                0x00113de8       0x14 C:/Users/xeeen/ON_Semiconductor/PACK/ONSemiconductor/RSL10/3.7.606/lib/ble_core/Release/libblelib.a(gattc.o)
                0x00113de8                gattc_get_operation
 .text.gattc_set_mtu
                0x00113dfc       0x68 C:/Users/xeeen/ON_Semiconductor/PACK/ONSemiconductor/RSL10/3.7.606/lib/ble_core/Release/libblelib.a(gattc.o)
                0x00113dfc                gattc_set_mtu
 .text.gattc_get_operation_ptr
                0x00113e64       0x10 C:/Users/xeeen/ON_Semiconductor/PACK/ONSemiconductor/RSL10/3.7.606/lib/ble_core/Release/libblelib.a(gattc.o)
                0x00113e64                gattc_get_operation_ptr
 .text.gattc_set_operation_ptr
                0x00113e74       0x10 C:/Users/xeeen/ON_Semiconductor/PACK/ONSemiconductor/RSL10/3.7.606/lib/ble_core/Release/libblelib.a(gattc.o)
                0x00113e74                gattc_set_operation_ptr
 .text.gattc_reschedule_operation
                0x00113e84       0x2c C:/Users/xeeen/ON_Semiconductor/PACK/ONSemiconductor/RSL10/3.7.606/lib/ble_core/Release/libblelib.a(gattc.o)
                0x00113e84                gattc_reschedule_operation
 .text.gattc_get_requester
                0x00113eb0       0x18 C:/Users/xeeen/ON_Semiconductor/PACK/ONSemiconductor/RSL10/3.7.606/lib/ble_core/Release/libblelib.a(gattc.o)
                0x00113eb0                gattc_get_requester
 .text.gattc_update_state
                0x00113ec8       0x2a C:/Users/xeeen/ON_Semiconductor/PACK/ONSemiconductor/RSL10/3.7.606/lib/ble_core/Release/libblelib.a(gattc.o)
                0x00113ec8                gattc_update_state
 *fill*         0x00113ef2        0x2 
 .text.gattc_create
                0x00113ef4       0x84 C:/Users/xeeen/ON_Semiconductor/PACK/ONSemiconductor/RSL10/3.7.606/lib/ble_core/Release/libblelib.a(gattc.o)
                0x00113ef4                gattc_create
 .text.gattc_con_enable
                0x00113f78       0x16 C:/Users/xeeen/ON_Semiconductor/PACK/ONSemiconductor/RSL10/3.7.606/lib/ble_core/Release/libblelib.a(gattc.o)
                0x00113f78                gattc_con_enable
 *fill*         0x00113f8e        0x2 
 .text.gattc_send_complete_evt
                0x00113f90       0x60 C:/Users/xeeen/ON_Semiconductor/PACK/ONSemiconductor/RSL10/3.7.606/lib/ble_core/Release/libblelib.a(gattc.o)
                0x00113f90                gattc_send_complete_evt
 .text.gattc_cleanup
                0x00113ff0       0xa0 C:/Users/xeeen/ON_Semiconductor/PACK/ONSemiconductor/RSL10/3.7.606/lib/ble_core/Release/libblelib.a(gattc.o)
                0x00113ff0                gattc_cleanup
 .text.gattc_init
                0x00114090       0x34 C:/Users/xeeen/ON_Semiconductor/PACK/ONSemiconductor/RSL10/3.7.606/lib/ble_core/Release/libblelib.a(gattc.o)
                0x00114090                gattc_init
 .text.gattc_default_msg_handler
                0x001140c4        0xc C:/Users/xeeen/ON_Semiconductor/PACK/ONSemiconductor/RSL10/3.7.606/lib/ble_core/Release/libblelib.a(gattc_task.o)
 .text.l2cc_cmp_evt_handler
                0x001140d0       0x44 C:/Users/xeeen/ON_Semiconductor/PACK/ONSemiconductor/RSL10/3.7.606/lib/ble_core/Release/libblelib.a(gattc_task.o)
 .text.gapc_cmp_evt_handler
                0x00114114       0x3c C:/Users/xeeen/ON_Semiconductor/PACK/ONSemiconductor/RSL10/3.7.606/lib/ble_core/Release/libblelib.a(gattc_task.o)
 .text.gattc_disc_char_desc_ind_handler
                0x00114150       0x68 C:/Users/xeeen/ON_Semiconductor/PACK/ONSemiconductor/RSL10/3.7.606/lib/ble_core/Release/libblelib.a(gattc_task.o)
 .text.gattc_disc_char_ind_handler
                0x001141b8       0x84 C:/Users/xeeen/ON_Semiconductor/PACK/ONSemiconductor/RSL10/3.7.606/lib/ble_core/Release/libblelib.a(gattc_task.o)
 .text.gattc_disc_svc_incl_ind_handler
                0x0011423c       0x6c C:/Users/xeeen/ON_Semiconductor/PACK/ONSemiconductor/RSL10/3.7.606/lib/ble_core/Release/libblelib.a(gattc_task.o)
 .text.gapc_sign_ind_handler
                0x001142a8       0x8e C:/Users/xeeen/ON_Semiconductor/PACK/ONSemiconductor/RSL10/3.7.606/lib/ble_core/Release/libblelib.a(gattc_task.o)
 .text.gattc_read_req_ind_handler
                0x00114336       0x5c C:/Users/xeeen/ON_Semiconductor/PACK/ONSemiconductor/RSL10/3.7.606/lib/ble_core/Release/libblelib.a(gattc_task.o)
 .text.gattc_write_req_ind_handler
                0x00114392       0x6a C:/Users/xeeen/ON_Semiconductor/PACK/ONSemiconductor/RSL10/3.7.606/lib/ble_core/Release/libblelib.a(gattc_task.o)
 .text.gattc_process_op
                0x001143fc       0x9c C:/Users/xeeen/ON_Semiconductor/PACK/ONSemiconductor/RSL10/3.7.606/lib/ble_core/Release/libblelib.a(gattc_task.o)
 .text.gattc_send_evt_cmd_handler
                0x00114498       0x5c C:/Users/xeeen/ON_Semiconductor/PACK/ONSemiconductor/RSL10/3.7.606/lib/ble_core/Release/libblelib.a(gattc_task.o)
 .text.gattc_send_svc_changed_cmd_handler
                0x001144f4       0xae C:/Users/xeeen/ON_Semiconductor/PACK/ONSemiconductor/RSL10/3.7.606/lib/ble_core/Release/libblelib.a(gattc_task.o)
 *fill*         0x001145a2        0x2 
 .text.gattc_disc_svc_ind_handler
                0x001145a4       0x30 C:/Users/xeeen/ON_Semiconductor/PACK/ONSemiconductor/RSL10/3.7.606/lib/ble_core/Release/libblelib.a(gattc_task.o)
 .text.gattc_cmp_evt_handler
                0x001145d4      0x168 C:/Users/xeeen/ON_Semiconductor/PACK/ONSemiconductor/RSL10/3.7.606/lib/ble_core/Release/libblelib.a(gattc_task.o)
 .text.gattc_sdp_svc_disc_cmd_handler
                0x0011473c       0xc0 C:/Users/xeeen/ON_Semiconductor/PACK/ONSemiconductor/RSL10/3.7.606/lib/ble_core/Release/libblelib.a(gattc_task.o)
 .text.gattc_timeout_handler
                0x001147fc       0x6c C:/Users/xeeen/ON_Semiconductor/PACK/ONSemiconductor/RSL10/3.7.606/lib/ble_core/Release/libblelib.a(gattc_task.o)
 .text.gattc_reg_to_peer_evt_cmd_handler
                0x00114868       0xb0 C:/Users/xeeen/ON_Semiconductor/PACK/ONSemiconductor/RSL10/3.7.606/lib/ble_core/Release/libblelib.a(gattc_task.o)
 .text.gattc_execute_write_cmd_handler
                0x00114918       0x32 C:/Users/xeeen/ON_Semiconductor/PACK/ONSemiconductor/RSL10/3.7.606/lib/ble_core/Release/libblelib.a(gattc_task.o)
 .text.gattc_event_cfm_handler
                0x0011494a       0x18 C:/Users/xeeen/ON_Semiconductor/PACK/ONSemiconductor/RSL10/3.7.606/lib/ble_core/Release/libblelib.a(gattc_task.o)
 *fill*         0x00114962        0x2 
 .text.gattc_write_cmd_handler
                0x00114964      0x1a4 C:/Users/xeeen/ON_Semiconductor/PACK/ONSemiconductor/RSL10/3.7.606/lib/ble_core/Release/libblelib.a(gattc_task.o)
 .text.gattc_read_cmd_handler
                0x00114b08      0x12c C:/Users/xeeen/ON_Semiconductor/PACK/ONSemiconductor/RSL10/3.7.606/lib/ble_core/Release/libblelib.a(gattc_task.o)
 .text.gattc_disc_cmd_handler
                0x00114c34      0x158 C:/Users/xeeen/ON_Semiconductor/PACK/ONSemiconductor/RSL10/3.7.606/lib/ble_core/Release/libblelib.a(gattc_task.o)
 .text.gattc_exc_mtu_cmd_handler
                0x00114d8c       0x68 C:/Users/xeeen/ON_Semiconductor/PACK/ONSemiconductor/RSL10/3.7.606/lib/ble_core/Release/libblelib.a(gattc_task.o)
 .text.l2cc_pdu_recv_ind_handler
                0x00114df4       0x74 C:/Users/xeeen/ON_Semiconductor/PACK/ONSemiconductor/RSL10/3.7.606/lib/ble_core/Release/libblelib.a(gattc_task.o)
 .text.gattc_read_cfm_handler
                0x00114e68       0x40 C:/Users/xeeen/ON_Semiconductor/PACK/ONSemiconductor/RSL10/3.7.606/lib/ble_core/Release/libblelib.a(gattc_task.o)
 .text.gattc_att_info_req_ind_handler
                0x00114ea8       0x56 C:/Users/xeeen/ON_Semiconductor/PACK/ONSemiconductor/RSL10/3.7.606/lib/ble_core/Release/libblelib.a(gattc_task.o)
 *fill*         0x00114efe        0x2 
 .text.gattc_att_info_cfm_handler
                0x00114f00       0x5c C:/Users/xeeen/ON_Semiconductor/PACK/ONSemiconductor/RSL10/3.7.606/lib/ble_core/Release/libblelib.a(gattc_task.o)
 .text.gattc_write_cfm_handler
                0x00114f5c       0x8c C:/Users/xeeen/ON_Semiconductor/PACK/ONSemiconductor/RSL10/3.7.606/lib/ble_core/Release/libblelib.a(gattc_task.o)
 .text.atts_get_dest_task
                0x00114fe8       0x1a C:/Users/xeeen/ON_Semiconductor/PACK/ONSemiconductor/RSL10/3.7.606/lib/ble_core/Release/libblelib.a(atts.o)
 .text.atts_check_length_and_offset
                0x00115002       0x2e C:/Users/xeeen/ON_Semiconductor/PACK/ONSemiconductor/RSL10/3.7.606/lib/ble_core/Release/libblelib.a(atts.o)
 .text.atts_get_att_chk_perm.part.0
                0x00115030       0x90 C:/Users/xeeen/ON_Semiconductor/PACK/ONSemiconductor/RSL10/3.7.606/lib/ble_core/Release/libblelib.a(atts.o)
 .text.atts_write_signed
                0x001150c0       0x78 C:/Users/xeeen/ON_Semiconductor/PACK/ONSemiconductor/RSL10/3.7.606/lib/ble_core/Release/libblelib.a(atts.o)
 .text.atts_update_elmt.constprop.0
                0x00115138       0x42 C:/Users/xeeen/ON_Semiconductor/PACK/ONSemiconductor/RSL10/3.7.606/lib/ble_core/Release/libblelib.a(atts.o)
 .text.atts_write_cmd
                0x0011517a       0x3e C:/Users/xeeen/ON_Semiconductor/PACK/ONSemiconductor/RSL10/3.7.606/lib/ble_core/Release/libblelib.a(atts.o)
 .text.atts_send_error
                0x001151b8       0x2a C:/Users/xeeen/ON_Semiconductor/PACK/ONSemiconductor/RSL10/3.7.606/lib/ble_core/Release/libblelib.a(atts.o)
                0x001151b8                atts_send_error
 *fill*         0x001151e2        0x2 
 .text.atts_prepare_write_req
                0x001151e4      0x124 C:/Users/xeeen/ON_Semiconductor/PACK/ONSemiconductor/RSL10/3.7.606/lib/ble_core/Release/libblelib.a(atts.o)
 .text.atts_write_req
                0x00115308       0x4a C:/Users/xeeen/ON_Semiconductor/PACK/ONSemiconductor/RSL10/3.7.606/lib/ble_core/Release/libblelib.a(atts.o)
 *fill*         0x00115352        0x2 
 .text.atts_find_info_req
                0x00115354      0x160 C:/Users/xeeen/ON_Semiconductor/PACK/ONSemiconductor/RSL10/3.7.606/lib/ble_core/Release/libblelib.a(atts.o)
 .text.atts_mtu_exc_req
                0x001154b4       0x60 C:/Users/xeeen/ON_Semiconductor/PACK/ONSemiconductor/RSL10/3.7.606/lib/ble_core/Release/libblelib.a(atts.o)
 .text.atts_write_signed_cfm
                0x00115514       0x3a C:/Users/xeeen/ON_Semiconductor/PACK/ONSemiconductor/RSL10/3.7.606/lib/ble_core/Release/libblelib.a(atts.o)
                0x00115514                atts_write_signed_cfm
 .text.atts_send_event
                0x0011554e       0x92 C:/Users/xeeen/ON_Semiconductor/PACK/ONSemiconductor/RSL10/3.7.606/lib/ble_core/Release/libblelib.a(atts.o)
                0x0011554e                atts_send_event
 .text.atts_clear_prep_data
                0x001155e0       0x20 C:/Users/xeeen/ON_Semiconductor/PACK/ONSemiconductor/RSL10/3.7.606/lib/ble_core/Release/libblelib.a(atts.o)
                0x001155e0                atts_clear_prep_data
 .text.atts_execute_write_req
                0x00115600      0x160 C:/Users/xeeen/ON_Semiconductor/PACK/ONSemiconductor/RSL10/3.7.606/lib/ble_core/Release/libblelib.a(atts.o)
 .text.atts_clear_rsp_data
                0x00115760       0x20 C:/Users/xeeen/ON_Semiconductor/PACK/ONSemiconductor/RSL10/3.7.606/lib/ble_core/Release/libblelib.a(atts.o)
                0x00115760                atts_clear_rsp_data
 .text.atts_clear_read_cache
                0x00115780       0x24 C:/Users/xeeen/ON_Semiconductor/PACK/ONSemiconductor/RSL10/3.7.606/lib/ble_core/Release/libblelib.a(atts.o)
                0x00115780                atts_clear_read_cache
 .text.atts_get_value
                0x001157a4       0x78 C:/Users/xeeen/ON_Semiconductor/PACK/ONSemiconductor/RSL10/3.7.606/lib/ble_core/Release/libblelib.a(atts.o)
 .text.atts_find_value_by_uuid
                0x0011581c      0x10e C:/Users/xeeen/ON_Semiconductor/PACK/ONSemiconductor/RSL10/3.7.606/lib/ble_core/Release/libblelib.a(atts.o)
 *fill*         0x0011592a        0x2 
 .text.atts_read_mult_req
                0x0011592c      0x13c C:/Users/xeeen/ON_Semiconductor/PACK/ONSemiconductor/RSL10/3.7.606/lib/ble_core/Release/libblelib.a(atts.o)
 .text.atts_read_blob_req
                0x00115a68       0xcc C:/Users/xeeen/ON_Semiconductor/PACK/ONSemiconductor/RSL10/3.7.606/lib/ble_core/Release/libblelib.a(atts.o)
 .text.atts_read_req
                0x00115b34       0xaa C:/Users/xeeen/ON_Semiconductor/PACK/ONSemiconductor/RSL10/3.7.606/lib/ble_core/Release/libblelib.a(atts.o)
 *fill*         0x00115bde        0x2 
 .text.atts_read_by_grp_type_req
                0x00115be0      0x1c0 C:/Users/xeeen/ON_Semiconductor/PACK/ONSemiconductor/RSL10/3.7.606/lib/ble_core/Release/libblelib.a(atts.o)
 .text.atts_read_by_type_req
                0x00115da0      0x1a8 C:/Users/xeeen/ON_Semiconductor/PACK/ONSemiconductor/RSL10/3.7.606/lib/ble_core/Release/libblelib.a(atts.o)
 .text.atts_find_by_type_req
                0x00115f48      0x178 C:/Users/xeeen/ON_Semiconductor/PACK/ONSemiconductor/RSL10/3.7.606/lib/ble_core/Release/libblelib.a(atts.o)
 .text.atts_write_rsp_send
                0x001160c0       0x2e C:/Users/xeeen/ON_Semiconductor/PACK/ONSemiconductor/RSL10/3.7.606/lib/ble_core/Release/libblelib.a(atts.o)
                0x001160c0                atts_write_rsp_send
 *fill*         0x001160ee        0x2 
 .text.atts_process_pdu
                0x001160f0       0x6c C:/Users/xeeen/ON_Semiconductor/PACK/ONSemiconductor/RSL10/3.7.606/lib/ble_core/Release/libblelib.a(atts.o)
                0x001160f0                atts_process_pdu
 .text.atts_l2cc_pdu_recv_handler
                0x0011615c       0x94 C:/Users/xeeen/ON_Semiconductor/PACK/ONSemiconductor/RSL10/3.7.606/lib/ble_core/Release/libblelib.a(atts.o)
                0x0011615c                atts_l2cc_pdu_recv_handler
 .text.attm_convert_to128
                0x001161f0       0x5c C:/Users/xeeen/ON_Semiconductor/PACK/ONSemiconductor/RSL10/3.7.606/lib/ble_core/Release/libblelib.a(attm.o)
                0x001161f0                attm_convert_to128
 .text.attm_uuid_comp
                0x0011624c       0x56 C:/Users/xeeen/ON_Semiconductor/PACK/ONSemiconductor/RSL10/3.7.606/lib/ble_core/Release/libblelib.a(attm.o)
                0x0011624c                attm_uuid_comp
 .text.attm_uuid16_comp
                0x001162a2       0x16 C:/Users/xeeen/ON_Semiconductor/PACK/ONSemiconductor/RSL10/3.7.606/lib/ble_core/Release/libblelib.a(attm.o)
                0x001162a2                attm_uuid16_comp
 .text.attm_is_bt16_uuid
                0x001162b8       0x38 C:/Users/xeeen/ON_Semiconductor/PACK/ONSemiconductor/RSL10/3.7.606/lib/ble_core/Release/libblelib.a(attm.o)
                0x001162b8                attm_is_bt16_uuid
 .text.attm_is_bt32_uuid
                0x001162f0       0x38 C:/Users/xeeen/ON_Semiconductor/PACK/ONSemiconductor/RSL10/3.7.606/lib/ble_core/Release/libblelib.a(attm.o)
                0x001162f0                attm_is_bt32_uuid
 .text.attm_svc_create_db
                0x00116328      0x100 C:/Users/xeeen/ON_Semiconductor/PACK/ONSemiconductor/RSL10/3.7.606/lib/ble_core/Release/libblelib.a(attm.o)
                0x00116328                attm_svc_create_db
 .text.attm_att_set_value
                0x00116428       0xc2 C:/Users/xeeen/ON_Semiconductor/PACK/ONSemiconductor/RSL10/3.7.606/lib/ble_core/Release/libblelib.a(attm.o)
                0x00116428                attm_att_set_value
 *fill*         0x001164ea        0x2 
 .text.attm_get_value
                0x001164ec      0x168 C:/Users/xeeen/ON_Semiconductor/PACK/ONSemiconductor/RSL10/3.7.606/lib/ble_core/Release/libblelib.a(attm.o)
                0x001164ec                attm_get_value
 .text.attm_att_set_permission
                0x00116654       0x7a C:/Users/xeeen/ON_Semiconductor/PACK/ONSemiconductor/RSL10/3.7.606/lib/ble_core/Release/libblelib.a(attm.o)
                0x00116654                attm_att_set_permission
 .text.attm_att_update_perm
                0x001166ce       0x74 C:/Users/xeeen/ON_Semiconductor/PACK/ONSemiconductor/RSL10/3.7.606/lib/ble_core/Release/libblelib.a(attm.o)
                0x001166ce                attm_att_update_perm
 .text.attm_svc_set_permission
                0x00116742       0x20 C:/Users/xeeen/ON_Semiconductor/PACK/ONSemiconductor/RSL10/3.7.606/lib/ble_core/Release/libblelib.a(attm.o)
                0x00116742                attm_svc_set_permission
 .text.attm_svc_get_permission
                0x00116762       0x1a C:/Users/xeeen/ON_Semiconductor/PACK/ONSemiconductor/RSL10/3.7.606/lib/ble_core/Release/libblelib.a(attm.o)
                0x00116762                attm_svc_get_permission
 .text.attm_init
                0x0011677c       0x14 C:/Users/xeeen/ON_Semiconductor/PACK/ONSemiconductor/RSL10/3.7.606/lib/ble_core/Release/libblelib.a(attm.o)
                0x0011677c                attm_init
 .text.attmdb_svc_check_hdl
                0x00116790       0x48 C:/Users/xeeen/ON_Semiconductor/PACK/ONSemiconductor/RSL10/3.7.606/lib/ble_core/Release/libblelib.a(attm_db.o)
                0x00116790                attmdb_svc_check_hdl
 .text.attmdb_add_service
                0x001167d8      0x400 C:/Users/xeeen/ON_Semiconductor/PACK/ONSemiconductor/RSL10/3.7.606/lib/ble_core/Release/libblelib.a(attm_db.o)
                0x001167d8                attmdb_add_service
 .text.attmdb_destroy
                0x00116bd8       0x1c C:/Users/xeeen/ON_Semiconductor/PACK/ONSemiconductor/RSL10/3.7.606/lib/ble_core/Release/libblelib.a(attm_db.o)
                0x00116bd8                attmdb_destroy
 .text.attmdb_get_service
                0x00116bf4       0x40 C:/Users/xeeen/ON_Semiconductor/PACK/ONSemiconductor/RSL10/3.7.606/lib/ble_core/Release/libblelib.a(attm_db.o)
                0x00116bf4                attmdb_get_service
 .text.attmdb_get_attribute
                0x00116c34       0x36 C:/Users/xeeen/ON_Semiconductor/PACK/ONSemiconductor/RSL10/3.7.606/lib/ble_core/Release/libblelib.a(attm_db.o)
                0x00116c34                attmdb_get_attribute
 *fill*         0x00116c6a        0x2 
 .text.attmdb_get_next_att
                0x00116c6c       0x70 C:/Users/xeeen/ON_Semiconductor/PACK/ONSemiconductor/RSL10/3.7.606/lib/ble_core/Release/libblelib.a(attm_db.o)
                0x00116c6c                attmdb_get_next_att
 .text.attmdb_uuid16_comp
                0x00116cdc       0x3a C:/Users/xeeen/ON_Semiconductor/PACK/ONSemiconductor/RSL10/3.7.606/lib/ble_core/Release/libblelib.a(attm_db.o)
                0x00116cdc                attmdb_uuid16_comp
 .text.attmdb_get_max_len
                0x00116d16       0x56 C:/Users/xeeen/ON_Semiconductor/PACK/ONSemiconductor/RSL10/3.7.606/lib/ble_core/Release/libblelib.a(attm_db.o)
                0x00116d16                attmdb_get_max_len
 .text.attmdb_get_uuid
                0x00116d6c       0xb8 C:/Users/xeeen/ON_Semiconductor/PACK/ONSemiconductor/RSL10/3.7.606/lib/ble_core/Release/libblelib.a(attm_db.o)
                0x00116d6c                attmdb_get_uuid
 .text.attmdb_att_get_permission
                0x00116e24      0x10c C:/Users/xeeen/ON_Semiconductor/PACK/ONSemiconductor/RSL10/3.7.606/lib/ble_core/Release/libblelib.a(attm_db.o)
                0x00116e24                attmdb_att_get_permission
 .text.attc_hdl_val_ntf_ind_handler
                0x00116f30       0x74 C:/Users/xeeen/ON_Semiconductor/PACK/ONSemiconductor/RSL10/3.7.606/lib/ble_core/Release/libblelib.a(attc.o)
 .text.attc_err_rsp_handler
                0x00116fa4        0xe C:/Users/xeeen/ON_Semiconductor/PACK/ONSemiconductor/RSL10/3.7.606/lib/ble_core/Release/libblelib.a(attc.o)
 .text.attc_exe_wr_rsp_handler
                0x00116fb2       0x3a C:/Users/xeeen/ON_Semiconductor/PACK/ONSemiconductor/RSL10/3.7.606/lib/ble_core/Release/libblelib.a(attc.o)
 .text.attc_exc_mtu_rsp_handler
                0x00116fec       0x3a C:/Users/xeeen/ON_Semiconductor/PACK/ONSemiconductor/RSL10/3.7.606/lib/ble_core/Release/libblelib.a(attc.o)
 .text.attc_rd_mult_rsp_handler
                0x00117026       0xbc C:/Users/xeeen/ON_Semiconductor/PACK/ONSemiconductor/RSL10/3.7.606/lib/ble_core/Release/libblelib.a(attc.o)
 .text.attc_prep_wr_rsp_handler
                0x001170e2       0x6a C:/Users/xeeen/ON_Semiconductor/PACK/ONSemiconductor/RSL10/3.7.606/lib/ble_core/Release/libblelib.a(attc.o)
 .text.attc_find_by_type_rsp_handler
                0x0011714c       0xb8 C:/Users/xeeen/ON_Semiconductor/PACK/ONSemiconductor/RSL10/3.7.606/lib/ble_core/Release/libblelib.a(attc.o)
 .text.attc_find_info_rsp_handler
                0x00117204       0xc0 C:/Users/xeeen/ON_Semiconductor/PACK/ONSemiconductor/RSL10/3.7.606/lib/ble_core/Release/libblelib.a(attc.o)
 .text.attc_rd_by_grp_type_rsp_handler
                0x001172c4      0x10c C:/Users/xeeen/ON_Semiconductor/PACK/ONSemiconductor/RSL10/3.7.606/lib/ble_core/Release/libblelib.a(attc.o)
 .text.attc_wr_rsp_handler
                0x001173d0       0x20 C:/Users/xeeen/ON_Semiconductor/PACK/ONSemiconductor/RSL10/3.7.606/lib/ble_core/Release/libblelib.a(attc.o)
 .text.attc_send_att_req
                0x001173f0       0x2e C:/Users/xeeen/ON_Semiconductor/PACK/ONSemiconductor/RSL10/3.7.606/lib/ble_core/Release/libblelib.a(attc.o)
                0x001173f0                attc_send_att_req
 .text.attc_send_hdl_cfm
                0x0011741e       0x24 C:/Users/xeeen/ON_Semiconductor/PACK/ONSemiconductor/RSL10/3.7.606/lib/ble_core/Release/libblelib.a(attc.o)
                0x0011741e                attc_send_hdl_cfm
 .text.attc_send_execute
                0x00117442       0x28 C:/Users/xeeen/ON_Semiconductor/PACK/ONSemiconductor/RSL10/3.7.606/lib/ble_core/Release/libblelib.a(attc.o)
                0x00117442                attc_send_execute
 *fill*         0x0011746a        0x2 
 .text.attc_rd_by_type_rsp_handler
                0x0011746c      0x294 C:/Users/xeeen/ON_Semiconductor/PACK/ONSemiconductor/RSL10/3.7.606/lib/ble_core/Release/libblelib.a(attc.o)
 .text.attc_send_read_ind
                0x00117700       0xe8 C:/Users/xeeen/ON_Semiconductor/PACK/ONSemiconductor/RSL10/3.7.606/lib/ble_core/Release/libblelib.a(attc.o)
                0x00117700                attc_send_read_ind
 .text.attc_rd_rsp_handler
                0x001177e8      0x10c C:/Users/xeeen/ON_Semiconductor/PACK/ONSemiconductor/RSL10/3.7.606/lib/ble_core/Release/libblelib.a(attc.o)
 .text.attc_l2cc_pdu_recv_handler
                0x001178f4       0x50 C:/Users/xeeen/ON_Semiconductor/PACK/ONSemiconductor/RSL10/3.7.606/lib/ble_core/Release/libblelib.a(attc.o)
                0x001178f4                attc_l2cc_pdu_recv_handler
 .text.gapm_init_attr
                0x00117944       0x34 C:/Users/xeeen/ON_Semiconductor/PACK/ONSemiconductor/RSL10/3.7.606/lib/ble_core/Release/libblelib.a(gapm.o)
                0x00117944                gapm_init_attr
 .text.gapm_get_operation
                0x00117978       0x10 C:/Users/xeeen/ON_Semiconductor/PACK/ONSemiconductor/RSL10/3.7.606/lib/ble_core/Release/libblelib.a(gapm.o)
                0x00117978                gapm_get_operation
 .text.gapm_get_requester
                0x00117988       0x14 C:/Users/xeeen/ON_Semiconductor/PACK/ONSemiconductor/RSL10/3.7.606/lib/ble_core/Release/libblelib.a(gapm.o)
                0x00117988                gapm_get_requester
 .text.gapm_reschedule_operation
                0x0011799c       0x24 C:/Users/xeeen/ON_Semiconductor/PACK/ONSemiconductor/RSL10/3.7.606/lib/ble_core/Release/libblelib.a(gapm.o)
                0x0011799c                gapm_reschedule_operation
 .text.gapm_send_error_evt
                0x001179c0       0x22 C:/Users/xeeen/ON_Semiconductor/PACK/ONSemiconductor/RSL10/3.7.606/lib/ble_core/Release/libblelib.a(gapm.o)
                0x001179c0                gapm_send_error_evt
 *fill*         0x001179e2        0x2 
 .text.gapm_act_start_send
                0x001179e4       0x5c C:/Users/xeeen/ON_Semiconductor/PACK/ONSemiconductor/RSL10/3.7.606/lib/ble_core/Release/libblelib.a(gapm.o)
                0x001179e4                gapm_act_start_send
 .text.gapm_con_create
                0x00117a40       0x64 C:/Users/xeeen/ON_Semiconductor/PACK/ONSemiconductor/RSL10/3.7.606/lib/ble_core/Release/libblelib.a(gapm.o)
                0x00117a40                gapm_con_create
 .text.gapm_con_enable
                0x00117aa4        0xa C:/Users/xeeen/ON_Semiconductor/PACK/ONSemiconductor/RSL10/3.7.606/lib/ble_core/Release/libblelib.a(gapm.o)
                0x00117aa4                gapm_con_enable
 *fill*         0x00117aae        0x2 
 .text.gapm_con_cleanup
                0x00117ab0       0x38 C:/Users/xeeen/ON_Semiconductor/PACK/ONSemiconductor/RSL10/3.7.606/lib/ble_core/Release/libblelib.a(gapm.o)
                0x00117ab0                gapm_con_cleanup
 .text.gapm_is_disc_connection
                0x00117ae8       0x2c C:/Users/xeeen/ON_Semiconductor/PACK/ONSemiconductor/RSL10/3.7.606/lib/ble_core/Release/libblelib.a(gapm.o)
                0x00117ae8                gapm_is_disc_connection
 .text.gapm_get_max_mtu
                0x00117b14        0xc C:/Users/xeeen/ON_Semiconductor/PACK/ONSemiconductor/RSL10/3.7.606/lib/ble_core/Release/libblelib.a(gapm.o)
                0x00117b14                gapm_get_max_mtu
 .text.gapm_get_max_mps
                0x00117b20        0xc C:/Users/xeeen/ON_Semiconductor/PACK/ONSemiconductor/RSL10/3.7.606/lib/ble_core/Release/libblelib.a(gapm.o)
                0x00117b20                gapm_get_max_mps
 .text.gapm_addr_check
                0x00117b2c        0xa C:/Users/xeeen/ON_Semiconductor/PACK/ONSemiconductor/RSL10/3.7.606/lib/ble_core/Release/libblelib.a(gapm.o)
                0x00117b2c                gapm_addr_check
 .text.gapm_dle_val_check
                0x00117b36       0x1a C:/Users/xeeen/ON_Semiconductor/PACK/ONSemiconductor/RSL10/3.7.606/lib/ble_core/Release/libblelib.a(gapm.o)
                0x00117b36                gapm_dle_val_check
 .text.gapm_update_state
                0x00117b50       0x32 C:/Users/xeeen/ON_Semiconductor/PACK/ONSemiconductor/RSL10/3.7.606/lib/ble_core/Release/libblelib.a(gapm.o)
                0x00117b50                gapm_update_state
 *fill*         0x00117b82        0x2 
 .text.gapm_operation_cleanup
                0x00117b84       0x58 C:/Users/xeeen/ON_Semiconductor/PACK/ONSemiconductor/RSL10/3.7.606/lib/ble_core/Release/libblelib.a(gapm.o)
 .text.gapm_send_complete_evt
                0x00117bdc       0x38 C:/Users/xeeen/ON_Semiconductor/PACK/ONSemiconductor/RSL10/3.7.606/lib/ble_core/Release/libblelib.a(gapm.o)
                0x00117bdc                gapm_send_complete_evt
 .text.gapm_is_legacy_pairing_supp
                0x00117c14       0x10 C:/Users/xeeen/ON_Semiconductor/PACK/ONSemiconductor/RSL10/3.7.606/lib/ble_core/Release/libblelib.a(gapm.o)
                0x00117c14                gapm_is_legacy_pairing_supp
 .text.gapm_is_sec_con_pairing_supp
                0x00117c24       0x10 C:/Users/xeeen/ON_Semiconductor/PACK/ONSemiconductor/RSL10/3.7.606/lib/ble_core/Release/libblelib.a(gapm.o)
                0x00117c24                gapm_is_sec_con_pairing_supp
 .text.gapm_le_psm_find
                0x00117c34       0x18 C:/Users/xeeen/ON_Semiconductor/PACK/ONSemiconductor/RSL10/3.7.606/lib/ble_core/Release/libblelib.a(gapm.o)
                0x00117c34                gapm_le_psm_find
 .text.gapm_le_psm_get_info
                0x00117c4c       0x30 C:/Users/xeeen/ON_Semiconductor/PACK/ONSemiconductor/RSL10/3.7.606/lib/ble_core/Release/libblelib.a(gapm.o)
                0x00117c4c                gapm_le_psm_get_info
 .text.gapm_lecb_register
                0x00117c7c       0x34 C:/Users/xeeen/ON_Semiconductor/PACK/ONSemiconductor/RSL10/3.7.606/lib/ble_core/Release/libblelib.a(gapm.o)
                0x00117c7c                gapm_lecb_register
 .text.gapm_lecb_unregister
                0x00117cb0       0x24 C:/Users/xeeen/ON_Semiconductor/PACK/ONSemiconductor/RSL10/3.7.606/lib/ble_core/Release/libblelib.a(gapm.o)
                0x00117cb0                gapm_lecb_unregister
 .text.gapm_le_psm_cleanup
                0x00117cd4       0x20 C:/Users/xeeen/ON_Semiconductor/PACK/ONSemiconductor/RSL10/3.7.606/lib/ble_core/Release/libblelib.a(gapm.o)
                0x00117cd4                gapm_le_psm_cleanup
 .text.gapm_init
                0x00117cf4       0x68 C:/Users/xeeen/ON_Semiconductor/PACK/ONSemiconductor/RSL10/3.7.606/lib/ble_core/Release/libblelib.a(gapm.o)
                0x00117cf4                gapm_init
 .text.gapm_get_address_type
                0x00117d5c       0x10 C:/Users/xeeen/ON_Semiconductor/PACK/ONSemiconductor/RSL10/3.7.606/lib/ble_core/Release/libblelib.a(gapm.o)
                0x00117d5c                gapm_get_address_type
 .text.gapm_is_pref_con_param_pres
                0x00117d6c       0x10 C:/Users/xeeen/ON_Semiconductor/PACK/ONSemiconductor/RSL10/3.7.606/lib/ble_core/Release/libblelib.a(gapm.o)
                0x00117d6c                gapm_is_pref_con_param_pres
 .text.gapm_get_att_handle
                0x00117d7c       0x20 C:/Users/xeeen/ON_Semiconductor/PACK/ONSemiconductor/RSL10/3.7.606/lib/ble_core/Release/libblelib.a(gapm.o)
                0x00117d7c                gapm_get_att_handle
 .text.gapm_svc_chg_en
                0x00117d9c       0x10 C:/Users/xeeen/ON_Semiconductor/PACK/ONSemiconductor/RSL10/3.7.606/lib/ble_core/Release/libblelib.a(gapm.o)
                0x00117d9c                gapm_svc_chg_en
 .text.gapm_default_msg_handler
                0x00117dac        0x4 C:/Users/xeeen/ON_Semiconductor/PACK/ONSemiconductor/RSL10/3.7.606/lib/ble_core/Release/libblelib.a(gapm_task.o)
 .text.gapm_process_op
                0x00117db0       0x68 C:/Users/xeeen/ON_Semiconductor/PACK/ONSemiconductor/RSL10/3.7.606/lib/ble_core/Release/libblelib.a(gapm_task.o)
 .text.gapm_get_pub_key_cmd_handler
                0x00117e18       0x2a C:/Users/xeeen/ON_Semiconductor/PACK/ONSemiconductor/RSL10/3.7.606/lib/ble_core/Release/libblelib.a(gapm_task.o)
 .text.gapm_unknown_task_msg_handler
                0x00117e42       0x22 C:/Users/xeeen/ON_Semiconductor/PACK/ONSemiconductor/RSL10/3.7.606/lib/ble_core/Release/libblelib.a(gapm_task.o)
 .text.gapm_cancel_cmd_handler
                0x00117e64       0x3e C:/Users/xeeen/ON_Semiconductor/PACK/ONSemiconductor/RSL10/3.7.606/lib/ble_core/Release/libblelib.a(gapm_task.o)
 *fill*         0x00117ea2        0x2 
 .text.gapm_connection_cfm_handler
                0x00117ea4       0xa0 C:/Users/xeeen/ON_Semiconductor/PACK/ONSemiconductor/RSL10/3.7.606/lib/ble_core/Release/libblelib.a(gapm_task.o)
 .text.gapm_start_connection_cmd_handler
                0x00117f44       0x5c C:/Users/xeeen/ON_Semiconductor/PACK/ONSemiconductor/RSL10/3.7.606/lib/ble_core/Release/libblelib.a(gapm_task.o)
 .text.gapm_start_scan_cmd_handler
                0x00117fa0       0x5c C:/Users/xeeen/ON_Semiconductor/PACK/ONSemiconductor/RSL10/3.7.606/lib/ble_core/Release/libblelib.a(gapm_task.o)
 .text.gapm_start_advertise_cmd_handler
                0x00117ffc       0x5c C:/Users/xeeen/ON_Semiconductor/PACK/ONSemiconductor/RSL10/3.7.606/lib/ble_core/Release/libblelib.a(gapm_task.o)
 .text.gapm_gen_dh_key_cmd_handler
                0x00118058       0x2e C:/Users/xeeen/ON_Semiconductor/PACK/ONSemiconductor/RSL10/3.7.606/lib/ble_core/Release/libblelib.a(gapm_task.o)
 *fill*         0x00118086        0x2 
 .text.gapm_resolv_addr_cmd_handler
                0x00118088       0x60 C:/Users/xeeen/ON_Semiconductor/PACK/ONSemiconductor/RSL10/3.7.606/lib/ble_core/Release/libblelib.a(gapm_task.o)
 .text.gapm_power_save_ctrl_cmd_handler
                0x001180e8       0x54 C:/Users/xeeen/ON_Semiconductor/PACK/ONSemiconductor/RSL10/3.7.606/lib/ble_core/Release/libblelib.a(gapm_task.o)
 .text.gapm_le_test_mode_ctrl_cmd_handler
                0x0011813c       0x80 C:/Users/xeeen/ON_Semiconductor/PACK/ONSemiconductor/RSL10/3.7.606/lib/ble_core/Release/libblelib.a(gapm_task.o)
 .text.gapm_lepsm_register_cmd_handler
                0x001181bc       0x60 C:/Users/xeeen/ON_Semiconductor/PACK/ONSemiconductor/RSL10/3.7.606/lib/ble_core/Release/libblelib.a(gapm_task.o)
 .text.gapm_set_irk_cmd_handler
                0x0011821c       0x60 C:/Users/xeeen/ON_Semiconductor/PACK/ONSemiconductor/RSL10/3.7.606/lib/ble_core/Release/libblelib.a(gapm_task.o)
 .text.gapm_ral_mgt_cmd_handler
                0x0011827c      0x114 C:/Users/xeeen/ON_Semiconductor/PACK/ONSemiconductor/RSL10/3.7.606/lib/ble_core/Release/libblelib.a(gapm_task.o)
 .text.gapm_white_list_mgt_cmd_handler
                0x00118390       0xa0 C:/Users/xeeen/ON_Semiconductor/PACK/ONSemiconductor/RSL10/3.7.606/lib/ble_core/Release/libblelib.a(gapm_task.o)
 .text.gapm_profile_task_add_cmd_handler
                0x00118430       0x60 C:/Users/xeeen/ON_Semiconductor/PACK/ONSemiconductor/RSL10/3.7.606/lib/ble_core/Release/libblelib.a(gapm_task.o)
 .text.gapm_addr_renew_to_ind_handler
                0x00118490       0x30 C:/Users/xeeen/ON_Semiconductor/PACK/ONSemiconductor/RSL10/3.7.606/lib/ble_core/Release/libblelib.a(gapm_task.o)
 .text.gapc_peer_att_info_ind_handler
                0x001184c0       0x6c C:/Users/xeeen/ON_Semiconductor/PACK/ONSemiconductor/RSL10/3.7.606/lib/ble_core/Release/libblelib.a(gapm_task.o)
 .text.gapm_update_advertise_data_cmd_handler
                0x0011852c       0x4c C:/Users/xeeen/ON_Semiconductor/PACK/ONSemiconductor/RSL10/3.7.606/lib/ble_core/Release/libblelib.a(gapm_task.o)
 .text.gapm_use_enc_block_cmd_handler
                0x00118578       0x50 C:/Users/xeeen/ON_Semiconductor/PACK/ONSemiconductor/RSL10/3.7.606/lib/ble_core/Release/libblelib.a(gapm_task.o)
 .text.gapm_set_channel_map_cmd_handler
                0x001185c8       0x58 C:/Users/xeeen/ON_Semiconductor/PACK/ONSemiconductor/RSL10/3.7.606/lib/ble_core/Release/libblelib.a(gapm_task.o)
 .text.gapm_set_dev_config_cmd_handler
                0x00118620      0x1d8 C:/Users/xeeen/ON_Semiconductor/PACK/ONSemiconductor/RSL10/3.7.606/lib/ble_core/Release/libblelib.a(gapm_task.o)
 .text.gapm_reset_cmd_handler
                0x001187f8       0x40 C:/Users/xeeen/ON_Semiconductor/PACK/ONSemiconductor/RSL10/3.7.606/lib/ble_core/Release/libblelib.a(gapm_task.o)
 .text.gapm_gen_rand_addr_cmd_handler
                0x00118838       0x34 C:/Users/xeeen/ON_Semiconductor/PACK/ONSemiconductor/RSL10/3.7.606/lib/ble_core/Release/libblelib.a(gapm_task.o)
 .text.gapc_cmp_evt_handler
                0x0011886c       0x42 C:/Users/xeeen/ON_Semiconductor/PACK/ONSemiconductor/RSL10/3.7.606/lib/ble_core/Release/libblelib.a(gapm_task.o)
 .text.gapm_cmp_evt_handler
                0x001188ae       0x50 C:/Users/xeeen/ON_Semiconductor/PACK/ONSemiconductor/RSL10/3.7.606/lib/ble_core/Release/libblelib.a(gapm_task.o)
 *fill*         0x001188fe        0x2 
 .text.gapm_get_dev_info_cmd_handler
                0x00118900       0xb8 C:/Users/xeeen/ON_Semiconductor/PACK/ONSemiconductor/RSL10/3.7.606/lib/ble_core/Release/libblelib.a(gapm_task.o)
 .text.gapm_lepsm_unregister_cmd_handler
                0x001189b8       0x54 C:/Users/xeeen/ON_Semiconductor/PACK/ONSemiconductor/RSL10/3.7.606/lib/ble_core/Release/libblelib.a(gapm_task.o)
 .text.gapm_scan_to_ind_handler
                0x00118a0c       0x1a C:/Users/xeeen/ON_Semiconductor/PACK/ONSemiconductor/RSL10/3.7.606/lib/ble_core/Release/libblelib.a(gapm_task.o)
 .text.gapm_lim_disc_to_ind_handler
                0x00118a26       0x1a C:/Users/xeeen/ON_Semiconductor/PACK/ONSemiconductor/RSL10/3.7.606/lib/ble_core/Release/libblelib.a(gapm_task.o)
 .text.gapm_set_address_op
                0x00118a40       0x7c C:/Users/xeeen/ON_Semiconductor/PACK/ONSemiconductor/RSL10/3.7.606/lib/ble_core/Release/libblelib.a(gapm_util.o)
 .text.gapm_update_address_op_state
                0x00118abc       0x7c C:/Users/xeeen/ON_Semiconductor/PACK/ONSemiconductor/RSL10/3.7.606/lib/ble_core/Release/libblelib.a(gapm_util.o)
 .text.gapm_adv_op_sanity
                0x00118b38      0x150 C:/Users/xeeen/ON_Semiconductor/PACK/ONSemiconductor/RSL10/3.7.606/lib/ble_core/Release/libblelib.a(gapm_util.o)
                0x00118b38                gapm_adv_op_sanity
 .text.gapm_set_adv_data
                0x00118c88       0x90 C:/Users/xeeen/ON_Semiconductor/PACK/ONSemiconductor/RSL10/3.7.606/lib/ble_core/Release/libblelib.a(gapm_util.o)
                0x00118c88                gapm_set_adv_data
 .text.gapm_scan_op_sanity
                0x00118d18       0x5c C:/Users/xeeen/ON_Semiconductor/PACK/ONSemiconductor/RSL10/3.7.606/lib/ble_core/Release/libblelib.a(gapm_util.o)
                0x00118d18                gapm_scan_op_sanity
 .text.gapm_connect_op_sanity
                0x00118d74       0x8c C:/Users/xeeen/ON_Semiconductor/PACK/ONSemiconductor/RSL10/3.7.606/lib/ble_core/Release/libblelib.a(gapm_util.o)
                0x00118d74                gapm_connect_op_sanity
 .text.gapm_get_role
                0x00118e00        0xc C:/Users/xeeen/ON_Semiconductor/PACK/ONSemiconductor/RSL10/3.7.606/lib/ble_core/Release/libblelib.a(gapm_util.o)
                0x00118e00                gapm_get_role
 .text.gapm_set_adv_mode
                0x00118e0c       0x1e C:/Users/xeeen/ON_Semiconductor/PACK/ONSemiconductor/RSL10/3.7.606/lib/ble_core/Release/libblelib.a(gapm_util.o)
                0x00118e0c                gapm_set_adv_mode
 .text.gapm_set_scan_mode
                0x00118e2a       0x22 C:/Users/xeeen/ON_Semiconductor/PACK/ONSemiconductor/RSL10/3.7.606/lib/ble_core/Release/libblelib.a(gapm_util.o)
                0x00118e2a                gapm_set_scan_mode
 .text.gapm_get_ad_type_flag
                0x00118e4c       0x22 C:/Users/xeeen/ON_Semiconductor/PACK/ONSemiconductor/RSL10/3.7.606/lib/ble_core/Release/libblelib.a(gapm_util.o)
                0x00118e4c                gapm_get_ad_type_flag
 *fill*         0x00118e6e        0x2 
 .text.gapm_add_to_filter
                0x00118e70       0x78 C:/Users/xeeen/ON_Semiconductor/PACK/ONSemiconductor/RSL10/3.7.606/lib/ble_core/Release/libblelib.a(gapm_util.o)
                0x00118e70                gapm_add_to_filter
 .text.gapm_is_filtered
                0x00118ee8       0x48 C:/Users/xeeen/ON_Semiconductor/PACK/ONSemiconductor/RSL10/3.7.606/lib/ble_core/Release/libblelib.a(gapm_util.o)
                0x00118ee8                gapm_is_filtered
 .text.gapm_update_air_op_state
                0x00118f30      0x394 C:/Users/xeeen/ON_Semiconductor/PACK/ONSemiconductor/RSL10/3.7.606/lib/ble_core/Release/libblelib.a(gapm_util.o)
                0x00118f30                gapm_update_air_op_state
 .text.gapm_get_irk
                0x001192c4        0x8 C:/Users/xeeen/ON_Semiconductor/PACK/ONSemiconductor/RSL10/3.7.606/lib/ble_core/Release/libblelib.a(gapm_util.o)
                0x001192c4                gapm_get_irk
 .text.gapm_get_bdaddr
                0x001192cc        0x8 C:/Users/xeeen/ON_Semiconductor/PACK/ONSemiconductor/RSL10/3.7.606/lib/ble_core/Release/libblelib.a(gapm_util.o)
                0x001192cc                gapm_get_bdaddr
 .text.gapm_basic_hci_cmd_send
                0x001192d4       0x18 C:/Users/xeeen/ON_Semiconductor/PACK/ONSemiconductor/RSL10/3.7.606/lib/ble_core/Release/libblelib.a(gapm_util.o)
                0x001192d4                gapm_basic_hci_cmd_send
 .text.gapm_setup_conn
                0x001192ec       0x64 C:/Users/xeeen/ON_Semiconductor/PACK/ONSemiconductor/RSL10/3.7.606/lib/ble_core/Release/libblelib.a(gapm_util.o)
                0x001192ec                gapm_setup_conn
 .text.gapm_get_adv_mode
                0x00119350       0x22 C:/Users/xeeen/ON_Semiconductor/PACK/ONSemiconductor/RSL10/3.7.606/lib/ble_core/Release/libblelib.a(gapm_util.o)
                0x00119350                gapm_get_adv_mode
 *fill*         0x00119372        0x2 
 .text.gapm_get_local_addrtype
                0x00119374       0x24 C:/Users/xeeen/ON_Semiconductor/PACK/ONSemiconductor/RSL10/3.7.606/lib/ble_core/Release/libblelib.a(gapm_util.o)
                0x00119374                gapm_get_local_addrtype
 .text.gapm_execute_adv_op
                0x00119398      0x180 C:/Users/xeeen/ON_Semiconductor/PACK/ONSemiconductor/RSL10/3.7.606/lib/ble_core/Release/libblelib.a(gapm_util.o)
                0x00119398                gapm_execute_adv_op
 .text.gapm_execute_scan_op
                0x00119518       0xac C:/Users/xeeen/ON_Semiconductor/PACK/ONSemiconductor/RSL10/3.7.606/lib/ble_core/Release/libblelib.a(gapm_util.o)
                0x00119518                gapm_execute_scan_op
 .text.gapm_execute_connect_op
                0x001195c4      0x1ac C:/Users/xeeen/ON_Semiconductor/PACK/ONSemiconductor/RSL10/3.7.606/lib/ble_core/Release/libblelib.a(gapm_util.o)
                0x001195c4                gapm_execute_connect_op
 .text.gapm_op_reset_continue
                0x00119770       0xac C:/Users/xeeen/ON_Semiconductor/PACK/ONSemiconductor/RSL10/3.7.606/lib/ble_core/Release/libblelib.a(gapm_util.o)
                0x00119770                gapm_op_reset_continue
 .text.gapm_op_setup_continue
                0x0011981c      0x174 C:/Users/xeeen/ON_Semiconductor/PACK/ONSemiconductor/RSL10/3.7.606/lib/ble_core/Release/libblelib.a(gapm_util.o)
                0x0011981c                gapm_op_setup_continue
 .text.gapc_operation_cleanup
                0x00119990       0xa4 C:/Users/xeeen/ON_Semiconductor/PACK/ONSemiconductor/RSL10/3.7.606/lib/ble_core/Release/libblelib.a(gapc.o)
 .text.gapc_con_create
                0x00119a34      0x13c C:/Users/xeeen/ON_Semiconductor/PACK/ONSemiconductor/RSL10/3.7.606/lib/ble_core/Release/libblelib.a(gapc.o)
                0x00119a34                gapc_con_create
 .text.gapc_send_disconect_ind
                0x00119b70       0x24 C:/Users/xeeen/ON_Semiconductor/PACK/ONSemiconductor/RSL10/3.7.606/lib/ble_core/Release/libblelib.a(gapc.o)
                0x00119b70                gapc_send_disconect_ind
 .text.gapc_get_conidx
                0x00119b94       0x24 C:/Users/xeeen/ON_Semiconductor/PACK/ONSemiconductor/RSL10/3.7.606/lib/ble_core/Release/libblelib.a(gapc.o)
                0x00119b94                gapc_get_conidx
 .text.gapc_get_conhdl
                0x00119bb8       0x1c C:/Users/xeeen/ON_Semiconductor/PACK/ONSemiconductor/RSL10/3.7.606/lib/ble_core/Release/libblelib.a(gapc.o)
                0x00119bb8                gapc_get_conhdl
 .text.gapc_get_role
                0x00119bd4       0x20 C:/Users/xeeen/ON_Semiconductor/PACK/ONSemiconductor/RSL10/3.7.606/lib/ble_core/Release/libblelib.a(gapc.o)
                0x00119bd4                gapc_get_role
 .text.gapc_get_bdaddr
                0x00119bf4       0x24 C:/Users/xeeen/ON_Semiconductor/PACK/ONSemiconductor/RSL10/3.7.606/lib/ble_core/Release/libblelib.a(gapc.o)
                0x00119bf4                gapc_get_bdaddr
 .text.gapc_get_csrk
                0x00119c18       0x24 C:/Users/xeeen/ON_Semiconductor/PACK/ONSemiconductor/RSL10/3.7.606/lib/ble_core/Release/libblelib.a(gapc.o)
                0x00119c18                gapc_get_csrk
 .text.gapc_get_sign_counter
                0x00119c3c       0x20 C:/Users/xeeen/ON_Semiconductor/PACK/ONSemiconductor/RSL10/3.7.606/lib/ble_core/Release/libblelib.a(gapc.o)
                0x00119c3c                gapc_get_sign_counter
 .text.gapc_send_error_evt
                0x00119c5c       0x24 C:/Users/xeeen/ON_Semiconductor/PACK/ONSemiconductor/RSL10/3.7.606/lib/ble_core/Release/libblelib.a(gapc.o)
                0x00119c5c                gapc_send_error_evt
 .text.gapc_get_operation
                0x00119c80       0x14 C:/Users/xeeen/ON_Semiconductor/PACK/ONSemiconductor/RSL10/3.7.606/lib/ble_core/Release/libblelib.a(gapc.o)
                0x00119c80                gapc_get_operation
 .text.gapc_get_operation_ptr
                0x00119c94       0x10 C:/Users/xeeen/ON_Semiconductor/PACK/ONSemiconductor/RSL10/3.7.606/lib/ble_core/Release/libblelib.a(gapc.o)
                0x00119c94                gapc_get_operation_ptr
 .text.gapc_set_operation_ptr
                0x00119ca4       0x10 C:/Users/xeeen/ON_Semiconductor/PACK/ONSemiconductor/RSL10/3.7.606/lib/ble_core/Release/libblelib.a(gapc.o)
                0x00119ca4                gapc_set_operation_ptr
 .text.gapc_reschedule_operation
                0x00119cb4       0x2c C:/Users/xeeen/ON_Semiconductor/PACK/ONSemiconductor/RSL10/3.7.606/lib/ble_core/Release/libblelib.a(gapc.o)
                0x00119cb4                gapc_reschedule_operation
 .text.gapc_get_requester
                0x00119ce0       0x18 C:/Users/xeeen/ON_Semiconductor/PACK/ONSemiconductor/RSL10/3.7.606/lib/ble_core/Release/libblelib.a(gapc.o)
                0x00119ce0                gapc_get_requester
 .text.gapc_is_sec_set
                0x00119cf8       0x44 C:/Users/xeeen/ON_Semiconductor/PACK/ONSemiconductor/RSL10/3.7.606/lib/ble_core/Release/libblelib.a(gapc.o)
                0x00119cf8                gapc_is_sec_set
 .text.gapc_lk_sec_lvl_get
                0x00119d3c       0x20 C:/Users/xeeen/ON_Semiconductor/PACK/ONSemiconductor/RSL10/3.7.606/lib/ble_core/Release/libblelib.a(gapc.o)
                0x00119d3c                gapc_lk_sec_lvl_get
 .text.gapc_enc_keysize_get
                0x00119d5c       0x1c C:/Users/xeeen/ON_Semiconductor/PACK/ONSemiconductor/RSL10/3.7.606/lib/ble_core/Release/libblelib.a(gapc.o)
                0x00119d5c                gapc_enc_keysize_get
 .text.gapc_enc_keysize_set
                0x00119d78       0x18 C:/Users/xeeen/ON_Semiconductor/PACK/ONSemiconductor/RSL10/3.7.606/lib/ble_core/Release/libblelib.a(gapc.o)
                0x00119d78                gapc_enc_keysize_set
 .text.gapc_link_encrypted
                0x00119d90       0x20 C:/Users/xeeen/ON_Semiconductor/PACK/ONSemiconductor/RSL10/3.7.606/lib/ble_core/Release/libblelib.a(gapc.o)
                0x00119d90                gapc_link_encrypted
 .text.gapc_auth_set
                0x00119db0       0x54 C:/Users/xeeen/ON_Semiconductor/PACK/ONSemiconductor/RSL10/3.7.606/lib/ble_core/Release/libblelib.a(gapc.o)
                0x00119db0                gapc_auth_set
 .text.gapc_auth_get
                0x00119e04       0x38 C:/Users/xeeen/ON_Semiconductor/PACK/ONSemiconductor/RSL10/3.7.606/lib/ble_core/Release/libblelib.a(gapc.o)
                0x00119e04                gapc_auth_get
 .text.gapc_svc_chg_ccc_get
                0x00119e3c       0x14 C:/Users/xeeen/ON_Semiconductor/PACK/ONSemiconductor/RSL10/3.7.606/lib/ble_core/Release/libblelib.a(gapc.o)
                0x00119e3c                gapc_svc_chg_ccc_get
 .text.gapc_svc_chg_ccc_set
                0x00119e50       0x1c C:/Users/xeeen/ON_Semiconductor/PACK/ONSemiconductor/RSL10/3.7.606/lib/ble_core/Release/libblelib.a(gapc.o)
                0x00119e50                gapc_svc_chg_ccc_set
 .text.gapc_update_state
                0x00119e6c       0x3c C:/Users/xeeen/ON_Semiconductor/PACK/ONSemiconductor/RSL10/3.7.606/lib/ble_core/Release/libblelib.a(gapc.o)
                0x00119e6c                gapc_update_state
 .text.gapc_send_complete_evt
                0x00119ea8       0x5c C:/Users/xeeen/ON_Semiconductor/PACK/ONSemiconductor/RSL10/3.7.606/lib/ble_core/Release/libblelib.a(gapc.o)
                0x00119ea8                gapc_send_complete_evt
 .text.gapc_cleanup
                0x00119f04       0x7c C:/Users/xeeen/ON_Semiconductor/PACK/ONSemiconductor/RSL10/3.7.606/lib/ble_core/Release/libblelib.a(gapc.o)
 .text.gapc_init
                0x00119f80       0x30 C:/Users/xeeen/ON_Semiconductor/PACK/ONSemiconductor/RSL10/3.7.606/lib/ble_core/Release/libblelib.a(gapc.o)
                0x00119f80                gapc_init
 .text.gapc_con_cleanup
                0x00119fb0       0x10 C:/Users/xeeen/ON_Semiconductor/PACK/ONSemiconductor/RSL10/3.7.606/lib/ble_core/Release/libblelib.a(gapc.o)
                0x00119fb0                gapc_con_cleanup
 .text.gapc_param_update_sanity
                0x00119fc0       0x32 C:/Users/xeeen/ON_Semiconductor/PACK/ONSemiconductor/RSL10/3.7.606/lib/ble_core/Release/libblelib.a(gapc.o)
                0x00119fc0                gapc_param_update_sanity
 .text.gapc_default_msg_handler
                0x00119ff2        0x4 C:/Users/xeeen/ON_Semiconductor/PACK/ONSemiconductor/RSL10/3.7.606/lib/ble_core/Release/libblelib.a(gapc_task.o)
 .text.gapc_gen_dh_key_ind_handler
                0x00119ff6       0x1c C:/Users/xeeen/ON_Semiconductor/PACK/ONSemiconductor/RSL10/3.7.606/lib/ble_core/Release/libblelib.a(gapc_task.o)
 .text.gapc_pub_key_ind_handler
                0x0011a012       0x20 C:/Users/xeeen/ON_Semiconductor/PACK/ONSemiconductor/RSL10/3.7.606/lib/ble_core/Release/libblelib.a(gapc_task.o)
 *fill*         0x0011a032        0x2 
 .text.gapc_smp_timeout_timer_ind_handler
                0x0011a034       0x44 C:/Users/xeeen/ON_Semiconductor/PACK/ONSemiconductor/RSL10/3.7.606/lib/ble_core/Release/libblelib.a(gapc_task.o)
 .text.l2cc_cmp_evt_handler
                0x0011a078       0x3c C:/Users/xeeen/ON_Semiconductor/PACK/ONSemiconductor/RSL10/3.7.606/lib/ble_core/Release/libblelib.a(gapc_task.o)
 .text.gapc_update_conn_param_to_ind_handler
                0x0011a0b4       0x44 C:/Users/xeeen/ON_Semiconductor/PACK/ONSemiconductor/RSL10/3.7.606/lib/ble_core/Release/libblelib.a(gapc_task.o)
 .text.gapm_use_enc_block_ind_handler
                0x0011a0f8       0x3c C:/Users/xeeen/ON_Semiconductor/PACK/ONSemiconductor/RSL10/3.7.606/lib/ble_core/Release/libblelib.a(gapc_task.o)
 .text.gapm_gen_rand_nb_ind_handler
                0x0011a134       0x2a C:/Users/xeeen/ON_Semiconductor/PACK/ONSemiconductor/RSL10/3.7.606/lib/ble_core/Release/libblelib.a(gapc_task.o)
 .text.gapc_encrypt_cfm_handler
                0x0011a15e       0x34 C:/Users/xeeen/ON_Semiconductor/PACK/ONSemiconductor/RSL10/3.7.606/lib/ble_core/Release/libblelib.a(gapc_task.o)
 *fill*         0x0011a192        0x2 
 .text.gapc_bond_cfm_handler
                0x0011a194       0xe8 C:/Users/xeeen/ON_Semiconductor/PACK/ONSemiconductor/RSL10/3.7.606/lib/ble_core/Release/libblelib.a(gapc_task.o)
 .text.l2cc_pdu_recv_ind_handler
                0x0011a27c       0x66 C:/Users/xeeen/ON_Semiconductor/PACK/ONSemiconductor/RSL10/3.7.606/lib/ble_core/Release/libblelib.a(gapc_task.o)
 *fill*         0x0011a2e2        0x2 
 .text.gapc_param_update_cfm_handler
                0x0011a2e4      0x100 C:/Users/xeeen/ON_Semiconductor/PACK/ONSemiconductor/RSL10/3.7.606/lib/ble_core/Release/libblelib.a(gapc_task.o)
 .text.gattc_read_ind_handler
                0x0011a3e4       0xf0 C:/Users/xeeen/ON_Semiconductor/PACK/ONSemiconductor/RSL10/3.7.606/lib/ble_core/Release/libblelib.a(gapc_task.o)
 .text.gattc_cmp_evt_handler
                0x0011a4d4       0x6c C:/Users/xeeen/ON_Semiconductor/PACK/ONSemiconductor/RSL10/3.7.606/lib/ble_core/Release/libblelib.a(gapc_task.o)
 .text.gapc_disconnect_cmd_handler
                0x0011a540       0x7c C:/Users/xeeen/ON_Semiconductor/PACK/ONSemiconductor/RSL10/3.7.606/lib/ble_core/Release/libblelib.a(gapc_task.o)
 .text.gapc_smp_rep_attempts_timer_handler
                0x0011a5bc       0x30 C:/Users/xeeen/ON_Semiconductor/PACK/ONSemiconductor/RSL10/3.7.606/lib/ble_core/Release/libblelib.a(gapc_task.o)
 .text.gapc_set_dev_info_cfm_handler
                0x0011a5ec       0x4c C:/Users/xeeen/ON_Semiconductor/PACK/ONSemiconductor/RSL10/3.7.606/lib/ble_core/Release/libblelib.a(gapc_task.o)
 .text.gattc_att_info_req_ind_handler
                0x0011a638       0x6c C:/Users/xeeen/ON_Semiconductor/PACK/ONSemiconductor/RSL10/3.7.606/lib/ble_core/Release/libblelib.a(gapc_task.o)
 .text.gapc_get_dev_info_cfm_handler
                0x0011a6a4       0xca C:/Users/xeeen/ON_Semiconductor/PACK/ONSemiconductor/RSL10/3.7.606/lib/ble_core/Release/libblelib.a(gapc_task.o)
 .text.gattc_write_req_ind_handler
                0x0011a76e       0xce C:/Users/xeeen/ON_Semiconductor/PACK/ONSemiconductor/RSL10/3.7.606/lib/ble_core/Release/libblelib.a(gapc_task.o)
 .text.gattc_read_req_ind_handler
                0x0011a83c       0xb6 C:/Users/xeeen/ON_Semiconductor/PACK/ONSemiconductor/RSL10/3.7.606/lib/ble_core/Release/libblelib.a(gapc_task.o)
 .text.gapm_cmp_evt_handler
                0x0011a8f2       0x7a C:/Users/xeeen/ON_Semiconductor/PACK/ONSemiconductor/RSL10/3.7.606/lib/ble_core/Release/libblelib.a(gapc_task.o)
 .text.gapc_connection_cfm_handler
                0x0011a96c       0xc4 C:/Users/xeeen/ON_Semiconductor/PACK/ONSemiconductor/RSL10/3.7.606/lib/ble_core/Release/libblelib.a(gapc_task.o)
 .text.gapc_process_op
                0x0011aa30       0x88 C:/Users/xeeen/ON_Semiconductor/PACK/ONSemiconductor/RSL10/3.7.606/lib/ble_core/Release/libblelib.a(gapc_task.o)
                0x0011aa30                gapc_process_op
 .text.gapc_set_max_rx_size_and_time_cmd_handler
                0x0011aab8       0x52 C:/Users/xeeen/ON_Semiconductor/PACK/ONSemiconductor/RSL10/3.7.606/lib/ble_core/Release/libblelib.a(gapc_task.o)
 .text.gapc_set_phy_cmd_handler
                0x0011ab0a       0x66 C:/Users/xeeen/ON_Semiconductor/PACK/ONSemiconductor/RSL10/3.7.606/lib/ble_core/Release/libblelib.a(gapc_task.o)
 .text.gapc_set_le_pkt_size_handler
                0x0011ab70       0x52 C:/Users/xeeen/ON_Semiconductor/PACK/ONSemiconductor/RSL10/3.7.606/lib/ble_core/Release/libblelib.a(gapc_task.o)
 .text.gapc_set_le_ping_to_handler
                0x0011abc2       0x4e C:/Users/xeeen/ON_Semiconductor/PACK/ONSemiconductor/RSL10/3.7.606/lib/ble_core/Release/libblelib.a(gapc_task.o)
 .text.gapc_key_press_notification_cmd_handler
                0x0011ac10       0x78 C:/Users/xeeen/ON_Semiconductor/PACK/ONSemiconductor/RSL10/3.7.606/lib/ble_core/Release/libblelib.a(gapc_task.o)
 .text.gapc_sign_cmd_handler
                0x0011ac88       0x44 C:/Users/xeeen/ON_Semiconductor/PACK/ONSemiconductor/RSL10/3.7.606/lib/ble_core/Release/libblelib.a(gapc_task.o)
 .text.gapc_security_cmd_handler
                0x0011accc       0x4c C:/Users/xeeen/ON_Semiconductor/PACK/ONSemiconductor/RSL10/3.7.606/lib/ble_core/Release/libblelib.a(gapc_task.o)
 .text.gapc_encrypt_cmd_handler
                0x0011ad18       0x60 C:/Users/xeeen/ON_Semiconductor/PACK/ONSemiconductor/RSL10/3.7.606/lib/ble_core/Release/libblelib.a(gapc_task.o)
 .text.gapc_bond_cmd_handler
                0x0011ad78       0x60 C:/Users/xeeen/ON_Semiconductor/PACK/ONSemiconductor/RSL10/3.7.606/lib/ble_core/Release/libblelib.a(gapc_task.o)
 .text.gapc_set_pref_slave_latency_cmd_handler
                0x0011add8       0x4e C:/Users/xeeen/ON_Semiconductor/PACK/ONSemiconductor/RSL10/3.7.606/lib/ble_core/Release/libblelib.a(gapc_task.o)
 *fill*         0x0011ae26        0x2 
 .text.gapc_param_update_cmd_handler
                0x0011ae28      0x120 C:/Users/xeeen/ON_Semiconductor/PACK/ONSemiconductor/RSL10/3.7.606/lib/ble_core/Release/libblelib.a(gapc_task.o)
 .text.gapc_get_info_cmd_handler
                0x0011af48      0x104 C:/Users/xeeen/ON_Semiconductor/PACK/ONSemiconductor/RSL10/3.7.606/lib/ble_core/Release/libblelib.a(gapc_task.o)
 .text.hci_le_power_save_ctrl_cmd_handler
                0x0011b04c       0x1e C:/Users/xeeen/ON_Semiconductor/PACK/ONSemiconductor/RSL10/3.7.606/lib/ble_core/Release/libblelib.a(llm_hci.o)
 *fill*         0x0011b06a        0x2 
 .text.hci_le_set_dft_phy_cmd_handler
                0x0011b06c       0x28 C:/Users/xeeen/ON_Semiconductor/PACK/ONSemiconductor/RSL10/3.7.606/lib/ble_core/Release/libblelib.a(llm_hci.o)
 .text.hci_le_wr_suggted_dft_data_len_cmd_handler
                0x0011b094       0x44 C:/Users/xeeen/ON_Semiconductor/PACK/ONSemiconductor/RSL10/3.7.606/lib/ble_core/Release/libblelib.a(llm_hci.o)
 .text.hci_le_generate_dhkey_cmd_handler
                0x0011b0d8       0x44 C:/Users/xeeen/ON_Semiconductor/PACK/ONSemiconductor/RSL10/3.7.606/lib/ble_core/Release/libblelib.a(llm_hci.o)
 .text.hci_rd_buff_size_cmd_handler
                0x0011b11c       0x26 C:/Users/xeeen/ON_Semiconductor/PACK/ONSemiconductor/RSL10/3.7.606/lib/ble_core/Release/libblelib.a(llm_hci.o)
 .text.hci_rd_local_ver_info_cmd_handler
                0x0011b142       0x32 C:/Users/xeeen/ON_Semiconductor/PACK/ONSemiconductor/RSL10/3.7.606/lib/ble_core/Release/libblelib.a(llm_hci.o)
 .text.hci_le_rd_max_data_len_cmd_handler
                0x0011b174       0x34 C:/Users/xeeen/ON_Semiconductor/PACK/ONSemiconductor/RSL10/3.7.606/lib/ble_core/Release/libblelib.a(llm_hci.o)
 .text.hci_le_rd_suggted_dft_data_len_cmd_handler
                0x0011b1a8       0x2c C:/Users/xeeen/ON_Semiconductor/PACK/ONSemiconductor/RSL10/3.7.606/lib/ble_core/Release/libblelib.a(llm_hci.o)
 .text.hci_le_rd_wl_size_cmd_handler
                0x0011b1d4       0x22 C:/Users/xeeen/ON_Semiconductor/PACK/ONSemiconductor/RSL10/3.7.606/lib/ble_core/Release/libblelib.a(llm_hci.o)
 *fill*         0x0011b1f6        0x2 
 .text.hci_le_rd_adv_ch_tx_pw_cmd_handler
                0x0011b1f8       0x34 C:/Users/xeeen/ON_Semiconductor/PACK/ONSemiconductor/RSL10/3.7.606/lib/ble_core/Release/libblelib.a(llm_hci.o)
 .text.hci_le_rd_buff_size_cmd_handler
                0x0011b22c       0x2c C:/Users/xeeen/ON_Semiconductor/PACK/ONSemiconductor/RSL10/3.7.606/lib/ble_core/Release/libblelib.a(llm_hci.o)
 .text.hci_le_enh_privacy_mgmt_cmd_handler
                0x0011b258       0xb4 C:/Users/xeeen/ON_Semiconductor/PACK/ONSemiconductor/RSL10/3.7.606/lib/ble_core/Release/libblelib.a(llm_hci.o)
 .text.hci_host_nb_cmp_pkts_cmd_handler
                0x0011b30c       0x3c C:/Users/xeeen/ON_Semiconductor/PACK/ONSemiconductor/RSL10/3.7.606/lib/ble_core/Release/libblelib.a(llm_hci.o)
 .text.hci_host_buf_size_cmd_handler
                0x0011b348       0x1a C:/Users/xeeen/ON_Semiconductor/PACK/ONSemiconductor/RSL10/3.7.606/lib/ble_core/Release/libblelib.a(llm_hci.o)
 .text.hci_set_evt_mask_page_2_cmd_handler
                0x0011b362       0x18 C:/Users/xeeen/ON_Semiconductor/PACK/ONSemiconductor/RSL10/3.7.606/lib/ble_core/Release/libblelib.a(llm_hci.o)
 .text.hci_set_evt_mask_cmd_handler
                0x0011b37a       0x18 C:/Users/xeeen/ON_Semiconductor/PACK/ONSemiconductor/RSL10/3.7.606/lib/ble_core/Release/libblelib.a(llm_hci.o)
 .text.hci_set_ctrl_to_host_flow_ctrl_cmd_handler
                0x0011b392       0x22 C:/Users/xeeen/ON_Semiconductor/PACK/ONSemiconductor/RSL10/3.7.606/lib/ble_core/Release/libblelib.a(llm_hci.o)
 .text.hci_rd_local_supp_feats_cmd_handler
                0x0011b3b4       0x28 C:/Users/xeeen/ON_Semiconductor/PACK/ONSemiconductor/RSL10/3.7.606/lib/ble_core/Release/libblelib.a(llm_hci.o)
 .text.hci_rd_local_supp_cmds_cmd_handler
                0x0011b3dc       0x38 C:/Users/xeeen/ON_Semiconductor/PACK/ONSemiconductor/RSL10/3.7.606/lib/ble_core/Release/libblelib.a(llm_hci.o)
 .text.hci_rd_bd_addr_cmd_handler
                0x0011b414       0x30 C:/Users/xeeen/ON_Semiconductor/PACK/ONSemiconductor/RSL10/3.7.606/lib/ble_core/Release/libblelib.a(llm_hci.o)
 .text.hci_le_rd_supp_states_cmd_handler
                0x0011b444       0x30 C:/Users/xeeen/ON_Semiconductor/PACK/ONSemiconductor/RSL10/3.7.606/lib/ble_core/Release/libblelib.a(llm_hci.o)
 .text.hci_le_rd_local_supp_feats_cmd_handler
                0x0011b474       0x30 C:/Users/xeeen/ON_Semiconductor/PACK/ONSemiconductor/RSL10/3.7.606/lib/ble_core/Release/libblelib.a(llm_hci.o)
 .text.hci_le_set_evt_mask_cmd_handler
                0x0011b4a4       0x1c C:/Users/xeeen/ON_Semiconductor/PACK/ONSemiconductor/RSL10/3.7.606/lib/ble_core/Release/libblelib.a(llm_hci.o)
 .text.hci_reset_cmd_handler
                0x0011b4c0       0x14 C:/Users/xeeen/ON_Semiconductor/PACK/ONSemiconductor/RSL10/3.7.606/lib/ble_core/Release/libblelib.a(llm_hci.o)
 .text.hci_le_test_mode_mngt_cmd_handler
                0x0011b4d4       0xbc C:/Users/xeeen/ON_Semiconductor/PACK/ONSemiconductor/RSL10/3.7.606/lib/ble_core/Release/libblelib.a(llm_hci.o)
 .text.hci_le_rand_cmd_handler
                0x0011b590       0x46 C:/Users/xeeen/ON_Semiconductor/PACK/ONSemiconductor/RSL10/3.7.606/lib/ble_core/Release/libblelib.a(llm_hci.o)
 *fill*         0x0011b5d6        0x2 
 .text.hci_le_wl_mngt_cmd_handler
                0x0011b5d8       0x8c C:/Users/xeeen/ON_Semiconductor/PACK/ONSemiconductor/RSL10/3.7.606/lib/ble_core/Release/libblelib.a(llm_hci.o)
 .text.hci_le_set_host_ch_class_cmd_handler
                0x0011b664       0x54 C:/Users/xeeen/ON_Semiconductor/PACK/ONSemiconductor/RSL10/3.7.606/lib/ble_core/Release/libblelib.a(llm_hci.o)
 .text.hci_le_create_con_cmd_handler
                0x0011b6b8       0x44 C:/Users/xeeen/ON_Semiconductor/PACK/ONSemiconductor/RSL10/3.7.606/lib/ble_core/Release/libblelib.a(llm_hci.o)
 .text.hci_le_set_scan_en_cmd_handler
                0x0011b6fc       0x64 C:/Users/xeeen/ON_Semiconductor/PACK/ONSemiconductor/RSL10/3.7.606/lib/ble_core/Release/libblelib.a(llm_hci.o)
 .text.hci_le_set_scan_param_cmd_handler
                0x0011b760       0x26 C:/Users/xeeen/ON_Semiconductor/PACK/ONSemiconductor/RSL10/3.7.606/lib/ble_core/Release/libblelib.a(llm_hci.o)
 *fill*         0x0011b786        0x2 
 .text.hci_le_set_scan_rsp_data_cmd_handler
                0x0011b788       0x64 C:/Users/xeeen/ON_Semiconductor/PACK/ONSemiconductor/RSL10/3.7.606/lib/ble_core/Release/libblelib.a(llm_hci.o)
 .text.hci_le_set_adv_en_cmd_handler
                0x0011b7ec       0x5c C:/Users/xeeen/ON_Semiconductor/PACK/ONSemiconductor/RSL10/3.7.606/lib/ble_core/Release/libblelib.a(llm_hci.o)
 .text.hci_le_set_adv_data_cmd_handler
                0x0011b848       0x5c C:/Users/xeeen/ON_Semiconductor/PACK/ONSemiconductor/RSL10/3.7.606/lib/ble_core/Release/libblelib.a(llm_hci.o)
 .text.hci_le_set_adv_param_cmd_handler
                0x0011b8a4       0x26 C:/Users/xeeen/ON_Semiconductor/PACK/ONSemiconductor/RSL10/3.7.606/lib/ble_core/Release/libblelib.a(llm_hci.o)
 *fill*         0x0011b8ca        0x2 
 .text.hci_le_set_rand_add_cmd_handler
                0x0011b8cc       0x40 C:/Users/xeeen/ON_Semiconductor/PACK/ONSemiconductor/RSL10/3.7.606/lib/ble_core/Release/libblelib.a(llm_hci.o)
 .text.hci_le_rd_local_p256_public_key_cmd_handler
                0x0011b90c       0x4c C:/Users/xeeen/ON_Semiconductor/PACK/ONSemiconductor/RSL10/3.7.606/lib/ble_core/Release/libblelib.a(llm_hci.o)
 .text.hci_le_enh_privacy_info_cmd_handler
                0x0011b958       0x60 C:/Users/xeeen/ON_Semiconductor/PACK/ONSemiconductor/RSL10/3.7.606/lib/ble_core/Release/libblelib.a(llm_hci.o)
 .text.hci_le_enc_cmd_handler
                0x0011b9b8       0x3c C:/Users/xeeen/ON_Semiconductor/PACK/ONSemiconductor/RSL10/3.7.606/lib/ble_core/Release/libblelib.a(llm_hci.o)
 .text.hci_le_create_con_cancel_cmd_handler
                0x0011b9f4       0x3c C:/Users/xeeen/ON_Semiconductor/PACK/ONSemiconductor/RSL10/3.7.606/lib/ble_core/Release/libblelib.a(llm_hci.o)
 .text.hci_command_handler
                0x0011ba30       0x30 C:/Users/xeeen/ON_Semiconductor/PACK/ONSemiconductor/RSL10/3.7.606/lib/ble_core/Release/libblelib.a(llm_hci.o)
                0x0011ba30                hci_command_handler
 .text.llc_ch_assess_local
                0x0011ba60       0x58 C:/Users/xeeen/ON_Semiconductor/PACK/ONSemiconductor/RSL10/3.7.606/lib/ble_core/Release/libblelib.a(llc_ch_asses.o)
                0x0011ba60                llc_ch_assess_local
 .text.llc_ch_assess_get_local_ch_map
                0x0011bab8       0x58 C:/Users/xeeen/ON_Semiconductor/PACK/ONSemiconductor/RSL10/3.7.606/lib/ble_core/Release/libblelib.a(llc_ch_asses.o)
                0x0011bab8                llc_ch_assess_get_local_ch_map
 .text.llc_ch_assess_get_current_ch_map
                0x0011bb10       0x10 C:/Users/xeeen/ON_Semiconductor/PACK/ONSemiconductor/RSL10/3.7.606/lib/ble_core/Release/libblelib.a(llc_ch_asses.o)
                0x0011bb10                llc_ch_assess_get_current_ch_map
 .text.llc_ch_assess_reass_ch
                0x0011bb20       0x94 C:/Users/xeeen/ON_Semiconductor/PACK/ONSemiconductor/RSL10/3.7.606/lib/ble_core/Release/libblelib.a(llc_ch_asses.o)
                0x0011bb20                llc_ch_assess_reass_ch
 .text.hci_vs_set_max_rx_size_and_time_cmd_handler
                0x0011bbb4       0x1e C:/Users/xeeen/ON_Semiconductor/PACK/ONSemiconductor/RSL10/3.7.606/lib/ble_core/Release/libblelib.a(llc_hci.o)
 *fill*         0x0011bbd2        0x2 
 .text.hci_le_ext_conn_accept_cmd_handler
                0x0011bbd4       0x30 C:/Users/xeeen/ON_Semiconductor/PACK/ONSemiconductor/RSL10/3.7.606/lib/ble_core/Release/libblelib.a(llc_hci.o)
 .text.hci_vs_set_pref_slave_latency_cmd_handler
                0x0011bc04       0x1c C:/Users/xeeen/ON_Semiconductor/PACK/ONSemiconductor/RSL10/3.7.606/lib/ble_core/Release/libblelib.a(llc_hci.o)
 .text.hci_le_set_phy_cmd_handler
                0x0011bc20       0x80 C:/Users/xeeen/ON_Semiconductor/PACK/ONSemiconductor/RSL10/3.7.606/lib/ble_core/Release/libblelib.a(llc_hci.o)
 .text.hci_le_rd_phy_cmd_handler
                0x0011bca0       0x58 C:/Users/xeeen/ON_Semiconductor/PACK/ONSemiconductor/RSL10/3.7.606/lib/ble_core/Release/libblelib.a(llc_hci.o)
 .text.hci_rd_auth_payl_to_cmd_handler
                0x0011bcf8       0x50 C:/Users/xeeen/ON_Semiconductor/PACK/ONSemiconductor/RSL10/3.7.606/lib/ble_core/Release/libblelib.a(llc_hci.o)
 .text.hci_rd_rssi_cmd_handler
                0x0011bd48       0x54 C:/Users/xeeen/ON_Semiconductor/PACK/ONSemiconductor/RSL10/3.7.606/lib/ble_core/Release/libblelib.a(llc_hci.o)
 .text.hci_rd_tx_pwr_lvl_cmd_handler
                0x0011bd9c       0x78 C:/Users/xeeen/ON_Semiconductor/PACK/ONSemiconductor/RSL10/3.7.606/lib/ble_core/Release/libblelib.a(llc_hci.o)
 .text.hci_le_set_data_len_cmd_handler
                0x0011be14       0x84 C:/Users/xeeen/ON_Semiconductor/PACK/ONSemiconductor/RSL10/3.7.606/lib/ble_core/Release/libblelib.a(llc_hci.o)
 .text.hci_le_rem_con_param_req_neg_reply_cmd_handler
                0x0011be98       0x78 C:/Users/xeeen/ON_Semiconductor/PACK/ONSemiconductor/RSL10/3.7.606/lib/ble_core/Release/libblelib.a(llc_hci.o)
 .text.hci_le_rem_con_param_req_reply_cmd_handler
                0x0011bf10       0xec C:/Users/xeeen/ON_Semiconductor/PACK/ONSemiconductor/RSL10/3.7.606/lib/ble_core/Release/libblelib.a(llc_hci.o)
 .text.hci_le_ltk_req_neg_reply_cmd_handler
                0x0011bffc       0x9c C:/Users/xeeen/ON_Semiconductor/PACK/ONSemiconductor/RSL10/3.7.606/lib/ble_core/Release/libblelib.a(llc_hci.o)
 .text.hci_le_ltk_req_reply_cmd_handler
                0x0011c098       0x8c C:/Users/xeeen/ON_Semiconductor/PACK/ONSemiconductor/RSL10/3.7.606/lib/ble_core/Release/libblelib.a(llc_hci.o)
 .text.hci_le_rd_chnl_map_cmd_handler
                0x0011c124       0x54 C:/Users/xeeen/ON_Semiconductor/PACK/ONSemiconductor/RSL10/3.7.606/lib/ble_core/Release/libblelib.a(llc_hci.o)
 .text.hci_le_start_enc_cmd_handler
                0x0011c178       0xd8 C:/Users/xeeen/ON_Semiconductor/PACK/ONSemiconductor/RSL10/3.7.606/lib/ble_core/Release/libblelib.a(llc_hci.o)
 .text.hci_le_rd_rem_used_feats_cmd_handler
                0x0011c250       0x94 C:/Users/xeeen/ON_Semiconductor/PACK/ONSemiconductor/RSL10/3.7.606/lib/ble_core/Release/libblelib.a(llc_hci.o)
 .text.hci_le_con_update_cmd_handler
                0x0011c2e4      0x150 C:/Users/xeeen/ON_Semiconductor/PACK/ONSemiconductor/RSL10/3.7.606/lib/ble_core/Release/libblelib.a(llc_hci.o)
 .text.hci_wr_auth_payl_to_cmd_handler
                0x0011c434       0xac C:/Users/xeeen/ON_Semiconductor/PACK/ONSemiconductor/RSL10/3.7.606/lib/ble_core/Release/libblelib.a(llc_hci.o)
 .text.hci_rd_rem_ver_info_cmd_handler
                0x0011c4e0       0x90 C:/Users/xeeen/ON_Semiconductor/PACK/ONSemiconductor/RSL10/3.7.606/lib/ble_core/Release/libblelib.a(llc_hci.o)
 .text.hci_disconnect_cmd_handler
                0x0011c570       0xc4 C:/Users/xeeen/ON_Semiconductor/PACK/ONSemiconductor/RSL10/3.7.606/lib/ble_core/Release/libblelib.a(llc_hci.o)
 .text.llc_hci_command_handler
                0x0011c634       0x30 C:/Users/xeeen/ON_Semiconductor/PACK/ONSemiconductor/RSL10/3.7.606/lib/ble_core/Release/libblelib.a(llc_hci.o)
                0x0011c634                llc_hci_command_handler
 .text.llc_hci_acl_data_tx_handler
                0x0011c664       0xac C:/Users/xeeen/ON_Semiconductor/PACK/ONSemiconductor/RSL10/3.7.606/lib/ble_core/Release/libblelib.a(llc_hci.o)
                0x0011c664                llc_hci_acl_data_tx_handler
 .text.l2c_code_le_flow_control_credit_handler
                0x0011c710       0x8c C:/Users/xeeen/ON_Semiconductor/PACK/ONSemiconductor/RSL10/3.7.606/lib/ble_core/Release/libblelib.a(l2cc_sig.o)
 .text.l2c_code_le_cb_conn_resp_handler
                0x0011c79c       0xe4 C:/Users/xeeen/ON_Semiconductor/PACK/ONSemiconductor/RSL10/3.7.606/lib/ble_core/Release/libblelib.a(l2cc_sig.o)
 .text.l2c_code_disconnection_resp_handler
                0x0011c880       0x52 C:/Users/xeeen/ON_Semiconductor/PACK/ONSemiconductor/RSL10/3.7.606/lib/ble_core/Release/libblelib.a(l2cc_sig.o)
 *fill*         0x0011c8d2        0x2 
 .text.l2c_code_le_cb_conn_req_handler
                0x0011c8d4      0x164 C:/Users/xeeen/ON_Semiconductor/PACK/ONSemiconductor/RSL10/3.7.606/lib/ble_core/Release/libblelib.a(l2cc_sig.o)
 .text.l2c_code_disconnection_req_handler
                0x0011ca38       0x3e C:/Users/xeeen/ON_Semiconductor/PACK/ONSemiconductor/RSL10/3.7.606/lib/ble_core/Release/libblelib.a(l2cc_sig.o)
 *fill*         0x0011ca76        0x2 
 .text.l2c_code_reject_handler
                0x0011ca78       0xb8 C:/Users/xeeen/ON_Semiconductor/PACK/ONSemiconductor/RSL10/3.7.606/lib/ble_core/Release/libblelib.a(l2cc_sig.o)
 .text.l2cc_sig_send_cmd_reject
                0x0011cb30       0x60 C:/Users/xeeen/ON_Semiconductor/PACK/ONSemiconductor/RSL10/3.7.606/lib/ble_core/Release/libblelib.a(l2cc_sig.o)
                0x0011cb30                l2cc_sig_send_cmd_reject
 .text.l2c_code_conn_param_upd_resp_handler
                0x0011cb90       0x38 C:/Users/xeeen/ON_Semiconductor/PACK/ONSemiconductor/RSL10/3.7.606/lib/ble_core/Release/libblelib.a(l2cc_sig.o)
 .text.l2c_code_conn_param_upd_req_handler
                0x0011cbc8       0x3a C:/Users/xeeen/ON_Semiconductor/PACK/ONSemiconductor/RSL10/3.7.606/lib/ble_core/Release/libblelib.a(l2cc_sig.o)
 *fill*         0x0011cc02        0x2 
 .text.l2cc_sig_pdu_recv_handler
                0x0011cc04       0x40 C:/Users/xeeen/ON_Semiconductor/PACK/ONSemiconductor/RSL10/3.7.606/lib/ble_core/Release/libblelib.a(l2cc_sig.o)
                0x0011cc04                l2cc_sig_pdu_recv_handler
 .text.smpm_send_gen_rand_nb_req
                0x0011cc44       0x1a C:/Users/xeeen/ON_Semiconductor/PACK/ONSemiconductor/RSL10/3.7.606/lib/ble_core/Release/libblelib.a(smpm_api.o)
 .text.smpm_gen_rand_addr
                0x0011cc5e       0x18 C:/Users/xeeen/ON_Semiconductor/PACK/ONSemiconductor/RSL10/3.7.606/lib/ble_core/Release/libblelib.a(smpm_api.o)
                0x0011cc5e                smpm_gen_rand_addr
 .text.smpm_gen_rand_nb
                0x0011cc76        0x4 C:/Users/xeeen/ON_Semiconductor/PACK/ONSemiconductor/RSL10/3.7.606/lib/ble_core/Release/libblelib.a(smpm_api.o)
                0x0011cc76                smpm_gen_rand_nb
 .text.smpm_send_encrypt_req
                0x0011cc7a       0x48 C:/Users/xeeen/ON_Semiconductor/PACK/ONSemiconductor/RSL10/3.7.606/lib/ble_core/Release/libblelib.a(smpm_api.o)
                0x0011cc7a                smpm_send_encrypt_req
 .text.smpm_resolv_addr
                0x0011ccc2       0x2c C:/Users/xeeen/ON_Semiconductor/PACK/ONSemiconductor/RSL10/3.7.606/lib/ble_core/Release/libblelib.a(smpm_api.o)
                0x0011ccc2                smpm_resolv_addr
 .text.smpm_use_enc_block
                0x0011ccee        0x4 C:/Users/xeeen/ON_Semiconductor/PACK/ONSemiconductor/RSL10/3.7.606/lib/ble_core/Release/libblelib.a(smpm_api.o)
                0x0011ccee                smpm_use_enc_block
 .text.smpm_send_generate_dh_key
                0x0011ccf2       0x48 C:/Users/xeeen/ON_Semiconductor/PACK/ONSemiconductor/RSL10/3.7.606/lib/ble_core/Release/libblelib.a(smpm_api.o)
                0x0011ccf2                smpm_send_generate_dh_key
 .text.smpc_send_use_enc_block_cmd
                0x0011cd3a       0x50 C:/Users/xeeen/ON_Semiconductor/PACK/ONSemiconductor/RSL10/3.7.606/lib/ble_core/Release/libblelib.a(smpc.o)
                0x0011cd3a                smpc_send_use_enc_block_cmd
 .text.smpc_send_get_pub_key_cmd
                0x0011cd8a       0x20 C:/Users/xeeen/ON_Semiconductor/PACK/ONSemiconductor/RSL10/3.7.606/lib/ble_core/Release/libblelib.a(smpc.o)
                0x0011cd8a                smpc_send_get_pub_key_cmd
 .text.smpc_send_gen_dh_key_cmd
                0x0011cdaa       0x50 C:/Users/xeeen/ON_Semiconductor/PACK/ONSemiconductor/RSL10/3.7.606/lib/ble_core/Release/libblelib.a(smpc.o)
                0x0011cdaa                smpc_send_gen_dh_key_cmd
 *fill*         0x0011cdfa        0x2 
 .text.smpc_send_start_enc_cmd
                0x0011cdfc       0xa0 C:/Users/xeeen/ON_Semiconductor/PACK/ONSemiconductor/RSL10/3.7.606/lib/ble_core/Release/libblelib.a(smpc.o)
                0x0011cdfc                smpc_send_start_enc_cmd
 .text.smpc_send_ltk_req_rsp
                0x0011ce9c       0x70 C:/Users/xeeen/ON_Semiconductor/PACK/ONSemiconductor/RSL10/3.7.606/lib/ble_core/Release/libblelib.a(smpc.o)
                0x0011ce9c                smpc_send_ltk_req_rsp
 .text.smpc_send_pairing_req_ind
                0x0011cf0c      0x100 C:/Users/xeeen/ON_Semiconductor/PACK/ONSemiconductor/RSL10/3.7.606/lib/ble_core/Release/libblelib.a(smpc.o)
                0x0011cf0c                smpc_send_pairing_req_ind
 .text.smpc_send_pairing_ind
                0x0011d00c       0xdc C:/Users/xeeen/ON_Semiconductor/PACK/ONSemiconductor/RSL10/3.7.606/lib/ble_core/Release/libblelib.a(smpc.o)
                0x0011d00c                smpc_send_pairing_ind
 .text.smpc_check_pairing_feat
                0x0011d0e8       0x22 C:/Users/xeeen/ON_Semiconductor/PACK/ONSemiconductor/RSL10/3.7.606/lib/ble_core/Release/libblelib.a(smpc.o)
                0x0011d0e8                smpc_check_pairing_feat
 .text.smpc_is_key_size_valid
                0x0011d10a       0x1c C:/Users/xeeen/ON_Semiconductor/PACK/ONSemiconductor/RSL10/3.7.606/lib/ble_core/Release/libblelib.a(smpc.o)
                0x0011d10a                smpc_is_key_size_valid
 *fill*         0x0011d126        0x2 
 .text.smpc_check_max_key_size
                0x0011d128       0x34 C:/Users/xeeen/ON_Semiconductor/PACK/ONSemiconductor/RSL10/3.7.606/lib/ble_core/Release/libblelib.a(smpc.o)
                0x0011d128                smpc_check_max_key_size
 .text.smpc_check_key_distrib
                0x0011d15c       0x78 C:/Users/xeeen/ON_Semiconductor/PACK/ONSemiconductor/RSL10/3.7.606/lib/ble_core/Release/libblelib.a(smpc.o)
                0x0011d15c                smpc_check_key_distrib
 .text.smpc_xor
                0x0011d1d4       0x20 C:/Users/xeeen/ON_Semiconductor/PACK/ONSemiconductor/RSL10/3.7.606/lib/ble_core/Release/libblelib.a(smpc.o)
                0x0011d1d4                smpc_xor
 .text.smpc_generate_l
                0x0011d1f4       0x7c C:/Users/xeeen/ON_Semiconductor/PACK/ONSemiconductor/RSL10/3.7.606/lib/ble_core/Release/libblelib.a(smpc.o)
                0x0011d1f4                smpc_generate_l
 .text.smpc_generate_ci
                0x0011d270       0x7c C:/Users/xeeen/ON_Semiconductor/PACK/ONSemiconductor/RSL10/3.7.606/lib/ble_core/Release/libblelib.a(smpc.o)
                0x0011d270                smpc_generate_ci
 .text.smpc_generate_rand
                0x0011d2ec       0x30 C:/Users/xeeen/ON_Semiconductor/PACK/ONSemiconductor/RSL10/3.7.606/lib/ble_core/Release/libblelib.a(smpc.o)
                0x0011d2ec                smpc_generate_rand
 .text.smpc_get_next_passkey_bit
                0x0011d31c       0x30 C:/Users/xeeen/ON_Semiconductor/PACK/ONSemiconductor/RSL10/3.7.606/lib/ble_core/Release/libblelib.a(smpc.o)
                0x0011d31c                smpc_get_next_passkey_bit
 .text.smpc_generate_e1
                0x0011d34c       0xc8 C:/Users/xeeen/ON_Semiconductor/PACK/ONSemiconductor/RSL10/3.7.606/lib/ble_core/Release/libblelib.a(smpc.o)
                0x0011d34c                smpc_generate_e1
 .text.smpc_generate_cfm
                0x0011d414       0x90 C:/Users/xeeen/ON_Semiconductor/PACK/ONSemiconductor/RSL10/3.7.606/lib/ble_core/Release/libblelib.a(smpc.o)
                0x0011d414                smpc_generate_cfm
 .text.smpc_generate_stk
                0x0011d4a4       0x54 C:/Users/xeeen/ON_Semiconductor/PACK/ONSemiconductor/RSL10/3.7.606/lib/ble_core/Release/libblelib.a(smpc.o)
                0x0011d4a4                smpc_generate_stk
 .text.smpc_calc_subkeys
                0x0011d4f8       0x94 C:/Users/xeeen/ON_Semiconductor/PACK/ONSemiconductor/RSL10/3.7.606/lib/ble_core/Release/libblelib.a(smpc.o)
                0x0011d4f8                smpc_calc_subkeys
 .text.smpc_clear_timeout_timer
                0x0011d58c       0x38 C:/Users/xeeen/ON_Semiconductor/PACK/ONSemiconductor/RSL10/3.7.606/lib/ble_core/Release/libblelib.a(smpc.o)
                0x0011d58c                smpc_clear_timeout_timer
 .text.smpc_launch_rep_att_timer
                0x0011d5c4       0x48 C:/Users/xeeen/ON_Semiconductor/PACK/ONSemiconductor/RSL10/3.7.606/lib/ble_core/Release/libblelib.a(smpc.o)
                0x0011d5c4                smpc_launch_rep_att_timer
 .text.smpc_check_repeated_attempts
                0x0011d60c       0x60 C:/Users/xeeen/ON_Semiconductor/PACK/ONSemiconductor/RSL10/3.7.606/lib/ble_core/Release/libblelib.a(smpc.o)
                0x0011d60c                smpc_check_repeated_attempts
 .text.smpc_pairing_end
                0x0011d66c       0x60 C:/Users/xeeen/ON_Semiconductor/PACK/ONSemiconductor/RSL10/3.7.606/lib/ble_core/Release/libblelib.a(smpc.o)
                0x0011d66c                smpc_pairing_end
 .text.smpc_get_key_sec_prop
                0x0011d6cc       0xd0 C:/Users/xeeen/ON_Semiconductor/PACK/ONSemiconductor/RSL10/3.7.606/lib/ble_core/Release/libblelib.a(smpc.o)
                0x0011d6cc                smpc_get_key_sec_prop
 .text.smpc_is_sec_mode_reached
                0x0011d79c       0x40 C:/Users/xeeen/ON_Semiconductor/PACK/ONSemiconductor/RSL10/3.7.606/lib/ble_core/Release/libblelib.a(smpc.o)
                0x0011d79c                smpc_is_sec_mode_reached
 .text.smpc_pdu_send
                0x0011d7dc       0x94 C:/Users/xeeen/ON_Semiconductor/PACK/ONSemiconductor/RSL10/3.7.606/lib/ble_core/Release/libblelib.a(smpc.o)
                0x0011d7dc                smpc_pdu_send
 .text.smpc_tkdp_send_continue
                0x0011d870       0xe0 C:/Users/xeeen/ON_Semiconductor/PACK/ONSemiconductor/RSL10/3.7.606/lib/ble_core/Release/libblelib.a(smpc.o)
                0x0011d870                smpc_tkdp_send_continue
 .text.smpc_tkdp_send_start
                0x0011d950       0x2c C:/Users/xeeen/ON_Semiconductor/PACK/ONSemiconductor/RSL10/3.7.606/lib/ble_core/Release/libblelib.a(smpc.o)
                0x0011d950                smpc_tkdp_send_start
 .text.smpc_tkdp_rcp_continue
                0x0011d97c       0x98 C:/Users/xeeen/ON_Semiconductor/PACK/ONSemiconductor/RSL10/3.7.606/lib/ble_core/Release/libblelib.a(smpc.o)
                0x0011d97c                smpc_tkdp_rcp_continue
 .text.smpc_tkdp_rcp_start
                0x0011da14       0x2c C:/Users/xeeen/ON_Semiconductor/PACK/ONSemiconductor/RSL10/3.7.606/lib/ble_core/Release/libblelib.a(smpc.o)
                0x0011da14                smpc_tkdp_rcp_start
 .text.smpc_handle_enc_change_evt
                0x0011da40      0x124 C:/Users/xeeen/ON_Semiconductor/PACK/ONSemiconductor/RSL10/3.7.606/lib/ble_core/Release/libblelib.a(smpc.o)
                0x0011da40                smpc_handle_enc_change_evt
 .text.smpc_pdu_recv
                0x0011db64       0x5c C:/Users/xeeen/ON_Semiconductor/PACK/ONSemiconductor/RSL10/3.7.606/lib/ble_core/Release/libblelib.a(smpc.o)
                0x0011db64                smpc_pdu_recv
 .text.smpc_initiate_dhkey_check
                0x0011dbc0       0xe0 C:/Users/xeeen/ON_Semiconductor/PACK/ONSemiconductor/RSL10/3.7.606/lib/ble_core/Release/libblelib.a(smpc.o)
                0x0011dbc0                smpc_initiate_dhkey_check
 .text.smpc_handle_pubkey_read_complete
                0x0011dca0       0xb4 C:/Users/xeeen/ON_Semiconductor/PACK/ONSemiconductor/RSL10/3.7.606/lib/ble_core/Release/libblelib.a(smpc.o)
                0x0011dca0                smpc_handle_pubkey_read_complete
 .text.smpc_init_mac_key_calculation
                0x0011dd54       0xa8 C:/Users/xeeen/ON_Semiconductor/PACK/ONSemiconductor/RSL10/3.7.606/lib/ble_core/Release/libblelib.a(smpc.o)
                0x0011dd54                smpc_init_mac_key_calculation
 .text.smpc_handle_dh_key_check_complete
                0x0011ddfc       0x40 C:/Users/xeeen/ON_Semiconductor/PACK/ONSemiconductor/RSL10/3.7.606/lib/ble_core/Release/libblelib.a(smpc.o)
                0x0011ddfc                smpc_handle_dh_key_check_complete
 .text.smpc_initiate_dhkey_verification
                0x0011de3c       0xd0 C:/Users/xeeen/ON_Semiconductor/PACK/ONSemiconductor/RSL10/3.7.606/lib/ble_core/Release/libblelib.a(smpc.o)
                0x0011de3c                smpc_initiate_dhkey_verification
 .text.smpc_secure_connections_enabled
                0x0011df0c       0x10 C:/Users/xeeen/ON_Semiconductor/PACK/ONSemiconductor/RSL10/3.7.606/lib/ble_core/Release/libblelib.a(smpc.o)
                0x0011df0c                smpc_secure_connections_enabled
 .text.smpc_pairing_start
                0x0011df1c       0xb4 C:/Users/xeeen/ON_Semiconductor/PACK/ONSemiconductor/RSL10/3.7.606/lib/ble_core/Release/libblelib.a(smpc_api.o)
                0x0011df1c                smpc_pairing_start
 .text.smpc_pairing_tk_exch
                0x0011dfd0       0xf8 C:/Users/xeeen/ON_Semiconductor/PACK/ONSemiconductor/RSL10/3.7.606/lib/ble_core/Release/libblelib.a(smpc_api.o)
                0x0011dfd0                smpc_pairing_tk_exch
 .text.smpc_pairing_ltk_exch
                0x0011e0c8       0x74 C:/Users/xeeen/ON_Semiconductor/PACK/ONSemiconductor/RSL10/3.7.606/lib/ble_core/Release/libblelib.a(smpc_api.o)
                0x0011e0c8                smpc_pairing_ltk_exch
 .text.smpc_pairing_irk_exch
                0x0011e13c       0x40 C:/Users/xeeen/ON_Semiconductor/PACK/ONSemiconductor/RSL10/3.7.606/lib/ble_core/Release/libblelib.a(smpc_api.o)
                0x0011e13c                smpc_pairing_irk_exch
 .text.smpc_pairing_oob_exch
                0x0011e17c       0xc0 C:/Users/xeeen/ON_Semiconductor/PACK/ONSemiconductor/RSL10/3.7.606/lib/ble_core/Release/libblelib.a(smpc_api.o)
                0x0011e17c                smpc_pairing_oob_exch
 .text.smpc_pairing_nc_exch
                0x0011e23c       0x58 C:/Users/xeeen/ON_Semiconductor/PACK/ONSemiconductor/RSL10/3.7.606/lib/ble_core/Release/libblelib.a(smpc_api.o)
                0x0011e23c                smpc_pairing_nc_exch
 .text.smpc_pairing_csrk_exch
                0x0011e294       0x50 C:/Users/xeeen/ON_Semiconductor/PACK/ONSemiconductor/RSL10/3.7.606/lib/ble_core/Release/libblelib.a(smpc_api.o)
                0x0011e294                smpc_pairing_csrk_exch
 .text.smpc_pairing_rsp
                0x0011e2e4      0x130 C:/Users/xeeen/ON_Semiconductor/PACK/ONSemiconductor/RSL10/3.7.606/lib/ble_core/Release/libblelib.a(smpc_api.o)
                0x0011e2e4                smpc_pairing_rsp
 .text.smpc_pairing_req_handler
                0x0011e414       0x48 C:/Users/xeeen/ON_Semiconductor/PACK/ONSemiconductor/RSL10/3.7.606/lib/ble_core/Release/libblelib.a(smpc_api.o)
                0x0011e414                smpc_pairing_req_handler
 .text.smpc_security_req_send
                0x0011e45c       0x5c C:/Users/xeeen/ON_Semiconductor/PACK/ONSemiconductor/RSL10/3.7.606/lib/ble_core/Release/libblelib.a(smpc_api.o)
                0x0011e45c                smpc_security_req_send
 .text.smpc_encrypt_start
                0x0011e4b8       0x24 C:/Users/xeeen/ON_Semiconductor/PACK/ONSemiconductor/RSL10/3.7.606/lib/ble_core/Release/libblelib.a(smpc_api.o)
                0x0011e4b8                smpc_encrypt_start
 .text.smpc_encrypt_start_handler
                0x0011e4dc       0x34 C:/Users/xeeen/ON_Semiconductor/PACK/ONSemiconductor/RSL10/3.7.606/lib/ble_core/Release/libblelib.a(smpc_api.o)
                0x0011e4dc                smpc_encrypt_start_handler
 .text.smpc_encrypt_cfm
                0x0011e510       0x44 C:/Users/xeeen/ON_Semiconductor/PACK/ONSemiconductor/RSL10/3.7.606/lib/ble_core/Release/libblelib.a(smpc_api.o)
                0x0011e510                smpc_encrypt_cfm
 .text.smpc_sign_command
                0x0011e554       0xc4 C:/Users/xeeen/ON_Semiconductor/PACK/ONSemiconductor/RSL10/3.7.606/lib/ble_core/Release/libblelib.a(smpc_api.o)
                0x0011e554                smpc_sign_command
 .text.smpc_sign_cont
                0x0011e618      0x1c0 C:/Users/xeeen/ON_Semiconductor/PACK/ONSemiconductor/RSL10/3.7.606/lib/ble_core/Release/libblelib.a(smpc_api.o)
                0x0011e618                smpc_sign_cont
 .text.smpc_calc_confirm_cont
                0x0011e7d8      0x598 C:/Users/xeeen/ON_Semiconductor/PACK/ONSemiconductor/RSL10/3.7.606/lib/ble_core/Release/libblelib.a(smpc_api.o)
                0x0011e7d8                smpc_calc_confirm_cont
 .text.smpc_confirm_gen_rand
                0x0011ed70      0x258 C:/Users/xeeen/ON_Semiconductor/PACK/ONSemiconductor/RSL10/3.7.606/lib/ble_core/Release/libblelib.a(smpc_api.o)
                0x0011ed70                smpc_confirm_gen_rand
 .text.smpc_key_press_notification_ind
                0x0011efc8       0x20 C:/Users/xeeen/ON_Semiconductor/PACK/ONSemiconductor/RSL10/3.7.606/lib/ble_core/Release/libblelib.a(smpc_api.o)
                0x0011efc8                smpc_key_press_notification_ind
 .text.smpc_f4_complete
                0x0011efe8       0x30 C:/Users/xeeen/ON_Semiconductor/PACK/ONSemiconductor/RSL10/3.7.606/lib/ble_core/Release/libblelib.a(smpc_crypto.o)
                0x0011efe8                smpc_f4_complete
 .text.smpc_g2_complete
                0x0011f018       0x30 C:/Users/xeeen/ON_Semiconductor/PACK/ONSemiconductor/RSL10/3.7.606/lib/ble_core/Release/libblelib.a(smpc_crypto.o)
                0x0011f018                smpc_g2_complete
 .text.smpc_f5_complete
                0x0011f048       0x34 C:/Users/xeeen/ON_Semiconductor/PACK/ONSemiconductor/RSL10/3.7.606/lib/ble_core/Release/libblelib.a(smpc_crypto.o)
                0x0011f048                smpc_f5_complete
 .text.smpc_f6_complete
                0x0011f07c       0x30 C:/Users/xeeen/ON_Semiconductor/PACK/ONSemiconductor/RSL10/3.7.606/lib/ble_core/Release/libblelib.a(smpc_crypto.o)
                0x0011f07c                smpc_f6_complete
 .text.smpc_aes_cmac_init
                0x0011f0ac       0x68 C:/Users/xeeen/ON_Semiconductor/PACK/ONSemiconductor/RSL10/3.7.606/lib/ble_core/Release/libblelib.a(smpc_crypto.o)
                0x0011f0ac                smpc_aes_cmac_init
 .text.smpc_f4_Init
                0x0011f114       0x78 C:/Users/xeeen/ON_Semiconductor/PACK/ONSemiconductor/RSL10/3.7.606/lib/ble_core/Release/libblelib.a(smpc_crypto.o)
                0x0011f114                smpc_f4_Init
 .text.smpc_g2_init
                0x0011f18c       0x8c C:/Users/xeeen/ON_Semiconductor/PACK/ONSemiconductor/RSL10/3.7.606/lib/ble_core/Release/libblelib.a(smpc_crypto.o)
                0x0011f18c                smpc_g2_init
 .text.smpc_f5_init
                0x0011f218       0xec C:/Users/xeeen/ON_Semiconductor/PACK/ONSemiconductor/RSL10/3.7.606/lib/ble_core/Release/libblelib.a(smpc_crypto.o)
                0x0011f218                smpc_f5_init
 .text.smpc_f6_init
                0x0011f304       0xc4 C:/Users/xeeen/ON_Semiconductor/PACK/ONSemiconductor/RSL10/3.7.606/lib/ble_core/Release/libblelib.a(smpc_crypto.o)
                0x0011f304                smpc_f6_init
 .text.smpc_XOR_16_Byte_Array
                0x0011f3c8       0x20 C:/Users/xeeen/ON_Semiconductor/PACK/ONSemiconductor/RSL10/3.7.606/lib/ble_core/Release/libblelib.a(smpc_crypto.o)
                0x0011f3c8                smpc_XOR_16_Byte_Array
 .text.smpc_aes_cmac_complete
                0x0011f3e8       0x4c C:/Users/xeeen/ON_Semiconductor/PACK/ONSemiconductor/RSL10/3.7.606/lib/ble_core/Release/libblelib.a(smpc_crypto.o)
                0x0011f3e8                smpc_aes_cmac_complete
 .text.smpc_ShiftLeft1Bit16ByteNum
                0x0011f434       0x28 C:/Users/xeeen/ON_Semiconductor/PACK/ONSemiconductor/RSL10/3.7.606/lib/ble_core/Release/libblelib.a(smpc_crypto.o)
                0x0011f434                smpc_ShiftLeft1Bit16ByteNum
 .text.smpc_aes_cmac_continue
                0x0011f45c      0x148 C:/Users/xeeen/ON_Semiconductor/PACK/ONSemiconductor/RSL10/3.7.606/lib/ble_core/Release/libblelib.a(smpc_crypto.o)
                0x0011f45c                smpc_aes_cmac_continue
 .text.smpc_process_aes_cmac
                0x0011f5a4       0x44 C:/Users/xeeen/ON_Semiconductor/PACK/ONSemiconductor/RSL10/3.7.606/lib/ble_core/Release/libblelib.a(smpc_crypto.o)
                0x0011f5a4                smpc_process_aes_cmac
 .text.smpc_construct_pair_fail_pdu
                0x0011f5e8        0x6 C:/Users/xeeen/ON_Semiconductor/PACK/ONSemiconductor/RSL10/3.7.606/lib/ble_core/Release/libblelib.a(smpc_util.o)
 .text.smpc_construct_sec_req_pdu
                0x0011f5ee        0x6 C:/Users/xeeen/ON_Semiconductor/PACK/ONSemiconductor/RSL10/3.7.606/lib/ble_core/Release/libblelib.a(smpc_util.o)
 .text.smpc_construcpublic_key_t_pdu
                0x0011f5f4       0x1a C:/Users/xeeen/ON_Semiconductor/PACK/ONSemiconductor/RSL10/3.7.606/lib/ble_core/Release/libblelib.a(smpc_util.o)
 .text.smpc_construct_keypress_notification_pdu
                0x0011f60e        0x6 C:/Users/xeeen/ON_Semiconductor/PACK/ONSemiconductor/RSL10/3.7.606/lib/ble_core/Release/libblelib.a(smpc_util.o)
 .text.smpc_construct_dhkey_check_pdu
                0x0011f614       0x14 C:/Users/xeeen/ON_Semiconductor/PACK/ONSemiconductor/RSL10/3.7.606/lib/ble_core/Release/libblelib.a(smpc_util.o)
 .text.smpc_construct_sign_info_pdu
                0x0011f628       0x14 C:/Users/xeeen/ON_Semiconductor/PACK/ONSemiconductor/RSL10/3.7.606/lib/ble_core/Release/libblelib.a(smpc_util.o)
 .text.smpc_construct_id_info_pdu
                0x0011f63c       0x14 C:/Users/xeeen/ON_Semiconductor/PACK/ONSemiconductor/RSL10/3.7.606/lib/ble_core/Release/libblelib.a(smpc_util.o)
 .text.smpc_construct_mst_id_pdu
                0x0011f650       0x14 C:/Users/xeeen/ON_Semiconductor/PACK/ONSemiconductor/RSL10/3.7.606/lib/ble_core/Release/libblelib.a(smpc_util.o)
 .text.smpc_construct_enc_info_pdu
                0x0011f664       0x14 C:/Users/xeeen/ON_Semiconductor/PACK/ONSemiconductor/RSL10/3.7.606/lib/ble_core/Release/libblelib.a(smpc_util.o)
 .text.smpc_construct_pair_rand_pdu
                0x0011f678       0x14 C:/Users/xeeen/ON_Semiconductor/PACK/ONSemiconductor/RSL10/3.7.606/lib/ble_core/Release/libblelib.a(smpc_util.o)
 .text.smpc_construct_pair_cfm_pdu
                0x0011f68c       0x14 C:/Users/xeeen/ON_Semiconductor/PACK/ONSemiconductor/RSL10/3.7.606/lib/ble_core/Release/libblelib.a(smpc_util.o)
 .text.smpc_construct_pair_rsp_pdu
                0x0011f6a0        0xe C:/Users/xeeen/ON_Semiconductor/PACK/ONSemiconductor/RSL10/3.7.606/lib/ble_core/Release/libblelib.a(smpc_util.o)
 .text.smpc_construct_pair_req_pdu
                0x0011f6ae        0xe C:/Users/xeeen/ON_Semiconductor/PACK/ONSemiconductor/RSL10/3.7.606/lib/ble_core/Release/libblelib.a(smpc_util.o)
 .text.smpc_construct_id_addr_info_pdu
                0x0011f6bc       0x1e C:/Users/xeeen/ON_Semiconductor/PACK/ONSemiconductor/RSL10/3.7.606/lib/ble_core/Release/libblelib.a(smpc_util.o)
 *fill*         0x0011f6da        0x2 
 .text.smpc_recv_keypress_notification_pdu
                0x0011f6dc       0x48 C:/Users/xeeen/ON_Semiconductor/PACK/ONSemiconductor/RSL10/3.7.606/lib/ble_core/Release/libblelib.a(smpc_util.o)
 .text.smpc_recv_dhkey_check_pdu
                0x0011f724       0x60 C:/Users/xeeen/ON_Semiconductor/PACK/ONSemiconductor/RSL10/3.7.606/lib/ble_core/Release/libblelib.a(smpc_util.o)
 .text.smpc_recv_public_key_pdu
                0x0011f784       0xec C:/Users/xeeen/ON_Semiconductor/PACK/ONSemiconductor/RSL10/3.7.606/lib/ble_core/Release/libblelib.a(smpc_util.o)
 .text.smpc_recv_pair_fail_pdu
                0x0011f870       0x40 C:/Users/xeeen/ON_Semiconductor/PACK/ONSemiconductor/RSL10/3.7.606/lib/ble_core/Release/libblelib.a(smpc_util.o)
 .text.smpc_recv_id_addr_info_pdu
                0x0011f8b0       0x60 C:/Users/xeeen/ON_Semiconductor/PACK/ONSemiconductor/RSL10/3.7.606/lib/ble_core/Release/libblelib.a(smpc_util.o)
 .text.smpc_recv_id_info_pdu
                0x0011f910       0x3c C:/Users/xeeen/ON_Semiconductor/PACK/ONSemiconductor/RSL10/3.7.606/lib/ble_core/Release/libblelib.a(smpc_util.o)
 .text.smpc_recv_enc_info_pdu
                0x0011f94c       0x3c C:/Users/xeeen/ON_Semiconductor/PACK/ONSemiconductor/RSL10/3.7.606/lib/ble_core/Release/libblelib.a(smpc_util.o)
 .text.smpc_recv_mst_id_pdu
                0x0011f988       0x68 C:/Users/xeeen/ON_Semiconductor/PACK/ONSemiconductor/RSL10/3.7.606/lib/ble_core/Release/libblelib.a(smpc_util.o)
 .text.smpc_recv_pair_rand_pdu
                0x0011f9f0      0x1c8 C:/Users/xeeen/ON_Semiconductor/PACK/ONSemiconductor/RSL10/3.7.606/lib/ble_core/Release/libblelib.a(smpc_util.o)
 .text.smpc_recv_pair_cfm_pdu
                0x0011fbb8      0x110 C:/Users/xeeen/ON_Semiconductor/PACK/ONSemiconductor/RSL10/3.7.606/lib/ble_core/Release/libblelib.a(smpc_util.o)
 .text.smpc_recv_sec_req_pdu
                0x0011fcc8       0x7c C:/Users/xeeen/ON_Semiconductor/PACK/ONSemiconductor/RSL10/3.7.606/lib/ble_core/Release/libblelib.a(smpc_util.o)
 .text.smpc_recv_sign_info_pdu
                0x0011fd44       0x34 C:/Users/xeeen/ON_Semiconductor/PACK/ONSemiconductor/RSL10/3.7.606/lib/ble_core/Release/libblelib.a(smpc_util.o)
 .text.smpc_recv_pair_rsp_pdu
                0x0011fd78      0x128 C:/Users/xeeen/ON_Semiconductor/PACK/ONSemiconductor/RSL10/3.7.606/lib/ble_core/Release/libblelib.a(smpc_util.o)
 .text.smpc_recv_pair_req_pdu
                0x0011fea0       0xac C:/Users/xeeen/ON_Semiconductor/PACK/ONSemiconductor/RSL10/3.7.606/lib/ble_core/Release/libblelib.a(smpc_util.o)
 .text.smpc_check_param
                0x0011ff4c       0x78 C:/Users/xeeen/ON_Semiconductor/PACK/ONSemiconductor/RSL10/3.7.606/lib/ble_core/Release/libblelib.a(smpc_util.o)
                0x0011ff4c                smpc_check_param
 .text.hci_le_rd_adv_chnl_tx_pw_cmd_cmp_evt_handler
                0x0011ffc4       0x46 C:/Users/xeeen/ON_Semiconductor/PACK/ONSemiconductor/RSL10/3.7.606/lib/ble_core/Release/libblelib.a(gapm_hci.o)
 .text.hci_test_end_cmd_cmp_evt_handler
                0x0012000a       0x3a C:/Users/xeeen/ON_Semiconductor/PACK/ONSemiconductor/RSL10/3.7.606/lib/ble_core/Release/libblelib.a(gapm_hci.o)
 .text.hci_le_enh_con_cmp_evt_handler
                0x00120044       0x1c C:/Users/xeeen/ON_Semiconductor/PACK/ONSemiconductor/RSL10/3.7.606/lib/ble_core/Release/libblelib.a(gapm_hci.o)
 .text.hci_basic_cmd_cmp_evt_rl_handler
                0x00120060       0xb8 C:/Users/xeeen/ON_Semiconductor/PACK/ONSemiconductor/RSL10/3.7.606/lib/ble_core/Release/libblelib.a(gapm_hci.o)
 .text.hci_basic_cmd_cmp_evt_cfg_handler
                0x00120118       0xa4 C:/Users/xeeen/ON_Semiconductor/PACK/ONSemiconductor/RSL10/3.7.606/lib/ble_core/Release/libblelib.a(gapm_hci.o)
 .text.hci_no_operation_cmd_cmp_evt_handler
                0x001201bc       0x12 C:/Users/xeeen/ON_Semiconductor/PACK/ONSemiconductor/RSL10/3.7.606/lib/ble_core/Release/libblelib.a(gapm_hci.o)
 .text.hci_rd_buff_size_cmd_cmp_evt_handler
                0x001201ce       0x22 C:/Users/xeeen/ON_Semiconductor/PACK/ONSemiconductor/RSL10/3.7.606/lib/ble_core/Release/libblelib.a(gapm_hci.o)
 .text.hci_le_rd_buff_size_cmd_cmp_evt_handler
                0x001201f0       0x22 C:/Users/xeeen/ON_Semiconductor/PACK/ONSemiconductor/RSL10/3.7.606/lib/ble_core/Release/libblelib.a(gapm_hci.o)
 .text.hci_le_generate_dhkey_cmp_evt_handler
                0x00120212       0x5a C:/Users/xeeen/ON_Semiconductor/PACK/ONSemiconductor/RSL10/3.7.606/lib/ble_core/Release/libblelib.a(gapm_hci.o)
 .text.hci_le_rd_local_p256_public_key_cmp_evt_handler
                0x0012026c       0x60 C:/Users/xeeen/ON_Semiconductor/PACK/ONSemiconductor/RSL10/3.7.606/lib/ble_core/Release/libblelib.a(gapm_hci.o)
 .text.hci_le_rd_ral_addr_cmd_cmp_evt_handler
                0x001202cc       0x68 C:/Users/xeeen/ON_Semiconductor/PACK/ONSemiconductor/RSL10/3.7.606/lib/ble_core/Release/libblelib.a(gapm_hci.o)
 .text.hci_le_rd_ral_size_cmd_cmp_evt_handler
                0x00120334       0x50 C:/Users/xeeen/ON_Semiconductor/PACK/ONSemiconductor/RSL10/3.7.606/lib/ble_core/Release/libblelib.a(gapm_hci.o)
 .text.hci_le_rd_wlst_size_cmd_cmp_evt_handler
                0x00120384       0x50 C:/Users/xeeen/ON_Semiconductor/PACK/ONSemiconductor/RSL10/3.7.606/lib/ble_core/Release/libblelib.a(gapm_hci.o)
 .text.hci_le_rd_max_data_len_cmd_cmp_evt_handler
                0x001203d4       0x44 C:/Users/xeeen/ON_Semiconductor/PACK/ONSemiconductor/RSL10/3.7.606/lib/ble_core/Release/libblelib.a(gapm_hci.o)
 .text.hci_le_rd_suggted_dft_data_len_cmd_cmp_evt_handler
                0x00120418       0x3c C:/Users/xeeen/ON_Semiconductor/PACK/ONSemiconductor/RSL10/3.7.606/lib/ble_core/Release/libblelib.a(gapm_hci.o)
 .text.hci_rd_local_ver_info_cmd_cmp_evt_handler
                0x00120454       0x6a C:/Users/xeeen/ON_Semiconductor/PACK/ONSemiconductor/RSL10/3.7.606/lib/ble_core/Release/libblelib.a(gapm_hci.o)
 .text.hci_le_con_cmp_evt_handler
                0x001204be       0x58 C:/Users/xeeen/ON_Semiconductor/PACK/ONSemiconductor/RSL10/3.7.606/lib/ble_core/Release/libblelib.a(gapm_hci.o)
 *fill*         0x00120516        0x2 
 .text.hci_le_dir_adv_report_evt_handler
                0x00120518       0x94 C:/Users/xeeen/ON_Semiconductor/PACK/ONSemiconductor/RSL10/3.7.606/lib/ble_core/Release/libblelib.a(gapm_hci.o)
 .text.hci_le_adv_report_evt_handler
                0x001205ac       0xd8 C:/Users/xeeen/ON_Semiconductor/PACK/ONSemiconductor/RSL10/3.7.606/lib/ble_core/Release/libblelib.a(gapm_hci.o)
 .text.hci_basic_cmd_cmp_evt_connect_handler
                0x00120684       0x4c C:/Users/xeeen/ON_Semiconductor/PACK/ONSemiconductor/RSL10/3.7.606/lib/ble_core/Release/libblelib.a(gapm_hci.o)
 .text.hci_basic_cmd_cmp_evt_scan_handler
                0x001206d0       0x5c C:/Users/xeeen/ON_Semiconductor/PACK/ONSemiconductor/RSL10/3.7.606/lib/ble_core/Release/libblelib.a(gapm_hci.o)
 .text.hci_basic_cmd_cmp_evt_addr_set_handler
                0x0012072c       0x7c C:/Users/xeeen/ON_Semiconductor/PACK/ONSemiconductor/RSL10/3.7.606/lib/ble_core/Release/libblelib.a(gapm_hci.o)
 .text.hci_basic_cmd_cmp_evt_wl_handler
                0x001207a8       0x78 C:/Users/xeeen/ON_Semiconductor/PACK/ONSemiconductor/RSL10/3.7.606/lib/ble_core/Release/libblelib.a(gapm_hci.o)
 .text.hci_le_rand_cmd_cmp_evt_handler
                0x00120820       0xc8 C:/Users/xeeen/ON_Semiconductor/PACK/ONSemiconductor/RSL10/3.7.606/lib/ble_core/Release/libblelib.a(gapm_hci.o)
 .text.hci_le_enc_cmd_cmp_evt_handler
                0x001208e8      0x140 C:/Users/xeeen/ON_Semiconductor/PACK/ONSemiconductor/RSL10/3.7.606/lib/ble_core/Release/libblelib.a(gapm_hci.o)
 .text.hci_basic_cmd_cmp_evt_adv_handler
                0x00120a28       0xd0 C:/Users/xeeen/ON_Semiconductor/PACK/ONSemiconductor/RSL10/3.7.606/lib/ble_core/Release/libblelib.a(gapm_hci.o)
 .text.hci_rd_bd_addr_cmd_cmp_evt_handler
                0x00120af8       0x50 C:/Users/xeeen/ON_Semiconductor/PACK/ONSemiconductor/RSL10/3.7.606/lib/ble_core/Release/libblelib.a(gapm_hci.o)
 .text.hci_le_gen_dhkey_stat_evt_handler
                0x00120b48       0x26 C:/Users/xeeen/ON_Semiconductor/PACK/ONSemiconductor/RSL10/3.7.606/lib/ble_core/Release/libblelib.a(gapm_hci.o)
                0x00120b48                hci_le_gen_dhkey_stat_evt_handler
 *fill*         0x00120b6e        0x2 
 .text.gapm_hci_handler
                0x00120b70       0x64 C:/Users/xeeen/ON_Semiconductor/PACK/ONSemiconductor/RSL10/3.7.606/lib/ble_core/Release/libblelib.a(gapm_hci.o)
                0x00120b70                gapm_hci_handler
 .text.hci_enc_key_refr_evt_handler
                0x00120bd4       0x22 C:/Users/xeeen/ON_Semiconductor/PACK/ONSemiconductor/RSL10/3.7.606/lib/ble_core/Release/libblelib.a(gapc_hci.o)
 .text.hci_enc_chg_evt_handler
                0x00120bf6       0x22 C:/Users/xeeen/ON_Semiconductor/PACK/ONSemiconductor/RSL10/3.7.606/lib/ble_core/Release/libblelib.a(gapc_hci.o)
 .text.hci_rd_rem_ver_info_cmp_evt_handler
                0x00120c18       0x8c C:/Users/xeeen/ON_Semiconductor/PACK/ONSemiconductor/RSL10/3.7.606/lib/ble_core/Release/libblelib.a(gapc_hci.o)
 .text.hci_le_phy_update_cmp_evt_handler
                0x00120ca4       0x58 C:/Users/xeeen/ON_Semiconductor/PACK/ONSemiconductor/RSL10/3.7.606/lib/ble_core/Release/libblelib.a(gapc_hci.o)
 .text.hci_le_start_enc_stat_evt_handler
                0x00120cfc       0x24 C:/Users/xeeen/ON_Semiconductor/PACK/ONSemiconductor/RSL10/3.7.606/lib/ble_core/Release/libblelib.a(gapc_hci.o)
 .text.hci_le_rd_phy_cmd_cmp_evt_handler
                0x00120d20       0x4c C:/Users/xeeen/ON_Semiconductor/PACK/ONSemiconductor/RSL10/3.7.606/lib/ble_core/Release/libblelib.a(gapc_hci.o)
 .text.hci_le_set_data_len_cmd_cmp_evt_handler
                0x00120d6c       0x28 C:/Users/xeeen/ON_Semiconductor/PACK/ONSemiconductor/RSL10/3.7.606/lib/ble_core/Release/libblelib.a(gapc_hci.o)
 .text.hci_vs_set_pref_slave_latency_cmd_cmp_evt_handler
                0x00120d94        0x4 C:/Users/xeeen/ON_Semiconductor/PACK/ONSemiconductor/RSL10/3.7.606/lib/ble_core/Release/libblelib.a(gapc_hci.o)
 .text.hci_vs_set_max_rx_size_and_time_cmd_cmp_evt_handler
                0x00120d98        0x4 C:/Users/xeeen/ON_Semiconductor/PACK/ONSemiconductor/RSL10/3.7.606/lib/ble_core/Release/libblelib.a(gapc_hci.o)
 .text.hci_wr_auth_payl_to_cmd_cmp_evt_handler
                0x00120d9c       0x24 C:/Users/xeeen/ON_Semiconductor/PACK/ONSemiconductor/RSL10/3.7.606/lib/ble_core/Release/libblelib.a(gapc_hci.o)
 .text.hci_rd_auth_payl_to_cmd_cmp_evt_handler
                0x00120dc0       0x46 C:/Users/xeeen/ON_Semiconductor/PACK/ONSemiconductor/RSL10/3.7.606/lib/ble_core/Release/libblelib.a(gapc_hci.o)
 .text.hci_rd_rssi_cmd_cmp_evt_handler
                0x00120e06       0x5e C:/Users/xeeen/ON_Semiconductor/PACK/ONSemiconductor/RSL10/3.7.606/lib/ble_core/Release/libblelib.a(gapc_hci.o)
 .text.hci_disc_cmp_evt_handler
                0x00120e64       0x58 C:/Users/xeeen/ON_Semiconductor/PACK/ONSemiconductor/RSL10/3.7.606/lib/ble_core/Release/libblelib.a(gapc_hci.o)
 .text.hci_le_rd_rem_used_feats_cmp_evt_handler
                0x00120ebc       0xb4 C:/Users/xeeen/ON_Semiconductor/PACK/ONSemiconductor/RSL10/3.7.606/lib/ble_core/Release/libblelib.a(gapc_hci.o)
 .text.hci_rd_chnl_map_cmd_cmp_evt_handler
                0x00120f70       0x62 C:/Users/xeeen/ON_Semiconductor/PACK/ONSemiconductor/RSL10/3.7.606/lib/ble_core/Release/libblelib.a(gapc_hci.o)
 *fill*         0x00120fd2        0x2 
 .text.hci_le_ltk_request_evt_handler
                0x00120fd4       0xc8 C:/Users/xeeen/ON_Semiconductor/PACK/ONSemiconductor/RSL10/3.7.606/lib/ble_core/Release/libblelib.a(gapc_hci.o)
 .text.hci_le_con_update_cmp_evt_handler
                0x0012109c       0x84 C:/Users/xeeen/ON_Semiconductor/PACK/ONSemiconductor/RSL10/3.7.606/lib/ble_core/Release/libblelib.a(gapc_hci.o)
 .text.hci_cmd_stat_event_handler
                0x00121120       0xf4 C:/Users/xeeen/ON_Semiconductor/PACK/ONSemiconductor/RSL10/3.7.606/lib/ble_core/Release/libblelib.a(gapc_hci.o)
 .text.hci_auth_payl_to_exp_evt_handler
                0x00121214       0x1e C:/Users/xeeen/ON_Semiconductor/PACK/ONSemiconductor/RSL10/3.7.606/lib/ble_core/Release/libblelib.a(gapc_hci.o)
 .text.hci_le_data_len_chg_evt_handler
                0x00121232       0x36 C:/Users/xeeen/ON_Semiconductor/PACK/ONSemiconductor/RSL10/3.7.606/lib/ble_core/Release/libblelib.a(gapc_hci.o)
 .text.hci_le_rem_con_param_req_evt_handler
                0x00121268       0x54 C:/Users/xeeen/ON_Semiconductor/PACK/ONSemiconductor/RSL10/3.7.606/lib/ble_core/Release/libblelib.a(gapc_hci.o)
 .text.gapc_hci_handler
                0x001212bc       0x68 C:/Users/xeeen/ON_Semiconductor/PACK/ONSemiconductor/RSL10/3.7.606/lib/ble_core/Release/libblelib.a(gapc_hci.o)
                0x001212bc                gapc_hci_handler
 .text.l2c_code_reject_handler
                0x00121324       0x44 C:/Users/xeeen/ON_Semiconductor/PACK/ONSemiconductor/RSL10/3.7.606/lib/ble_core/Release/libblelib.a(gapc_sig.o)
 .text.l2c_code_conn_param_upd_resp_handler
                0x00121368       0x44 C:/Users/xeeen/ON_Semiconductor/PACK/ONSemiconductor/RSL10/3.7.606/lib/ble_core/Release/libblelib.a(gapc_sig.o)
 .text.gapc_sig_send_param_resp
                0x001213ac       0x26 C:/Users/xeeen/ON_Semiconductor/PACK/ONSemiconductor/RSL10/3.7.606/lib/ble_core/Release/libblelib.a(gapc_sig.o)
                0x001213ac                gapc_sig_send_param_resp
 *fill*         0x001213d2        0x2 
 .text.l2c_code_conn_param_upd_req_handler
                0x001213d4       0x68 C:/Users/xeeen/ON_Semiconductor/PACK/ONSemiconductor/RSL10/3.7.606/lib/ble_core/Release/libblelib.a(gapc_sig.o)
 .text.gapc_sig_pdu_recv_handler
                0x0012143c       0x2c C:/Users/xeeen/ON_Semiconductor/PACK/ONSemiconductor/RSL10/3.7.606/lib/ble_core/Release/libblelib.a(gapc_sig.o)
                0x0012143c                gapc_sig_pdu_recv_handler
 .text.platform_reset
                0x00121468       0x30 C:/Users/xeeen/ON_Semiconductor/PACK/ONSemiconductor/RSL10/3.7.606/lib/ble_core/Release/libkelib.a(rst_grosstime.o)
                0x00121468                platform_reset
 .text.ea_time_get_halfslot_rounded
                0x00121498       0x1c C:/Users/xeeen/ON_Semiconductor/PACK/ONSemiconductor/RSL10/3.7.606/lib/ble_core/Release/libkelib.a(rst_grosstime.o)
                0x00121498                ea_time_get_halfslot_rounded
 .text.lld_evt_timer_isr
                0x001214b4        0x6 C:/Users/xeeen/ON_Semiconductor/PACK/ONSemiconductor/RSL10/3.7.606/lib/ble_core/Release/libkelib.a(rst_grosstime.o)
                0x001214b4                lld_evt_timer_isr
 *fill*         0x001214ba        0x2 
 .text.grosstimer_isr
                0x001214bc       0x20 C:/Users/xeeen/ON_Semiconductor/PACK/ONSemiconductor/RSL10/3.7.606/lib/ble_core/Release/libkelib.a(rst_grosstime.o)
                0x001214bc                grosstimer_isr
                0x001214bc                BLE_GROSSTGTIM_IRQHandler
 .text.Kernel_Init
                0x001214dc       0x60 C:/Users/xeeen/ON_Semiconductor/PACK/ONSemiconductor/RSL10/3.7.606/lib/ble_core/Release/libkelib.a(rwip2.o)
                0x001214dc                Kernel_Init
 .text.Kernel_Schedule
                0x0012153c       0x14 C:/Users/xeeen/ON_Semiconductor/PACK/ONSemiconductor/RSL10/3.7.606/lib/ble_core/Release/libkelib.a(rwip2.o)
                0x0012153c                Kernel_Schedule
 .text.ke_init  0x00121550       0x38 C:/Users/xeeen/ON_Semiconductor/PACK/ONSemiconductor/RSL10/3.7.606/lib/ble_core/Release/libkelib.a(ke.o)
                0x00121550                ke_init
 .text.ke_flush
                0x00121588       0x48 C:/Users/xeeen/ON_Semiconductor/PACK/ONSemiconductor/RSL10/3.7.606/lib/ble_core/Release/libkelib.a(ke.o)
                0x00121588                ke_flush
 .text.ke_event_init
                0x001215d0       0x10 C:/Users/xeeen/ON_Semiconductor/PACK/ONSemiconductor/RSL10/3.7.606/lib/ble_core/Release/libkelib.a(ke_event.o)
                0x001215d0                ke_event_init
 .text.ke_event_callback_set
                0x001215e0       0x18 C:/Users/xeeen/ON_Semiconductor/PACK/ONSemiconductor/RSL10/3.7.606/lib/ble_core/Release/libkelib.a(ke_event.o)
                0x001215e0                ke_event_callback_set
 .text.ke_event_set
                0x001215f8       0x24 C:/Users/xeeen/ON_Semiconductor/PACK/ONSemiconductor/RSL10/3.7.606/lib/ble_core/Release/libkelib.a(ke_event.o)
                0x001215f8                ke_event_set
 .text.ke_event_clear
                0x0012161c       0x28 C:/Users/xeeen/ON_Semiconductor/PACK/ONSemiconductor/RSL10/3.7.606/lib/ble_core/Release/libkelib.a(ke_event.o)
                0x0012161c                ke_event_clear
 .text.ke_event_flush
                0x00121644        0xc C:/Users/xeeen/ON_Semiconductor/PACK/ONSemiconductor/RSL10/3.7.606/lib/ble_core/Release/libkelib.a(ke_event.o)
                0x00121644                ke_event_flush
 .text.ke_event_schedule
                0x00121650       0x28 C:/Users/xeeen/ON_Semiconductor/PACK/ONSemiconductor/RSL10/3.7.606/lib/ble_core/Release/libkelib.a(ke_event.o)
                0x00121650                ke_event_schedule
 .text.ke_mem_init
                0x00121678       0x40 C:/Users/xeeen/ON_Semiconductor/PACK/ONSemiconductor/RSL10/3.7.606/lib/ble_core/Release/libkelib.a(ke_mem.o)
                0x00121678                ke_mem_init
 .text.ke_check_malloc
                0x001216b8       0x7c C:/Users/xeeen/ON_Semiconductor/PACK/ONSemiconductor/RSL10/3.7.606/lib/ble_core/Release/libkelib.a(ke_mem.o)
                0x001216b8                ke_check_malloc
 .text.ke_malloc
                0x00121734       0xac C:/Users/xeeen/ON_Semiconductor/PACK/ONSemiconductor/RSL10/3.7.606/lib/ble_core/Release/libkelib.a(ke_mem.o)
                0x00121734                ke_malloc
 .text.ke_free  0x001217e0       0xd0 C:/Users/xeeen/ON_Semiconductor/PACK/ONSemiconductor/RSL10/3.7.606/lib/ble_core/Release/libkelib.a(ke_mem.o)
                0x001217e0                ke_free
 .text.ke_is_free
                0x001218b0       0x10 C:/Users/xeeen/ON_Semiconductor/PACK/ONSemiconductor/RSL10/3.7.606/lib/ble_core/Release/libkelib.a(ke_mem.o)
                0x001218b0                ke_is_free
 .text.ke_msg_alloc
                0x001218c0       0x34 C:/Users/xeeen/ON_Semiconductor/PACK/ONSemiconductor/RSL10/3.7.606/lib/ble_core/Release/libkelib.a(ke_msg.o)
                0x001218c0                ke_msg_alloc
 .text.ke_msg_send
                0x001218f4       0x28 C:/Users/xeeen/ON_Semiconductor/PACK/ONSemiconductor/RSL10/3.7.606/lib/ble_core/Release/libkelib.a(ke_msg.o)
                0x001218f4                ke_msg_send
 .text.ke_msg_send_basic
                0x0012191c       0x10 C:/Users/xeeen/ON_Semiconductor/PACK/ONSemiconductor/RSL10/3.7.606/lib/ble_core/Release/libkelib.a(ke_msg.o)
                0x0012191c                ke_msg_send_basic
 .text.ke_msg_forward
                0x0012192c        0xc C:/Users/xeeen/ON_Semiconductor/PACK/ONSemiconductor/RSL10/3.7.606/lib/ble_core/Release/libkelib.a(ke_msg.o)
                0x0012192c                ke_msg_forward
 .text.ke_msg_free
                0x00121938        0x4 C:/Users/xeeen/ON_Semiconductor/PACK/ONSemiconductor/RSL10/3.7.606/lib/ble_core/Release/libkelib.a(ke_msg.o)
                0x00121938                ke_msg_free
 .text.ke_msg_src_id_get
                0x0012193c        0x6 C:/Users/xeeen/ON_Semiconductor/PACK/ONSemiconductor/RSL10/3.7.606/lib/ble_core/Release/libkelib.a(ke_msg.o)
                0x0012193c                ke_msg_src_id_get
 .text.ke_msg_in_queue
                0x00121942        0xc C:/Users/xeeen/ON_Semiconductor/PACK/ONSemiconductor/RSL10/3.7.606/lib/ble_core/Release/libkelib.a(ke_msg.o)
                0x00121942                ke_msg_in_queue
 .text.cmp_dest_id
                0x0012194e        0xa C:/Users/xeeen/ON_Semiconductor/PACK/ONSemiconductor/RSL10/3.7.606/lib/ble_core/Release/libkelib.a(ke_task.o)
 .text.ke_handler_search
                0x00121958       0x2c C:/Users/xeeen/ON_Semiconductor/PACK/ONSemiconductor/RSL10/3.7.606/lib/ble_core/Release/libkelib.a(ke_task.o)
 .text.ke_task_schedule
                0x00121984       0xb4 C:/Users/xeeen/ON_Semiconductor/PACK/ONSemiconductor/RSL10/3.7.606/lib/ble_core/Release/libkelib.a(ke_task.o)
 .text.ke_task_init
                0x00121a38       0x20 C:/Users/xeeen/ON_Semiconductor/PACK/ONSemiconductor/RSL10/3.7.606/lib/ble_core/Release/libkelib.a(ke_task.o)
                0x00121a38                ke_task_init
 .text.ke_task_create
                0x00121a58       0x30 C:/Users/xeeen/ON_Semiconductor/PACK/ONSemiconductor/RSL10/3.7.606/lib/ble_core/Release/libkelib.a(ke_task.o)
                0x00121a58                ke_task_create
 .text.ke_state_set
                0x00121a88       0x70 C:/Users/xeeen/ON_Semiconductor/PACK/ONSemiconductor/RSL10/3.7.606/lib/ble_core/Release/libkelib.a(ke_task.o)
                0x00121a88                ke_state_set
 .text.ke_state_get
                0x00121af8       0x28 C:/Users/xeeen/ON_Semiconductor/PACK/ONSemiconductor/RSL10/3.7.606/lib/ble_core/Release/libkelib.a(ke_task.o)
                0x00121af8                ke_state_get
 .text.ke_msg_discard
                0x00121b20        0x4 C:/Users/xeeen/ON_Semiconductor/PACK/ONSemiconductor/RSL10/3.7.606/lib/ble_core/Release/libkelib.a(ke_task.o)
                0x00121b20                ke_msg_discard
 .text.ke_task_msg_flush
                0x00121b24       0x40 C:/Users/xeeen/ON_Semiconductor/PACK/ONSemiconductor/RSL10/3.7.606/lib/ble_core/Release/libkelib.a(ke_task.o)
                0x00121b24                ke_task_msg_flush
 .text.cmp_abs_time
                0x00121b64        0xc C:/Users/xeeen/ON_Semiconductor/PACK/ONSemiconductor/RSL10/3.7.606/lib/ble_core/Release/libkelib.a(ke_timer.o)
 .text.cmp_timer_id
                0x00121b70       0x18 C:/Users/xeeen/ON_Semiconductor/PACK/ONSemiconductor/RSL10/3.7.606/lib/ble_core/Release/libkelib.a(ke_timer.o)
 .text.ke_timer_hw_set
                0x00121b88       0x34 C:/Users/xeeen/ON_Semiconductor/PACK/ONSemiconductor/RSL10/3.7.606/lib/ble_core/Release/libkelib.a(ke_timer.o)
 .text.ke_time_past
                0x00121bbc       0x18 C:/Users/xeeen/ON_Semiconductor/PACK/ONSemiconductor/RSL10/3.7.606/lib/ble_core/Release/libkelib.a(ke_timer.o)
 .text.ke_timer_schedule
                0x00121bd4       0x60 C:/Users/xeeen/ON_Semiconductor/PACK/ONSemiconductor/RSL10/3.7.606/lib/ble_core/Release/libkelib.a(ke_timer.o)
 .text.ke_timer_init
                0x00121c34        0xc C:/Users/xeeen/ON_Semiconductor/PACK/ONSemiconductor/RSL10/3.7.606/lib/ble_core/Release/libkelib.a(ke_timer.o)
                0x00121c34                ke_timer_init
 .text.ke_timer_set
                0x00121c40       0xb0 C:/Users/xeeen/ON_Semiconductor/PACK/ONSemiconductor/RSL10/3.7.606/lib/ble_core/Release/libkelib.a(ke_timer.o)
                0x00121c40                ke_timer_set
 .text.ke_timer_clear
                0x00121cf0       0x68 C:/Users/xeeen/ON_Semiconductor/PACK/ONSemiconductor/RSL10/3.7.606/lib/ble_core/Release/libkelib.a(ke_timer.o)
                0x00121cf0                ke_timer_clear
 .text.ke_timer_active
                0x00121d58       0x24 C:/Users/xeeen/ON_Semiconductor/PACK/ONSemiconductor/RSL10/3.7.606/lib/ble_core/Release/libkelib.a(ke_timer.o)
                0x00121d58                ke_timer_active
 .text.co_list_init
                0x00121d7c        0x8 C:/Users/xeeen/ON_Semiconductor/PACK/ONSemiconductor/RSL10/3.7.606/lib/ble_core/Release/libkelib.a(co_list.o)
                0x00121d7c                co_list_init
 .text.co_list_push_back
                0x00121d84       0x14 C:/Users/xeeen/ON_Semiconductor/PACK/ONSemiconductor/RSL10/3.7.606/lib/ble_core/Release/libkelib.a(co_list.o)
                0x00121d84                co_list_push_back
 .text.co_list_push_front
                0x00121d98        0xc C:/Users/xeeen/ON_Semiconductor/PACK/ONSemiconductor/RSL10/3.7.606/lib/ble_core/Release/libkelib.a(co_list.o)
                0x00121d98                co_list_push_front
 .text.co_list_pop_front
                0x00121da4       0x10 C:/Users/xeeen/ON_Semiconductor/PACK/ONSemiconductor/RSL10/3.7.606/lib/ble_core/Release/libkelib.a(co_list.o)
                0x00121da4                co_list_pop_front
 .text.co_list_extract
                0x00121db4       0x36 C:/Users/xeeen/ON_Semiconductor/PACK/ONSemiconductor/RSL10/3.7.606/lib/ble_core/Release/libkelib.a(co_list.o)
                0x00121db4                co_list_extract
 .text.co_list_extract_after
                0x00121dea       0x18 C:/Users/xeeen/ON_Semiconductor/PACK/ONSemiconductor/RSL10/3.7.606/lib/ble_core/Release/libkelib.a(co_list.o)
                0x00121dea                co_list_extract_after
 .text.co_list_find
                0x00121e02       0x12 C:/Users/xeeen/ON_Semiconductor/PACK/ONSemiconductor/RSL10/3.7.606/lib/ble_core/Release/libkelib.a(co_list.o)
                0x00121e02                co_list_find
 .text.co_list_merge
                0x00121e14       0x1a C:/Users/xeeen/ON_Semiconductor/PACK/ONSemiconductor/RSL10/3.7.606/lib/ble_core/Release/libkelib.a(co_list.o)
                0x00121e14                co_list_merge
 .text.co_list_insert_before
                0x00121e2e       0x28 C:/Users/xeeen/ON_Semiconductor/PACK/ONSemiconductor/RSL10/3.7.606/lib/ble_core/Release/libkelib.a(co_list.o)
                0x00121e2e                co_list_insert_before
 .text.co_list_insert_after
                0x00121e56       0x22 C:/Users/xeeen/ON_Semiconductor/PACK/ONSemiconductor/RSL10/3.7.606/lib/ble_core/Release/libkelib.a(co_list.o)
                0x00121e56                co_list_insert_after
 .text.co_list_size
                0x00121e78       0x10 C:/Users/xeeen/ON_Semiconductor/PACK/ONSemiconductor/RSL10/3.7.606/lib/ble_core/Release/libkelib.a(co_list.o)
                0x00121e78                co_list_size
 .text.co_bdaddr_compare
                0x00121e88       0x20 C:/Users/xeeen/ON_Semiconductor/PACK/ONSemiconductor/RSL10/3.7.606/lib/ble_core/Release/libkelib.a(co_utils.o)
                0x00121e88                co_bdaddr_compare
 .text.ke_queue_extract
                0x00121ea8       0x3a C:/Users/xeeen/ON_Semiconductor/PACK/ONSemiconductor/RSL10/3.7.606/lib/ble_core/Release/libkelib.a(ke_queue.o)
                0x00121ea8                ke_queue_extract
 .text.ke_queue_insert
                0x00121ee2       0x2e C:/Users/xeeen/ON_Semiconductor/PACK/ONSemiconductor/RSL10/3.7.606/lib/ble_core/Release/libkelib.a(ke_queue.o)
                0x00121ee2                ke_queue_insert
 .text.basc_destroy
                0x00121f10       0x34 C:/Users/xeeen/ON_Semiconductor/PACK/ONSemiconductor/RSL10/3.7.606/lib/ble_profiles/Release/libbasc.a(basc.o)
 .text.basc_cleanup
                0x00121f44       0x32 C:/Users/xeeen/ON_Semiconductor/PACK/ONSemiconductor/RSL10/3.7.606/lib/ble_profiles/Release/libbasc.a(basc.o)
 .text.basc_create
                0x00121f76        0xe C:/Users/xeeen/ON_Semiconductor/PACK/ONSemiconductor/RSL10/3.7.606/lib/ble_profiles/Release/libbasc.a(basc.o)
 .text.basc_init
                0x00121f84       0x60 C:/Users/xeeen/ON_Semiconductor/PACK/ONSemiconductor/RSL10/3.7.606/lib/ble_profiles/Release/libbasc.a(basc.o)
 .text.basc_prf_itf_get
                0x00121fe4        0x8 C:/Users/xeeen/ON_Semiconductor/PACK/ONSemiconductor/RSL10/3.7.606/lib/ble_profiles/Release/libbasc.a(basc.o)
                0x00121fe4                basc_prf_itf_get
 .text.basc_enable_rsp_send
                0x00121fec       0x94 C:/Users/xeeen/ON_Semiconductor/PACK/ONSemiconductor/RSL10/3.7.606/lib/ble_profiles/Release/libbasc.a(basc.o)
                0x00121fec                basc_enable_rsp_send
 .text.gattc_cmp_evt_handler
                0x00122080      0x150 C:/Users/xeeen/ON_Semiconductor/PACK/ONSemiconductor/RSL10/3.7.606/lib/ble_profiles/Release/libbasc.a(basc_task.o)
 .text.basc_batt_level_ntf_cfg_req_handler
                0x001221d0       0x8c C:/Users/xeeen/ON_Semiconductor/PACK/ONSemiconductor/RSL10/3.7.606/lib/ble_profiles/Release/libbasc.a(basc_task.o)
 .text.basc_read_info_req_handler
                0x0012225c       0xbc C:/Users/xeeen/ON_Semiconductor/PACK/ONSemiconductor/RSL10/3.7.606/lib/ble_profiles/Release/libbasc.a(basc_task.o)
 .text.basc_enable_req_handler
                0x00122318       0x96 C:/Users/xeeen/ON_Semiconductor/PACK/ONSemiconductor/RSL10/3.7.606/lib/ble_profiles/Release/libbasc.a(basc_task.o)
 .text.gattc_event_ind_handler
                0x001223ae       0x68 C:/Users/xeeen/ON_Semiconductor/PACK/ONSemiconductor/RSL10/3.7.606/lib/ble_profiles/Release/libbasc.a(basc_task.o)
 *fill*         0x00122416        0x2 
 .text.gattc_sdp_svc_ind_handler
                0x00122418       0x78 C:/Users/xeeen/ON_Semiconductor/PACK/ONSemiconductor/RSL10/3.7.606/lib/ble_profiles/Release/libbasc.a(basc_task.o)
 .text.gattc_read_ind_handler
                0x00122490       0x8a C:/Users/xeeen/ON_Semiconductor/PACK/ONSemiconductor/RSL10/3.7.606/lib/ble_profiles/Release/libbasc.a(basc_task.o)
 *fill*         0x0012251a        0x2 
 .text.round    0x0012251c       0x98 c:/program files (x86)/on semiconductor/ide_v3.4.0.48/arm_tools/bin/../lib/gcc/arm-none-eabi/10.2.1/../../../../arm-none-eabi/lib/thumb/v7-m/nofp\libm.a(lib_a-s_round.o)
                0x0012251c                round
 .text          0x001225b4      0x378 c:/program files (x86)/on semiconductor/ide_v3.4.0.48/arm_tools/bin/../lib/gcc/arm-none-eabi/10.2.1/thumb/v7-m/nofp\libgcc.a(_arm_addsubdf3.o)
                0x001225b4                __aeabi_drsub
                0x001225bc                __aeabi_dsub
                0x001225bc                __subdf3
                0x001225c0                __aeabi_dadd
                0x001225c0                __adddf3
                0x00122838                __floatunsidf
                0x00122838                __aeabi_ui2d
                0x00122858                __floatsidf
                0x00122858                __aeabi_i2d
                0x0012287c                __aeabi_f2d
                0x0012287c                __extendsfdf2
                0x001228c0                __floatundidf
                0x001228c0                __aeabi_ul2d
                0x001228d0                __floatdidf
                0x001228d0                __aeabi_l2d
 .text          0x0012292c      0x424 c:/program files (x86)/on semiconductor/ide_v3.4.0.48/arm_tools/bin/../lib/gcc/arm-none-eabi/10.2.1/thumb/v7-m/nofp\libgcc.a(_arm_muldivdf3.o)
                0x0012292c                __aeabi_dmul
                0x0012292c                __muldf3
                0x00122b80                __divdf3
                0x00122b80                __aeabi_ddiv
 .text          0x00122d50       0x50 c:/program files (x86)/on semiconductor/ide_v3.4.0.48/arm_tools/bin/../lib/gcc/arm-none-eabi/10.2.1/thumb/v7-m/nofp\libgcc.a(_arm_fixdfsi.o)
                0x00122d50                __aeabi_d2iz
                0x00122d50                __fixdfsi
 .text          0x00122da0       0x40 c:/program files (x86)/on semiconductor/ide_v3.4.0.48/arm_tools/bin/../lib/gcc/arm-none-eabi/10.2.1/thumb/v7-m/nofp\libgcc.a(_arm_fixunsdfsi.o)
                0x00122da0                __aeabi_d2uiz
                0x00122da0                __fixunsdfsi
 .text          0x00122de0       0xa0 c:/program files (x86)/on semiconductor/ide_v3.4.0.48/arm_tools/bin/../lib/gcc/arm-none-eabi/10.2.1/thumb/v7-m/nofp\libgcc.a(_arm_truncdfsf2.o)
                0x00122de0                __truncdfsf2
                0x00122de0                __aeabi_d2f
 .text          0x00122e80       0x4c c:/program files (x86)/on semiconductor/ide_v3.4.0.48/arm_tools/bin/../lib/gcc/arm-none-eabi/10.2.1/thumb/v7-m/nofp\libgcc.a(_arm_fixsfsi.o)
                0x00122e80                __aeabi_f2iz
                0x00122e80                __fixsfsi
 .text.__errno  0x00122ecc        0xc c:/program files (x86)/on semiconductor/ide_v3.4.0.48/arm_tools/bin/../lib/gcc/arm-none-eabi/10.2.1/../../../../arm-none-eabi/lib/thumb/v7-m/nofp\libg_nano.a(lib_a-errno.o)
                0x00122ecc                __errno
 .text.malloc   0x00122ed8       0x10 c:/program files (x86)/on semiconductor/ide_v3.4.0.48/arm_tools/bin/../lib/gcc/arm-none-eabi/10.2.1/../../../../arm-none-eabi/lib/thumb/v7-m/nofp\libg_nano.a(lib_a-malloc.o)
                0x00122ed8                malloc
 .text.free     0x00122ee8       0x10 c:/program files (x86)/on semiconductor/ide_v3.4.0.48/arm_tools/bin/../lib/gcc/arm-none-eabi/10.2.1/../../../../arm-none-eabi/lib/thumb/v7-m/nofp\libg_nano.a(lib_a-malloc.o)
                0x00122ee8                free
 .text.memcmp   0x00122ef8       0x20 c:/program files (x86)/on semiconductor/ide_v3.4.0.48/arm_tools/bin/../lib/gcc/arm-none-eabi/10.2.1/../../../../arm-none-eabi/lib/thumb/v7-m/nofp\libg_nano.a(lib_a-memcmp.o)
                0x00122ef8                memcmp
 .text.memcpy   0x00122f18       0x1c c:/program files (x86)/on semiconductor/ide_v3.4.0.48/arm_tools/bin/../lib/gcc/arm-none-eabi/10.2.1/../../../../arm-none-eabi/lib/thumb/v7-m/nofp\libg_nano.a(lib_a-memcpy-stub.o)
                0x00122f18                memcpy
 .text.memset   0x00122f34       0x10 c:/program files (x86)/on semiconductor/ide_v3.4.0.48/arm_tools/bin/../lib/gcc/arm-none-eabi/10.2.1/../../../../arm-none-eabi/lib/thumb/v7-m/nofp\libg_nano.a(lib_a-memset.o)
                0x00122f34                memset
 .text._free_r  0x00122f44       0x90 c:/program files (x86)/on semiconductor/ide_v3.4.0.48/arm_tools/bin/../lib/gcc/arm-none-eabi/10.2.1/../../../../arm-none-eabi/lib/thumb/v7-m/nofp\libg_nano.a(lib_a-nano-freer.o)
                0x00122f44                _free_r
 .text._malloc_r
                0x00122fd4       0xb4 c:/program files (x86)/on semiconductor/ide_v3.4.0.48/arm_tools/bin/../lib/gcc/arm-none-eabi/10.2.1/../../../../arm-none-eabi/lib/thumb/v7-m/nofp\libg_nano.a(lib_a-nano-mallocr.o)
                0x00122fd4                _malloc_r
 .text.srand    0x00123088       0x5c c:/program files (x86)/on semiconductor/ide_v3.4.0.48/arm_tools/bin/../lib/gcc/arm-none-eabi/10.2.1/../../../../arm-none-eabi/lib/thumb/v7-m/nofp\libg_nano.a(lib_a-rand.o)
                0x00123088                srand
 .text.rand     0x001230e4       0x7c c:/program files (x86)/on semiconductor/ide_v3.4.0.48/arm_tools/bin/../lib/gcc/arm-none-eabi/10.2.1/../../../../arm-none-eabi/lib/thumb/v7-m/nofp\libg_nano.a(lib_a-rand.o)
                0x001230e4                rand
 .text._sbrk_r  0x00123160       0x20 c:/program files (x86)/on semiconductor/ide_v3.4.0.48/arm_tools/bin/../lib/gcc/arm-none-eabi/10.2.1/../../../../arm-none-eabi/lib/thumb/v7-m/nofp\libg_nano.a(lib_a-sbrkr.o)
                0x00123160                _sbrk_r
 .text.__assert_func
                0x00123180       0x3c c:/program files (x86)/on semiconductor/ide_v3.4.0.48/arm_tools/bin/../lib/gcc/arm-none-eabi/10.2.1/../../../../arm-none-eabi/lib/thumb/v7-m/nofp\libg_nano.a(lib_a-assert.o)
                0x00123180                __assert_func
 .text.fprintf  0x001231bc       0x24 c:/program files (x86)/on semiconductor/ide_v3.4.0.48/arm_tools/bin/../lib/gcc/arm-none-eabi/10.2.1/../../../../arm-none-eabi/lib/thumb/v7-m/nofp\libg_nano.a(lib_a-fprintf.o)
                0x001231bc                fiprintf
                0x001231bc                fprintf
 .text.__malloc_lock
                0x001231e0        0xc c:/program files (x86)/on semiconductor/ide_v3.4.0.48/arm_tools/bin/../lib/gcc/arm-none-eabi/10.2.1/../../../../arm-none-eabi/lib/thumb/v7-m/nofp\libg_nano.a(lib_a-mlock.o)
                0x001231e0                __malloc_lock
 .text.__malloc_unlock
                0x001231ec        0xc c:/program files (x86)/on semiconductor/ide_v3.4.0.48/arm_tools/bin/../lib/gcc/arm-none-eabi/10.2.1/../../../../arm-none-eabi/lib/thumb/v7-m/nofp\libg_nano.a(lib_a-mlock.o)
                0x001231ec                __malloc_unlock
 .text.__sfputc_r
                0x001231f8       0x2a c:/program files (x86)/on semiconductor/ide_v3.4.0.48/arm_tools/bin/../lib/gcc/arm-none-eabi/10.2.1/../../../../arm-none-eabi/lib/thumb/v7-m/nofp\libg_nano.a(lib_a-nano-vfprintf.o)
 .text.__sfputs_r
                0x00123222       0x24 c:/program files (x86)/on semiconductor/ide_v3.4.0.48/arm_tools/bin/../lib/gcc/arm-none-eabi/10.2.1/../../../../arm-none-eabi/lib/thumb/v7-m/nofp\libg_nano.a(lib_a-nano-vfprintf.o)
                0x00123222                __sfputs_r
 *fill*         0x00123246        0x2 
 .text._vfprintf_r
                0x00123248      0x260 c:/program files (x86)/on semiconductor/ide_v3.4.0.48/arm_tools/bin/../lib/gcc/arm-none-eabi/10.2.1/../../../../arm-none-eabi/lib/thumb/v7-m/nofp\libg_nano.a(lib_a-nano-vfprintf.o)
                0x00123248                _vfprintf_r
                0x00123248                _vfiprintf_r
 .text._printf_common
                0x001234a8       0xde c:/program files (x86)/on semiconductor/ide_v3.4.0.48/arm_tools/bin/../lib/gcc/arm-none-eabi/10.2.1/../../../../arm-none-eabi/lib/thumb/v7-m/nofp\libg_nano.a(lib_a-nano-vfprintf_i.o)
                0x001234a8                _printf_common
 *fill*         0x00123586        0x2 
 .text._printf_i
                0x00123588      0x24c c:/program files (x86)/on semiconductor/ide_v3.4.0.48/arm_tools/bin/../lib/gcc/arm-none-eabi/10.2.1/../../../../arm-none-eabi/lib/thumb/v7-m/nofp\libg_nano.a(lib_a-nano-vfprintf_i.o)
                0x00123588                _printf_i
 .text.__swbuf_r
                0x001237d4       0xa4 c:/program files (x86)/on semiconductor/ide_v3.4.0.48/arm_tools/bin/../lib/gcc/arm-none-eabi/10.2.1/../../../../arm-none-eabi/lib/thumb/v7-m/nofp\libg_nano.a(lib_a-wbuf.o)
                0x001237d4                __swbuf_r
 .text.__swsetup_r
                0x00123878       0xdc c:/program files (x86)/on semiconductor/ide_v3.4.0.48/arm_tools/bin/../lib/gcc/arm-none-eabi/10.2.1/../../../../arm-none-eabi/lib/thumb/v7-m/nofp\libg_nano.a(lib_a-wsetup.o)
                0x00123878                __swsetup_r
 .text.abort    0x00123954        0xe c:/program files (x86)/on semiconductor/ide_v3.4.0.48/arm_tools/bin/../lib/gcc/arm-none-eabi/10.2.1/../../../../arm-none-eabi/lib/thumb/v7-m/nofp\libg_nano.a(lib_a-abort.o)
                0x00123954                abort
 *fill*         0x00123962        0x2 
 .text.__sflush_r
                0x00123964      0x104 c:/program files (x86)/on semiconductor/ide_v3.4.0.48/arm_tools/bin/../lib/gcc/arm-none-eabi/10.2.1/../../../../arm-none-eabi/lib/thumb/v7-m/nofp\libg_nano.a(lib_a-fflush.o)
                0x00123964                __sflush_r
 .text._fflush_r
                0x00123a68       0x78 c:/program files (x86)/on semiconductor/ide_v3.4.0.48/arm_tools/bin/../lib/gcc/arm-none-eabi/10.2.1/../../../../arm-none-eabi/lib/thumb/v7-m/nofp\libg_nano.a(lib_a-fflush.o)
                0x00123a68                _fflush_r
 .text.std      0x00123ae0       0x48 c:/program files (x86)/on semiconductor/ide_v3.4.0.48/arm_tools/bin/../lib/gcc/arm-none-eabi/10.2.1/../../../../arm-none-eabi/lib/thumb/v7-m/nofp\libg_nano.a(lib_a-findfp.o)
 .text._cleanup_r
                0x00123b28        0xc c:/program files (x86)/on semiconductor/ide_v3.4.0.48/arm_tools/bin/../lib/gcc/arm-none-eabi/10.2.1/../../../../arm-none-eabi/lib/thumb/v7-m/nofp\libg_nano.a(lib_a-findfp.o)
                0x00123b28                _cleanup_r
 .text.__sfmoreglue
                0x00123b34       0x2c c:/program files (x86)/on semiconductor/ide_v3.4.0.48/arm_tools/bin/../lib/gcc/arm-none-eabi/10.2.1/../../../../arm-none-eabi/lib/thumb/v7-m/nofp\libg_nano.a(lib_a-findfp.o)
                0x00123b34                __sfmoreglue
 .text.__sfp_lock_acquire
                0x00123b60        0xc c:/program files (x86)/on semiconductor/ide_v3.4.0.48/arm_tools/bin/../lib/gcc/arm-none-eabi/10.2.1/../../../../arm-none-eabi/lib/thumb/v7-m/nofp\libg_nano.a(lib_a-findfp.o)
                0x00123b60                __sfp_lock_acquire
 .text.__sfp_lock_release
                0x00123b6c        0xc c:/program files (x86)/on semiconductor/ide_v3.4.0.48/arm_tools/bin/../lib/gcc/arm-none-eabi/10.2.1/../../../../arm-none-eabi/lib/thumb/v7-m/nofp\libg_nano.a(lib_a-findfp.o)
                0x00123b6c                __sfp_lock_release
 .text.__sinit_lock_acquire
                0x00123b78        0xc c:/program files (x86)/on semiconductor/ide_v3.4.0.48/arm_tools/bin/../lib/gcc/arm-none-eabi/10.2.1/../../../../arm-none-eabi/lib/thumb/v7-m/nofp\libg_nano.a(lib_a-findfp.o)
                0x00123b78                __sinit_lock_acquire
 .text.__sinit_lock_release
                0x00123b84        0xc c:/program files (x86)/on semiconductor/ide_v3.4.0.48/arm_tools/bin/../lib/gcc/arm-none-eabi/10.2.1/../../../../arm-none-eabi/lib/thumb/v7-m/nofp\libg_nano.a(lib_a-findfp.o)
                0x00123b84                __sinit_lock_release
 .text.__sinit  0x00123b90       0x70 c:/program files (x86)/on semiconductor/ide_v3.4.0.48/arm_tools/bin/../lib/gcc/arm-none-eabi/10.2.1/../../../../arm-none-eabi/lib/thumb/v7-m/nofp\libg_nano.a(lib_a-findfp.o)
                0x00123b90                __sinit
 .text.__sfp    0x00123c00       0x8c c:/program files (x86)/on semiconductor/ide_v3.4.0.48/arm_tools/bin/../lib/gcc/arm-none-eabi/10.2.1/../../../../arm-none-eabi/lib/thumb/v7-m/nofp\libg_nano.a(lib_a-findfp.o)
                0x00123c00                __sfp
 .text._fwalk_reent
                0x00123c8c       0x3e c:/program files (x86)/on semiconductor/ide_v3.4.0.48/arm_tools/bin/../lib/gcc/arm-none-eabi/10.2.1/../../../../arm-none-eabi/lib/thumb/v7-m/nofp\libg_nano.a(lib_a-fwalk.o)
                0x00123c8c                _fwalk_reent
 .text.__retarget_lock_init_recursive
                0x00123cca        0x2 c:/program files (x86)/on semiconductor/ide_v3.4.0.48/arm_tools/bin/../lib/gcc/arm-none-eabi/10.2.1/../../../../arm-none-eabi/lib/thumb/v7-m/nofp\libg_nano.a(lib_a-lock.o)
                0x00123cca                __retarget_lock_init_recursive
 .text.__retarget_lock_acquire_recursive
                0x00123ccc        0x2 c:/program files (x86)/on semiconductor/ide_v3.4.0.48/arm_tools/bin/../lib/gcc/arm-none-eabi/10.2.1/../../../../arm-none-eabi/lib/thumb/v7-m/nofp\libg_nano.a(lib_a-lock.o)
                0x00123ccc                __retarget_lock_acquire_recursive
 .text.__retarget_lock_release_recursive
                0x00123cce        0x2 c:/program files (x86)/on semiconductor/ide_v3.4.0.48/arm_tools/bin/../lib/gcc/arm-none-eabi/10.2.1/../../../../arm-none-eabi/lib/thumb/v7-m/nofp\libg_nano.a(lib_a-lock.o)
                0x00123cce                __retarget_lock_release_recursive
 .text.__swhatbuf_r
                0x00123cd0       0x4a c:/program files (x86)/on semiconductor/ide_v3.4.0.48/arm_tools/bin/../lib/gcc/arm-none-eabi/10.2.1/../../../../arm-none-eabi/lib/thumb/v7-m/nofp\libg_nano.a(lib_a-makebuf.o)
                0x00123cd0                __swhatbuf_r
 *fill*         0x00123d1a        0x2 
 .text.__smakebuf_r
                0x00123d1c       0x80 c:/program files (x86)/on semiconductor/ide_v3.4.0.48/arm_tools/bin/../lib/gcc/arm-none-eabi/10.2.1/../../../../arm-none-eabi/lib/thumb/v7-m/nofp\libg_nano.a(lib_a-makebuf.o)
                0x00123d1c                __smakebuf_r
 .text.memchr   0x00123d9c       0x1c c:/program files (x86)/on semiconductor/ide_v3.4.0.48/arm_tools/bin/../lib/gcc/arm-none-eabi/10.2.1/../../../../arm-none-eabi/lib/thumb/v7-m/nofp\libg_nano.a(lib_a-memchr-stub.o)
                0x00123d9c                memchr
 .text._raise_r
                0x00123db8       0x50 c:/program files (x86)/on semiconductor/ide_v3.4.0.48/arm_tools/bin/../lib/gcc/arm-none-eabi/10.2.1/../../../../arm-none-eabi/lib/thumb/v7-m/nofp\libg_nano.a(lib_a-signal.o)
                0x00123db8                _raise_r
 .text.raise    0x00123e08       0x10 c:/program files (x86)/on semiconductor/ide_v3.4.0.48/arm_tools/bin/../lib/gcc/arm-none-eabi/10.2.1/../../../../arm-none-eabi/lib/thumb/v7-m/nofp\libg_nano.a(lib_a-signal.o)
                0x00123e08                raise
 .text._kill_r  0x00123e18       0x24 c:/program files (x86)/on semiconductor/ide_v3.4.0.48/arm_tools/bin/../lib/gcc/arm-none-eabi/10.2.1/../../../../arm-none-eabi/lib/thumb/v7-m/nofp\libg_nano.a(lib_a-signalr.o)
                0x00123e18                _kill_r
 .text._getpid_r
                0x00123e3c        0x4 c:/program files (x86)/on semiconductor/ide_v3.4.0.48/arm_tools/bin/../lib/gcc/arm-none-eabi/10.2.1/../../../../arm-none-eabi/lib/thumb/v7-m/nofp\libg_nano.a(lib_a-signalr.o)
                0x00123e3c                _getpid_r
 .text.__sread  0x00123e40       0x22 c:/program files (x86)/on semiconductor/ide_v3.4.0.48/arm_tools/bin/../lib/gcc/arm-none-eabi/10.2.1/../../../../arm-none-eabi/lib/thumb/v7-m/nofp\libg_nano.a(lib_a-stdio.o)
                0x00123e40                __sread
 .text.__swrite
                0x00123e62       0x38 c:/program files (x86)/on semiconductor/ide_v3.4.0.48/arm_tools/bin/../lib/gcc/arm-none-eabi/10.2.1/../../../../arm-none-eabi/lib/thumb/v7-m/nofp\libg_nano.a(lib_a-stdio.o)
                0x00123e62                __swrite
 .text.__sseek  0x00123e9a       0x24 c:/program files (x86)/on semiconductor/ide_v3.4.0.48/arm_tools/bin/../lib/gcc/arm-none-eabi/10.2.1/../../../../arm-none-eabi/lib/thumb/v7-m/nofp\libg_nano.a(lib_a-stdio.o)
                0x00123e9a                __sseek
 .text.__sclose
                0x00123ebe        0x8 c:/program files (x86)/on semiconductor/ide_v3.4.0.48/arm_tools/bin/../lib/gcc/arm-none-eabi/10.2.1/../../../../arm-none-eabi/lib/thumb/v7-m/nofp\libg_nano.a(lib_a-stdio.o)
                0x00123ebe                __sclose
 *fill*         0x00123ec6        0x2 
 .text._write_r
                0x00123ec8       0x24 c:/program files (x86)/on semiconductor/ide_v3.4.0.48/arm_tools/bin/../lib/gcc/arm-none-eabi/10.2.1/../../../../arm-none-eabi/lib/thumb/v7-m/nofp\libg_nano.a(lib_a-writer.o)
                0x00123ec8                _write_r
 .text._close_r
                0x00123eec       0x20 c:/program files (x86)/on semiconductor/ide_v3.4.0.48/arm_tools/bin/../lib/gcc/arm-none-eabi/10.2.1/../../../../arm-none-eabi/lib/thumb/v7-m/nofp\libg_nano.a(lib_a-closer.o)
                0x00123eec                _close_r
 .text._fstat_r
                0x00123f0c       0x24 c:/program files (x86)/on semiconductor/ide_v3.4.0.48/arm_tools/bin/../lib/gcc/arm-none-eabi/10.2.1/../../../../arm-none-eabi/lib/thumb/v7-m/nofp\libg_nano.a(lib_a-fstatr.o)
                0x00123f0c                _fstat_r
 .text._isatty_r
                0x00123f30       0x20 c:/program files (x86)/on semiconductor/ide_v3.4.0.48/arm_tools/bin/../lib/gcc/arm-none-eabi/10.2.1/../../../../arm-none-eabi/lib/thumb/v7-m/nofp\libg_nano.a(lib_a-isattyr.o)
                0x00123f30                _isatty_r
 .text._lseek_r
                0x00123f50       0x24 c:/program files (x86)/on semiconductor/ide_v3.4.0.48/arm_tools/bin/../lib/gcc/arm-none-eabi/10.2.1/../../../../arm-none-eabi/lib/thumb/v7-m/nofp\libg_nano.a(lib_a-lseekr.o)
                0x00123f50                _lseek_r
 .text._read_r  0x00123f74       0x24 c:/program files (x86)/on semiconductor/ide_v3.4.0.48/arm_tools/bin/../lib/gcc/arm-none-eabi/10.2.1/../../../../arm-none-eabi/lib/thumb/v7-m/nofp\libg_nano.a(lib_a-readr.o)
                0x00123f74                _read_r
 .text._close   0x00123f98       0x10 c:/program files (x86)/on semiconductor/ide_v3.4.0.48/arm_tools/bin/../lib/gcc/arm-none-eabi/10.2.1/../../../../arm-none-eabi/lib/thumb/v7-m/nofp\libnosys.a(close.o)
                0x00123f98                _close
 .text._fstat   0x00123fa8       0x10 c:/program files (x86)/on semiconductor/ide_v3.4.0.48/arm_tools/bin/../lib/gcc/arm-none-eabi/10.2.1/../../../../arm-none-eabi/lib/thumb/v7-m/nofp\libnosys.a(fstat.o)
                0x00123fa8                _fstat
 .text._getpid  0x00123fb8       0x10 c:/program files (x86)/on semiconductor/ide_v3.4.0.48/arm_tools/bin/../lib/gcc/arm-none-eabi/10.2.1/../../../../arm-none-eabi/lib/thumb/v7-m/nofp\libnosys.a(getpid.o)
                0x00123fb8                _getpid
 .text._isatty  0x00123fc8       0x10 c:/program files (x86)/on semiconductor/ide_v3.4.0.48/arm_tools/bin/../lib/gcc/arm-none-eabi/10.2.1/../../../../arm-none-eabi/lib/thumb/v7-m/nofp\libnosys.a(isatty.o)
                0x00123fc8                _isatty
 .text._kill    0x00123fd8       0x10 c:/program files (x86)/on semiconductor/ide_v3.4.0.48/arm_tools/bin/../lib/gcc/arm-none-eabi/10.2.1/../../../../arm-none-eabi/lib/thumb/v7-m/nofp\libnosys.a(kill.o)
                0x00123fd8                _kill
 .text._lseek   0x00123fe8       0x10 c:/program files (x86)/on semiconductor/ide_v3.4.0.48/arm_tools/bin/../lib/gcc/arm-none-eabi/10.2.1/../../../../arm-none-eabi/lib/thumb/v7-m/nofp\libnosys.a(lseek.o)
                0x00123fe8                _lseek
 .text._read    0x00123ff8       0x10 c:/program files (x86)/on semiconductor/ide_v3.4.0.48/arm_tools/bin/../lib/gcc/arm-none-eabi/10.2.1/../../../../arm-none-eabi/lib/thumb/v7-m/nofp\libnosys.a(read.o)
                0x00123ff8                _read
 .text._write   0x00124008       0x10 c:/program files (x86)/on semiconductor/ide_v3.4.0.48/arm_tools/bin/../lib/gcc/arm-none-eabi/10.2.1/../../../../arm-none-eabi/lib/thumb/v7-m/nofp\libnosys.a(write.o)
                0x00124008                _write
 .text._exit    0x00124018        0x4 c:/program files (x86)/on semiconductor/ide_v3.4.0.48/arm_tools/bin/../lib/gcc/arm-none-eabi/10.2.1/../../../../arm-none-eabi/lib/thumb/v7-m/nofp\libnosys.a(_exit.o)
                0x00124018                _exit
 *(.rodata .rodata.*)
 .rodata.TASK_DESC_APP
                0x0012401c       0x10 ./code/app_process.o
                0x0012401c                TASK_DESC_APP
 .rodata.appm_default_state
                0x0012402c       0xa0 ./code/app_process.o
                0x0012402c                appm_default_state
 .rodata.appm_default_handler
                0x001240cc        0x8 ./code/app_process.o
                0x001240cc                appm_default_handler
 .rodata        0x001240d4      0x15c ./code/ble_custom.o
 .rodata.appm_add_svc_func_list
                0x00124230        0x8 ./code/ble_std.o
                0x00124230                appm_add_svc_func_list
 .rodata.appm_enable_svc_func_list
                0x00124238        0xc ./code/ble_std.o
                0x00124238                appm_enable_svc_func_list
 .rodata        0x00124244       0xb3 ./code/ble_std.o
 *fill*         0x001242f7        0x1 
 .rodata        0x001242f8        0x9 ./RTE/Utility/SEGGER_RTT.o
 *fill*         0x00124301        0x3 
 .rodata._aInitStr.0
                0x00124304       0x11 ./RTE/Utility/SEGGER_RTT.o
 *fill*         0x00124315        0x3 
 .rodata._aV2C.0
                0x00124318       0x10 ./RTE/Utility/SEGGER_RTT_printf.o
 .rodata.targetVoltage
                0x00124328        0x7 ./RTE/Device/RSL10/rsl10_sys_rffe.o
                0x00124328                targetVoltage
 *fill*         0x0012432f        0x1 
 .rodata.targetTrim
                0x00124330        0x7 ./RTE/Device/RSL10/rsl10_sys_rffe.o
                0x00124330                targetTrim
 *fill*         0x00124337        0x1 
 .rodata        0x00124338       0x18 ./app.o
 .rodata.rwip_coex_cfg
                0x00124350        0x5 C:/Users/xeeen/ON_Semiconductor/PACK/ONSemiconductor/RSL10/3.7.606/lib/ble_core/Release/libblelib.a(rwip.o)
                0x00124350                rwip_coex_cfg
 *fill*         0x00124355        0x3 
 .rodata.RF_ATL_FREQ_TBL40
                0x00124358       0xa0 C:/Users/xeeen/ON_Semiconductor/PACK/ONSemiconductor/RSL10/3.7.606/lib/ble_core/Release/libblelib.a(rf_atlas.o)
                0x00124358                RF_ATL_FREQ_TBL40
 .rodata.RF_ATL_REG_TBL_40_1MBPS
                0x001243f8       0xc0 C:/Users/xeeen/ON_Semiconductor/PACK/ONSemiconductor/RSL10/3.7.606/lib/ble_core/Release/libblelib.a(rf_atlas.o)
                0x001243f8                RF_ATL_REG_TBL_40_1MBPS
 .rodata.RF_ATL_REG_TBL_40_2MBPS
                0x001244b8       0xc0 C:/Users/xeeen/ON_Semiconductor/PACK/ONSemiconductor/RSL10/3.7.606/lib/ble_core/Release/libblelib.a(rf_atlas.o)
                0x001244b8                RF_ATL_REG_TBL_40_2MBPS
 .rodata.BasePoint_x_256
                0x00124578       0x20 C:/Users/xeeen/ON_Semiconductor/PACK/ONSemiconductor/RSL10/3.7.606/lib/ble_core/Release/libblelib.a(ecc_p256.o)
                0x00124578                BasePoint_x_256
 .rodata.BasePoint_y_256
                0x00124598       0x20 C:/Users/xeeen/ON_Semiconductor/PACK/ONSemiconductor/RSL10/3.7.606/lib/ble_core/Release/libblelib.a(ecc_p256.o)
                0x00124598                BasePoint_y_256
 .rodata.ECC_4Win_Look_up_table
                0x001245b8      0x7bc C:/Users/xeeen/ON_Semiconductor/PACK/ONSemiconductor/RSL10/3.7.606/lib/ble_core/Release/libblelib.a(ecc_p256.o)
                0x001245b8                ECC_4Win_Look_up_table
 .rodata.bigHexP256
                0x00124d74       0x2c C:/Users/xeeen/ON_Semiconductor/PACK/ONSemiconductor/RSL10/3.7.606/lib/ble_core/Release/libblelib.a(ecc_p256.o)
                0x00124d74                bigHexP256
 .rodata.coef_B
                0x00124da0       0x2c C:/Users/xeeen/ON_Semiconductor/PACK/ONSemiconductor/RSL10/3.7.606/lib/ble_core/Release/libblelib.a(ecc_p256.o)
                0x00124da0                coef_B
 .rodata.ecc_Jacobian_InfinityPoint256
                0x00124dcc       0x84 C:/Users/xeeen/ON_Semiconductor/PACK/ONSemiconductor/RSL10/3.7.606/lib/ble_core/Release/libblelib.a(ecc_p256.o)
                0x00124dcc                ecc_Jacobian_InfinityPoint256
 .rodata.maxSecretKey_256
                0x00124e50       0x20 C:/Users/xeeen/ON_Semiconductor/PACK/ONSemiconductor/RSL10/3.7.606/lib/ble_core/Release/libblelib.a(ecc_p256.o)
                0x00124e50                maxSecretKey_256
 .rodata.veryBigHexP256
                0x00124e70       0x50 C:/Users/xeeen/ON_Semiconductor/PACK/ONSemiconductor/RSL10/3.7.606/lib/ble_core/Release/libblelib.a(ecc_p256.o)
                0x00124e70                veryBigHexP256
 .rodata.hci_def_evt_msk
                0x00124ec0        0x8 C:/Users/xeeen/ON_Semiconductor/PACK/ONSemiconductor/RSL10/3.7.606/lib/ble_core/Release/libblelib.a(hci.o)
 .rodata.hci_rsvd_evt_msk
                0x00124ec8        0x8 C:/Users/xeeen/ON_Semiconductor/PACK/ONSemiconductor/RSL10/3.7.606/lib/ble_core/Release/libblelib.a(hci.o)
 .rodata.hci_cmd_desc_root_tab
                0x00124ed0       0x30 C:/Users/xeeen/ON_Semiconductor/PACK/ONSemiconductor/RSL10/3.7.606/lib/ble_core/Release/libblelib.a(hci_msg.o)
                0x00124ed0                hci_cmd_desc_root_tab
 .rodata.hci_cmd_desc_tab_ctrl_bb
                0x00124f00       0x28 C:/Users/xeeen/ON_Semiconductor/PACK/ONSemiconductor/RSL10/3.7.606/lib/ble_core/Release/libblelib.a(hci_msg.o)
                0x00124f00                hci_cmd_desc_tab_ctrl_bb
 .rodata.hci_cmd_desc_tab_info_par
                0x00124f28       0x14 C:/Users/xeeen/ON_Semiconductor/PACK/ONSemiconductor/RSL10/3.7.606/lib/ble_core/Release/libblelib.a(hci_msg.o)
                0x00124f28                hci_cmd_desc_tab_info_par
 .rodata.hci_cmd_desc_tab_le
                0x00124f3c       0xd4 C:/Users/xeeen/ON_Semiconductor/PACK/ONSemiconductor/RSL10/3.7.606/lib/ble_core/Release/libblelib.a(hci_msg.o)
                0x00124f3c                hci_cmd_desc_tab_le
 .rodata.hci_cmd_desc_tab_lk_ctrl
                0x00125010        0xc C:/Users/xeeen/ON_Semiconductor/PACK/ONSemiconductor/RSL10/3.7.606/lib/ble_core/Release/libblelib.a(hci_msg.o)
                0x00125010                hci_cmd_desc_tab_lk_ctrl
 .rodata.hci_cmd_desc_tab_stat_par
                0x0012501c        0x4 C:/Users/xeeen/ON_Semiconductor/PACK/ONSemiconductor/RSL10/3.7.606/lib/ble_core/Release/libblelib.a(hci_msg.o)
                0x0012501c                hci_cmd_desc_tab_stat_par
 .rodata.hci_cmd_desc_tab_vs
                0x00125020       0x14 C:/Users/xeeen/ON_Semiconductor/PACK/ONSemiconductor/RSL10/3.7.606/lib/ble_core/Release/libblelib.a(hci_msg.o)
                0x00125020                hci_cmd_desc_tab_vs
 .rodata.hci_evt_desc_tab
                0x00125034       0x12 C:/Users/xeeen/ON_Semiconductor/PACK/ONSemiconductor/RSL10/3.7.606/lib/ble_core/Release/libblelib.a(hci_msg.o)
                0x00125034                hci_evt_desc_tab
 .rodata.hci_evt_le_desc_tab
                0x00125046       0x18 C:/Users/xeeen/ON_Semiconductor/PACK/ONSemiconductor/RSL10/3.7.606/lib/ble_core/Release/libblelib.a(hci_msg.o)
                0x00125046                hci_evt_le_desc_tab
 .rodata        0x0012505e       0x10 C:/Users/xeeen/ON_Semiconductor/PACK/ONSemiconductor/RSL10/3.7.606/lib/ble_core/Release/libblelib.a(llm.o)
 .rodata.CSWTCH.76
                0x0012506e        0x7 C:/Users/xeeen/ON_Semiconductor/PACK/ONSemiconductor/RSL10/3.7.606/lib/ble_core/Release/libblelib.a(llm.o)
 *fill*         0x00125075        0x3 
 .rodata.TASK_DESC_LLM
                0x00125078       0x10 C:/Users/xeeen/ON_Semiconductor/PACK/ONSemiconductor/RSL10/3.7.606/lib/ble_core/Release/libblelib.a(llm.o)
 .rodata.llm_dflt_bdaddr
                0x00125088        0x6 C:/Users/xeeen/ON_Semiconductor/PACK/ONSemiconductor/RSL10/3.7.606/lib/ble_core/Release/libblelib.a(llm.o)
 .rodata.llm_local_cmds
                0x0012508e       0x40 C:/Users/xeeen/ON_Semiconductor/PACK/ONSemiconductor/RSL10/3.7.606/lib/ble_core/Release/libblelib.a(llm.o)
                0x0012508e                llm_local_cmds
 .rodata.llm_local_data_len_values
                0x001250ce        0xc C:/Users/xeeen/ON_Semiconductor/PACK/ONSemiconductor/RSL10/3.7.606/lib/ble_core/Release/libblelib.a(llm.o)
                0x001250ce                llm_local_data_len_values
 .rodata.llm_local_le_feats
                0x001250da        0x8 C:/Users/xeeen/ON_Semiconductor/PACK/ONSemiconductor/RSL10/3.7.606/lib/ble_core/Release/libblelib.a(llm.o)
                0x001250da                llm_local_le_feats
 .rodata.llm_local_le_states
                0x001250e2        0x8 C:/Users/xeeen/ON_Semiconductor/PACK/ONSemiconductor/RSL10/3.7.606/lib/ble_core/Release/libblelib.a(llm.o)
                0x001250e2                llm_local_le_states
 *fill*         0x001250ea        0x2 
 .rodata.llm_default_handler
                0x001250ec        0x8 C:/Users/xeeen/ON_Semiconductor/PACK/ONSemiconductor/RSL10/3.7.606/lib/ble_core/Release/libblelib.a(llm_task.o)
                0x001250ec                llm_default_handler
 .rodata.llm_default_state
                0x001250f4       0x40 C:/Users/xeeen/ON_Semiconductor/PACK/ONSemiconductor/RSL10/3.7.606/lib/ble_core/Release/libblelib.a(llm_task.o)
 .rodata.LLM_AA_CT1
                0x00125134        0x3 C:/Users/xeeen/ON_Semiconductor/PACK/ONSemiconductor/RSL10/3.7.606/lib/ble_core/Release/libblelib.a(llm_util.o)
                0x00125134                LLM_AA_CT1
 .rodata.LLM_AA_CT2
                0x00125137        0x2 C:/Users/xeeen/ON_Semiconductor/PACK/ONSemiconductor/RSL10/3.7.606/lib/ble_core/Release/libblelib.a(llm_util.o)
                0x00125137                LLM_AA_CT2
 *fill*         0x00125139        0x3 
 .rodata.TASK_DESC_LLD
                0x0012513c       0x10 C:/Users/xeeen/ON_Semiconductor/PACK/ONSemiconductor/RSL10/3.7.606/lib/ble_core/Release/libblelib.a(lld.o)
 .rodata.str1.1
                0x0012514c       0x46 C:/Users/xeeen/ON_Semiconductor/PACK/ONSemiconductor/RSL10/3.7.606/lib/ble_core/Release/libblelib.a(lld_pdu.o)
                                 0x55 (size before relaxing)
 *fill*         0x00125192        0x2 
 .rodata.lld_pdu_adv_pk_desc_tab
                0x00125194       0x54 C:/Users/xeeen/ON_Semiconductor/PACK/ONSemiconductor/RSL10/3.7.606/lib/ble_core/Release/libblelib.a(lld_pdu.o)
                0x00125194                lld_pdu_adv_pk_desc_tab
 .rodata.lld_pdu_llcp_pk_desc_tab
                0x001251e8      0x12c C:/Users/xeeen/ON_Semiconductor/PACK/ONSemiconductor/RSL10/3.7.606/lib/ble_core/Release/libblelib.a(lld_pdu.o)
                0x001251e8                lld_pdu_llcp_pk_desc_tab
 .rodata.TASK_DESC_LLC
                0x00125314       0x10 C:/Users/xeeen/ON_Semiconductor/PACK/ONSemiconductor/RSL10/3.7.606/lib/ble_core/Release/libblelib.a(llc.o)
 .rodata.llcp_pdu_handler
                0x00125324       0xc8 C:/Users/xeeen/ON_Semiconductor/PACK/ONSemiconductor/RSL10/3.7.606/lib/ble_core/Release/libblelib.a(llc_llcp.o)
 .rodata.llc_default_handler
                0x001253ec        0x8 C:/Users/xeeen/ON_Semiconductor/PACK/ONSemiconductor/RSL10/3.7.606/lib/ble_core/Release/libblelib.a(llc_task.o)
                0x001253ec                llc_default_handler
 .rodata.llc_default_state
                0x001253f4       0x88 C:/Users/xeeen/ON_Semiconductor/PACK/ONSemiconductor/RSL10/3.7.606/lib/ble_core/Release/libblelib.a(llc_task.o)
 .rodata.TASK_DESC_L2CC
                0x0012547c       0x10 C:/Users/xeeen/ON_Semiconductor/PACK/ONSemiconductor/RSL10/3.7.606/lib/ble_core/Release/libblelib.a(l2cc.o)
 .rodata.str1.1
                0x0012548c       0x3e C:/Users/xeeen/ON_Semiconductor/PACK/ONSemiconductor/RSL10/3.7.606/lib/ble_core/Release/libblelib.a(l2cc_pdu.o)
                                 0x55 (size before relaxing)
 *fill*         0x001254ca        0x2 
 .rodata.l2cc_attribute_pkt_format
                0x001254cc       0x7c C:/Users/xeeen/ON_Semiconductor/PACK/ONSemiconductor/RSL10/3.7.606/lib/ble_core/Release/libblelib.a(l2cc_pdu.o)
 .rodata.l2cc_security_pkt_format
                0x00125548       0x3c C:/Users/xeeen/ON_Semiconductor/PACK/ONSemiconductor/RSL10/3.7.606/lib/ble_core/Release/libblelib.a(l2cc_pdu.o)
 .rodata.l2cc_signaling_pkt_format
                0x00125584       0x5c C:/Users/xeeen/ON_Semiconductor/PACK/ONSemiconductor/RSL10/3.7.606/lib/ble_core/Release/libblelib.a(l2cc_pdu.o)
 .rodata.l2cc_default_handler
                0x001255e0        0x8 C:/Users/xeeen/ON_Semiconductor/PACK/ONSemiconductor/RSL10/3.7.606/lib/ble_core/Release/libblelib.a(l2cc_task.o)
                0x001255e0                l2cc_default_handler
 .rodata.l2cc_default_state
                0x001255e8       0x60 C:/Users/xeeen/ON_Semiconductor/PACK/ONSemiconductor/RSL10/3.7.606/lib/ble_core/Release/libblelib.a(l2cc_task.o)
                0x001255e8                l2cc_default_state
 .rodata        0x00125648        0x4 C:/Users/xeeen/ON_Semiconductor/PACK/ONSemiconductor/RSL10/3.7.606/lib/ble_core/Release/libblelib.a(gattm.o)
 .rodata.TASK_DESC_GATTM
                0x0012564c       0x10 C:/Users/xeeen/ON_Semiconductor/PACK/ONSemiconductor/RSL10/3.7.606/lib/ble_core/Release/libblelib.a(gattm.o)
 .rodata.gattm_att_db
                0x0012565c       0x20 C:/Users/xeeen/ON_Semiconductor/PACK/ONSemiconductor/RSL10/3.7.606/lib/ble_core/Release/libblelib.a(gattm.o)
 .rodata.gattm_default_handler
                0x0012567c        0x8 C:/Users/xeeen/ON_Semiconductor/PACK/ONSemiconductor/RSL10/3.7.606/lib/ble_core/Release/libblelib.a(gattm_task.o)
                0x0012567c                gattm_default_handler
 .rodata.gattm_default_state
                0x00125684       0x40 C:/Users/xeeen/ON_Semiconductor/PACK/ONSemiconductor/RSL10/3.7.606/lib/ble_core/Release/libblelib.a(gattm_task.o)
                0x00125684                gattm_default_state
 .rodata.TASK_DESC_GATTC
                0x001256c4       0x10 C:/Users/xeeen/ON_Semiconductor/PACK/ONSemiconductor/RSL10/3.7.606/lib/ble_core/Release/libblelib.a(gattc.o)
 .rodata        0x001256d4       0x1b C:/Users/xeeen/ON_Semiconductor/PACK/ONSemiconductor/RSL10/3.7.606/lib/ble_core/Release/libblelib.a(gattc_task.o)
 *fill*         0x001256ef        0x1 
 .rodata.gattc_default_handler
                0x001256f0        0x8 C:/Users/xeeen/ON_Semiconductor/PACK/ONSemiconductor/RSL10/3.7.606/lib/ble_core/Release/libblelib.a(gattc_task.o)
                0x001256f0                gattc_default_handler
 .rodata.gattc_default_state
                0x001256f8       0xe0 C:/Users/xeeen/ON_Semiconductor/PACK/ONSemiconductor/RSL10/3.7.606/lib/ble_core/Release/libblelib.a(gattc_task.o)
                0x001256f8                gattc_default_state
 .rodata.atts_handlers
                0x001257d8       0x68 C:/Users/xeeen/ON_Semiconductor/PACK/ONSemiconductor/RSL10/3.7.606/lib/ble_core/Release/libblelib.a(atts.o)
                0x001257d8                atts_handlers
 .rodata.atts_rights
                0x00125840       0x24 C:/Users/xeeen/ON_Semiconductor/PACK/ONSemiconductor/RSL10/3.7.606/lib/ble_core/Release/libblelib.a(atts.o)
 .rodata        0x00125864       0x10 C:/Users/xeeen/ON_Semiconductor/PACK/ONSemiconductor/RSL10/3.7.606/lib/ble_core/Release/libblelib.a(attm.o)
 .rodata.attc_handlers
                0x00125874       0x70 C:/Users/xeeen/ON_Semiconductor/PACK/ONSemiconductor/RSL10/3.7.606/lib/ble_core/Release/libblelib.a(attc.o)
                0x00125874                attc_handlers
 .rodata.TASK_DESC_GAPM
                0x001258e4       0x10 C:/Users/xeeen/ON_Semiconductor/PACK/ONSemiconductor/RSL10/3.7.606/lib/ble_core/Release/libblelib.a(gapm.o)
 .rodata.gapm_att_db
                0x001258f4       0x48 C:/Users/xeeen/ON_Semiconductor/PACK/ONSemiconductor/RSL10/3.7.606/lib/ble_core/Release/libblelib.a(gapm.o)
 .rodata        0x0012593c       0x28 C:/Users/xeeen/ON_Semiconductor/PACK/ONSemiconductor/RSL10/3.7.606/lib/ble_core/Release/libblelib.a(gapm_task.o)
 .rodata.gapm_default_handler
                0x00125964        0x8 C:/Users/xeeen/ON_Semiconductor/PACK/ONSemiconductor/RSL10/3.7.606/lib/ble_core/Release/libblelib.a(gapm_task.o)
                0x00125964                gapm_default_handler
 .rodata.gapm_default_state
                0x0012596c      0x118 C:/Users/xeeen/ON_Semiconductor/PACK/ONSemiconductor/RSL10/3.7.606/lib/ble_core/Release/libblelib.a(gapm_task.o)
                0x0012596c                gapm_default_state
 .rodata        0x00125a84       0x16 C:/Users/xeeen/ON_Semiconductor/PACK/ONSemiconductor/RSL10/3.7.606/lib/ble_core/Release/libblelib.a(gapm_util.o)
 .rodata        0x00125a9a        0x6 C:/Users/xeeen/ON_Semiconductor/PACK/ONSemiconductor/RSL10/3.7.606/lib/ble_core/Release/libblelib.a(gapc.o)
 .rodata.TASK_DESC_GAPC
                0x00125aa0       0x10 C:/Users/xeeen/ON_Semiconductor/PACK/ONSemiconductor/RSL10/3.7.606/lib/ble_core/Release/libblelib.a(gapc.o)
 .rodata        0x00125ab0        0xe C:/Users/xeeen/ON_Semiconductor/PACK/ONSemiconductor/RSL10/3.7.606/lib/ble_core/Release/libblelib.a(gapc_task.o)
 *fill*         0x00125abe        0x2 
 .rodata.gapc_default_handler
                0x00125ac0        0x8 C:/Users/xeeen/ON_Semiconductor/PACK/ONSemiconductor/RSL10/3.7.606/lib/ble_core/Release/libblelib.a(gapc_task.o)
                0x00125ac0                gapc_default_handler
 .rodata.gapc_default_state
                0x00125ac8      0x138 C:/Users/xeeen/ON_Semiconductor/PACK/ONSemiconductor/RSL10/3.7.606/lib/ble_core/Release/libblelib.a(gapc_task.o)
                0x00125ac8                gapc_default_state
 .rodata.llm_hci_command_handler_tab
                0x00125c00      0x1a0 C:/Users/xeeen/ON_Semiconductor/PACK/ONSemiconductor/RSL10/3.7.606/lib/ble_core/Release/libblelib.a(llm_hci.o)
 .rodata.hci_disconnect_cmd_handler.str1.1
                0x00125da0        0x9 C:/Users/xeeen/ON_Semiconductor/PACK/ONSemiconductor/RSL10/3.7.606/lib/ble_core/Release/libblelib.a(llc_hci.o)
 *fill*         0x00125da9        0x3 
 .rodata.llc_hci_command_handler_tab
                0x00125dac       0xa0 C:/Users/xeeen/ON_Semiconductor/PACK/ONSemiconductor/RSL10/3.7.606/lib/ble_core/Release/libblelib.a(llc_hci.o)
 .rodata.CSWTCH.11
                0x00125e4c        0xc C:/Users/xeeen/ON_Semiconductor/PACK/ONSemiconductor/RSL10/3.7.606/lib/ble_core/Release/libblelib.a(l2cc_sig.o)
 .rodata.CSWTCH.18
                0x00125e58        0x3 C:/Users/xeeen/ON_Semiconductor/PACK/ONSemiconductor/RSL10/3.7.606/lib/ble_core/Release/libblelib.a(l2cc_sig.o)
 *fill*         0x00125e5b        0x1 
 .rodata.l2cc_sig_handlers
                0x00125e5c       0x40 C:/Users/xeeen/ON_Semiconductor/PACK/ONSemiconductor/RSL10/3.7.606/lib/ble_core/Release/libblelib.a(l2cc_sig.o)
                0x00125e5c                l2cc_sig_handlers
 .rodata        0x00125e9c       0x10 C:/Users/xeeen/ON_Semiconductor/PACK/ONSemiconductor/RSL10/3.7.606/lib/ble_core/Release/libblelib.a(smpc.o)
 .rodata.smpc_pair_method
                0x00125eac       0x19 C:/Users/xeeen/ON_Semiconductor/PACK/ONSemiconductor/RSL10/3.7.606/lib/ble_core/Release/libblelib.a(smpc.o)
 .rodata.smpc_f5_init.str1.1
                0x00125ec5       0x11 C:/Users/xeeen/ON_Semiconductor/PACK/ONSemiconductor/RSL10/3.7.606/lib/ble_core/Release/libblelib.a(smpc_crypto.o)
 .rodata        0x00125ed6       0x10 C:/Users/xeeen/ON_Semiconductor/PACK/ONSemiconductor/RSL10/3.7.606/lib/ble_core/Release/libblelib.a(smpc_crypto.o)
 *fill*         0x00125ee6        0x2 
 .rodata.smpc_construct_pdu
                0x00125ee8       0x3c C:/Users/xeeen/ON_Semiconductor/PACK/ONSemiconductor/RSL10/3.7.606/lib/ble_core/Release/libblelib.a(smpc_util.o)
                0x00125ee8                smpc_construct_pdu
 .rodata.smpc_recv_pdu
                0x00125f24       0x3c C:/Users/xeeen/ON_Semiconductor/PACK/ONSemiconductor/RSL10/3.7.606/lib/ble_core/Release/libblelib.a(smpc_util.o)
                0x00125f24                smpc_recv_pdu
 .rodata.gapm_hci_cmd_cmp_event_handler_tab
                0x00125f60      0x140 C:/Users/xeeen/ON_Semiconductor/PACK/ONSemiconductor/RSL10/3.7.606/lib/ble_core/Release/libblelib.a(gapm_hci.o)
 .rodata.gapm_hci_cmd_stat_event_handler_tab
                0x001260a0       0x10 C:/Users/xeeen/ON_Semiconductor/PACK/ONSemiconductor/RSL10/3.7.606/lib/ble_core/Release/libblelib.a(gapm_hci.o)
 .rodata.gapm_hci_le_event_handler_tab
                0x001260b0       0x30 C:/Users/xeeen/ON_Semiconductor/PACK/ONSemiconductor/RSL10/3.7.606/lib/ble_core/Release/libblelib.a(gapm_hci.o)
 .rodata.hci_cmd_cmp_event_handler_tab
                0x001260e0       0x50 C:/Users/xeeen/ON_Semiconductor/PACK/ONSemiconductor/RSL10/3.7.606/lib/ble_core/Release/libblelib.a(gapc_hci.o)
 .rodata.hci_cmd_stat_event_handler_tab
                0x00126130       0x30 C:/Users/xeeen/ON_Semiconductor/PACK/ONSemiconductor/RSL10/3.7.606/lib/ble_core/Release/libblelib.a(gapc_hci.o)
 .rodata.hci_event_handler_tab
                0x00126160       0x28 C:/Users/xeeen/ON_Semiconductor/PACK/ONSemiconductor/RSL10/3.7.606/lib/ble_core/Release/libblelib.a(gapc_hci.o)
 .rodata.hci_le_event_handler_tab
                0x00126188       0x30 C:/Users/xeeen/ON_Semiconductor/PACK/ONSemiconductor/RSL10/3.7.606/lib/ble_core/Release/libblelib.a(gapc_hci.o)
 .rodata.CSWTCH.3
                0x001261b8        0x3 C:/Users/xeeen/ON_Semiconductor/PACK/ONSemiconductor/RSL10/3.7.606/lib/ble_core/Release/libblelib.a(gapc_sig.o)
 .rodata.co_default_bdaddr
                0x001261bb        0x6 C:/Users/xeeen/ON_Semiconductor/PACK/ONSemiconductor/RSL10/3.7.606/lib/ble_core/Release/libkelib.a(co_utils.o)
                0x001261bb                co_default_bdaddr
 .rodata.co_null_bdaddr
                0x001261c1        0x6 C:/Users/xeeen/ON_Semiconductor/PACK/ONSemiconductor/RSL10/3.7.606/lib/ble_core/Release/libkelib.a(co_utils.o)
                0x001261c1                co_null_bdaddr
 *fill*         0x001261c7        0x1 
 .rodata.co_sca2ppm
                0x001261c8       0x10 C:/Users/xeeen/ON_Semiconductor/PACK/ONSemiconductor/RSL10/3.7.606/lib/ble_core/Release/libkelib.a(co_utils.o)
                0x001261c8                co_sca2ppm
 .rodata.basc_itf
                0x001261d8       0x10 C:/Users/xeeen/ON_Semiconductor/PACK/ONSemiconductor/RSL10/3.7.606/lib/ble_profiles/Release/libbasc.a(basc.o)
                0x001261d8                basc_itf
 .rodata.basc_bas_char
                0x001261e8        0x4 C:/Users/xeeen/ON_Semiconductor/PACK/ONSemiconductor/RSL10/3.7.606/lib/ble_profiles/Release/libbasc.a(basc_task.o)
                0x001261e8                basc_bas_char
 .rodata.basc_bas_char_desc
                0x001261ec        0x8 C:/Users/xeeen/ON_Semiconductor/PACK/ONSemiconductor/RSL10/3.7.606/lib/ble_profiles/Release/libbasc.a(basc_task.o)
                0x001261ec                basc_bas_char_desc
 .rodata.basc_default_handler
                0x001261f4        0x8 C:/Users/xeeen/ON_Semiconductor/PACK/ONSemiconductor/RSL10/3.7.606/lib/ble_profiles/Release/libbasc.a(basc_task.o)
                0x001261f4                basc_default_handler
 .rodata.basc_default_state
                0x001261fc       0x38 C:/Users/xeeen/ON_Semiconductor/PACK/ONSemiconductor/RSL10/3.7.606/lib/ble_profiles/Release/libbasc.a(basc_task.o)
                0x001261fc                basc_default_state
 .rodata._global_impure_ptr
                0x00126234        0x4 c:/program files (x86)/on semiconductor/ide_v3.4.0.48/arm_tools/bin/../lib/gcc/arm-none-eabi/10.2.1/../../../../arm-none-eabi/lib/thumb/v7-m/nofp\libg_nano.a(lib_a-impure.o)
                0x00126234                _global_impure_ptr
 .rodata.srand.str1.1
                0x00126238       0x94 c:/program files (x86)/on semiconductor/ide_v3.4.0.48/arm_tools/bin/../lib/gcc/arm-none-eabi/10.2.1/../../../../arm-none-eabi/lib/thumb/v7-m/nofp\libg_nano.a(lib_a-rand.o)
 .rodata.__assert_func.str1.1
                0x001262cc       0x3c c:/program files (x86)/on semiconductor/ide_v3.4.0.48/arm_tools/bin/../lib/gcc/arm-none-eabi/10.2.1/../../../../arm-none-eabi/lib/thumb/v7-m/nofp\libg_nano.a(lib_a-assert.o)
                                 0x3d (size before relaxing)
 .rodata._vfprintf_r.str1.1
                0x00126308       0x11 c:/program files (x86)/on semiconductor/ide_v3.4.0.48/arm_tools/bin/../lib/gcc/arm-none-eabi/10.2.1/../../../../arm-none-eabi/lib/thumb/v7-m/nofp\libg_nano.a(lib_a-nano-vfprintf.o)
 .rodata._printf_i.str1.1
                0x00126319       0x22 c:/program files (x86)/on semiconductor/ide_v3.4.0.48/arm_tools/bin/../lib/gcc/arm-none-eabi/10.2.1/../../../../arm-none-eabi/lib/thumb/v7-m/nofp\libg_nano.a(lib_a-nano-vfprintf_i.o)
 *fill*         0x0012633b        0x1 
 .rodata.__sf_fake_stderr
                0x0012633c       0x20 c:/program files (x86)/on semiconductor/ide_v3.4.0.48/arm_tools/bin/../lib/gcc/arm-none-eabi/10.2.1/../../../../arm-none-eabi/lib/thumb/v7-m/nofp\libg_nano.a(lib_a-findfp.o)
                0x0012633c                __sf_fake_stderr
 .rodata.__sf_fake_stdin
                0x0012635c       0x20 c:/program files (x86)/on semiconductor/ide_v3.4.0.48/arm_tools/bin/../lib/gcc/arm-none-eabi/10.2.1/../../../../arm-none-eabi/lib/thumb/v7-m/nofp\libg_nano.a(lib_a-findfp.o)
                0x0012635c                __sf_fake_stdin
 .rodata.__sf_fake_stdout
                0x0012637c       0x20 c:/program files (x86)/on semiconductor/ide_v3.4.0.48/arm_tools/bin/../lib/gcc/arm-none-eabi/10.2.1/../../../../arm-none-eabi/lib/thumb/v7-m/nofp\libg_nano.a(lib_a-findfp.o)
                0x0012637c                __sf_fake_stdout
                0x0012639c                . = ALIGN (0x4)
                0x0012639c                __dsp_start__ = .
 *(.dsp .dsp.*)
                0x0012639c                __dsp_end__ = .
                0x0012639c                . = ALIGN (0x4)

.glue_7         0x0012639c        0x0
 .glue_7        0x0012639c        0x0 linker stubs

.glue_7t        0x0012639c        0x0
 .glue_7t       0x0012639c        0x0 linker stubs

.vfp11_veneer   0x0012639c        0x0
 .vfp11_veneer  0x0012639c        0x0 linker stubs

.v4_bx          0x0012639c        0x0
 .v4_bx         0x0012639c        0x0 linker stubs

.iplt           0x0012639c        0x0
 .iplt          0x0012639c        0x0 ./code/app_bass.o

.rel.dyn        0x0012639c        0x0
 .rel.iplt      0x0012639c        0x0 ./code/app_bass.o

.ARM.exidx.reset
                0x0012639c        0x8
 .ARM.exidx.reset
                0x0012639c        0x8 ./RTE/Device/RSL10/startup_rsl10.o
                0x001263a4                . = ALIGN (0x4)
                0x001263a4                __data_init__ = .

.systemclock    0x20000000        0x4
                0x20000000                . = ALIGN (0x4)
 *(.systemclock)
 .systemclock   0x20000000        0x4 ./RTE/Device/RSL10/system_rsl10.o
                0x20000000                SystemCoreClock

.data           0x20000004       0xc8 load address 0x001263a4
                0x20000004                . = ALIGN (0x4)
                0x20000004                __data_start__ = .
 *(.data_begin .data_begin.*)
 *(.data .data.*)
 .data.startConnectionCmd
                0x20000004       0x24 ./code/ble_std.o
                0x20000004                startConnectionCmd
 .data.all_ff_bytes
                0x20000028       0x20 ./RTE/Device/RSL10/rsl10_protocol.o
 .data.ble_deviceParam
                0x20000048       0x10 ./RTE/Device/RSL10/rsl10_protocol.o
                0x20000048                ble_deviceParam
 .data.rwip_priority
                0x20000058        0xe C:/Users/xeeen/ON_Semiconductor/PACK/ONSemiconductor/RSL10/3.7.606/lib/ble_core/Release/libblelib.a(rwip.o)
                0x20000058                rwip_priority
 *fill*         0x20000066        0x2 
 .data._impure_ptr
                0x20000068        0x4 c:/program files (x86)/on semiconductor/ide_v3.4.0.48/arm_tools/bin/../lib/gcc/arm-none-eabi/10.2.1/../../../../arm-none-eabi/lib/thumb/v7-m/nofp\libg_nano.a(lib_a-impure.o)
                0x20000068                _impure_ptr
 .data.impure_data
                0x2000006c       0x60 c:/program files (x86)/on semiconductor/ide_v3.4.0.48/arm_tools/bin/../lib/gcc/arm-none-eabi/10.2.1/../../../../arm-none-eabi/lib/thumb/v7-m/nofp\libg_nano.a(lib_a-impure.o)
 *(.data_end .data_end.*)
                0x200000cc                . = ALIGN (0x4)
                0x200000cc                __data_end__ = .

.igot.plt       0x200000cc        0x0 load address 0x0012646c
 .igot.plt      0x200000cc        0x0 ./code/app_bass.o

.bss            0x200000cc     0x5580 load address 0x0012646c
                0x200000cc                . = ALIGN (0x4)
                0x200000cc                __bss_start__ = .
 *(.bss_begin .bss_begin.*)
 *(.bss .bss.*)
 .bss.app_batt_read
                0x200000cc        0x8 ./code/app_bass.o
                0x200000cc                app_batt_read
 .bss.app_env   0x200000d4        0x2 ./code/app_init.o
                0x200000d4                app_env
 *fill*         0x200000d6        0x2 
 .bss.appm_state
                0x200000d8        0x1 ./code/app_process.o
                0x200000d8                appm_state
 *fill*         0x200000d9        0x3 
 .bss.basc_support_env
                0x200000dc       0x36 ./code/ble_basc.o
                0x200000dc                basc_support_env
 *fill*         0x20000112        0x2 
 .bss.cs_env    0x20000114      0x450 ./code/ble_custom.o
                0x20000114                cs_env
 .bss.unhandled_packets
                0x20000564        0x4 ./code/ble_custom.o
                0x20000564                unhandled_packets
 .bss.arr_ble_env
                0x20000568       0x24 ./code/ble_std.o
                0x20000568                arr_ble_env
 .bss.bdaddr    0x2000058c        0x6 ./code/ble_std.o
                0x2000058c                bdaddr
 .bss.bdaddr_type
                0x20000592        0x1 ./code/ble_std.o
                0x20000592                bdaddr_type
 *fill*         0x20000593        0x1 
 .bss.gapmConfigCmd
                0x20000594        0x4 ./code/ble_std.o
 .bss.gUARTTXData
                0x20000598        0x4 ./code/uart.o
                0x20000598                gUARTTXData
 .bss.gNextData
                0x2000059c        0x4 ./code/uart.o
                0x2000059c                gNextData
 .bss.timerFlag
                0x200005a0        0x1 ./code/uart.o
                0x200005a0                timerFlag
 *fill*         0x200005a1        0x3 
 .bss.UARTTXBuffer.1
                0x200005a4      0xf40 ./code/uart.o
 .bss.UARTRXBuffer.0
                0x200014e4      0x7a0 ./code/uart.o
 .bss._SEGGER_RTT
                0x20001c84       0xa8 ./RTE/Utility/SEGGER_RTT.o
                0x20001c84                _SEGGER_RTT
 .bss._acUpBuffer
                0x20001d2c      0x400 ./RTE/Utility/SEGGER_RTT.o
 .bss._acDownBuffer
                0x2000212c       0x10 ./RTE/Utility/SEGGER_RTT.o
 .bss.all_00_bytes
                0x2000213c        0x6 ./RTE/Device/RSL10/rsl10_protocol.o
 *fill*         0x20002142        0x2 
 .bss.heapTop.0
                0x20002144        0x4 ./RTE/Device/RSL10/sbrk.o
 .bss.prf_env   0x20002148      0x3c0 C:/Users/xeeen/ON_Semiconductor/PACK/ONSemiconductor/RSL10/3.7.606/lib/ble_core/Release/libblelib.a(prf-prf_utils.o)
                0x20002148                prf_env
 .bss.period_clk
                0x20002508        0x4 C:/Users/xeeen/ON_Semiconductor/PACK/ONSemiconductor/RSL10/3.7.606/lib/ble_core/Release/libblelib.a(rwip.o)
 .bss.rcosc_or_extclk
                0x2000250c        0x1 C:/Users/xeeen/ON_Semiconductor/PACK/ONSemiconductor/RSL10/3.7.606/lib/ble_core/Release/libblelib.a(rwip.o)
 *fill*         0x2000250d        0x3 
 .bss.rwip_rf   0x20002510       0x34 C:/Users/xeeen/ON_Semiconductor/PACK/ONSemiconductor/RSL10/3.7.606/lib/ble_core/Release/libblelib.a(rwip.o)
                0x20002510                rwip_rf
 .bss.sleep_acc_error
                0x20002544        0x4 C:/Users/xeeen/ON_Semiconductor/PACK/ONSemiconductor/RSL10/3.7.606/lib/ble_core/Release/libblelib.a(rwip.o)
 .bss.sleep_duration_reduction_slot
                0x20002548        0x4 C:/Users/xeeen/ON_Semiconductor/PACK/ONSemiconductor/RSL10/3.7.606/lib/ble_core/Release/libblelib.a(rwip.o)
 .bss.sleep_maximum_duration
                0x2000254c        0x4 C:/Users/xeeen/ON_Semiconductor/PACK/ONSemiconductor/RSL10/3.7.606/lib/ble_core/Release/libblelib.a(rwip.o)
 .bss.ecc_env   0x20002550        0x8 C:/Users/xeeen/ON_Semiconductor/PACK/ONSemiconductor/RSL10/3.7.606/lib/ble_core/Release/libblelib.a(ecc_p256.o)
                0x20002550                ecc_env
 .bss.hci_env   0x20002558       0x10 C:/Users/xeeen/ON_Semiconductor/PACK/ONSemiconductor/RSL10/3.7.606/lib/ble_core/Release/libblelib.a(hci.o)
                0x20002558                hci_env
 .bss.hci_fc_env
                0x20002568        0xa C:/Users/xeeen/ON_Semiconductor/PACK/ONSemiconductor/RSL10/3.7.606/lib/ble_core/Release/libblelib.a(hci_fc.o)
                0x20002568                hci_fc_env
 *fill*         0x20002572        0x2 
 .bss.ea_env    0x20002574       0x20 C:/Users/xeeen/ON_Semiconductor/PACK/ONSemiconductor/RSL10/3.7.606/lib/ble_core/Release/libblelib.a(ea.o)
 .bss.time_msb.0
                0x20002594        0x1 C:/Users/xeeen/ON_Semiconductor/PACK/ONSemiconductor/RSL10/3.7.606/lib/ble_core/Release/libblelib.a(ea.o)
 *fill*         0x20002595        0x3 
 .bss.ble_rand_seed
                0x20002598        0x4 C:/Users/xeeen/ON_Semiconductor/PACK/ONSemiconductor/RSL10/3.7.606/lib/ble_core/Release/libblelib.a(rwble.o)
                0x20002598                ble_rand_seed
 .bss.error_irq_cnt
                0x2000259c        0x4 C:/Users/xeeen/ON_Semiconductor/PACK/ONSemiconductor/RSL10/3.7.606/lib/ble_core/Release/libblelib.a(rwble.o)
                0x2000259c                error_irq_cnt
 .bss.error_irq_value
                0x200025a0        0x4 C:/Users/xeeen/ON_Semiconductor/PACK/ONSemiconductor/RSL10/3.7.606/lib/ble_core/Release/libblelib.a(rwble.o)
                0x200025a0                error_irq_value
 .bss.llm_le_env
                0x200025a4       0xcc C:/Users/xeeen/ON_Semiconductor/PACK/ONSemiconductor/RSL10/3.7.606/lib/ble_core/Release/libblelib.a(llm.o)
                0x200025a4                llm_le_env
 .bss.llm_state
                0x20002670        0x1 C:/Users/xeeen/ON_Semiconductor/PACK/ONSemiconductor/RSL10/3.7.606/lib/ble_core/Release/libblelib.a(llm_task.o)
                0x20002670                llm_state
 .bss.ble_scan_desiredChanl
                0x20002671        0x1 C:/Users/xeeen/ON_Semiconductor/PACK/ONSemiconductor/RSL10/3.7.606/lib/ble_core/Release/libblelib.a(lld.o)
                0x20002671                ble_scan_desiredChanl
 .bss.ble_scan_single_chnl
                0x20002672        0x1 C:/Users/xeeen/ON_Semiconductor/PACK/ONSemiconductor/RSL10/3.7.606/lib/ble_core/Release/libblelib.a(lld.o)
                0x20002672                ble_scan_single_chnl
 *fill*         0x20002673        0x1 
 .bss.BLE_Con_Ind_CallBack
                0x20002674        0x4 C:/Users/xeeen/ON_Semiconductor/PACK/ONSemiconductor/RSL10/3.7.606/lib/ble_core/Release/libblelib.a(lld_evt.o)
                0x20002674                BLE_Con_Ind_CallBack
 .bss.ble_instChange_rxWinSize_include
                0x20002678        0x1 C:/Users/xeeen/ON_Semiconductor/PACK/ONSemiconductor/RSL10/3.7.606/lib/ble_core/Release/libblelib.a(lld_evt.o)
                0x20002678                ble_instChange_rxWinSize_include
 *fill*         0x20002679        0x3 
 .bss.ble_max_rx_window_size
                0x2000267c        0x4 C:/Users/xeeen/ON_Semiconductor/PACK/ONSemiconductor/RSL10/3.7.606/lib/ble_core/Release/libblelib.a(lld_evt.o)
                0x2000267c                ble_max_rx_window_size
 .bss.ble_rx_window_size_disconnet
                0x20002680        0x4 C:/Users/xeeen/ON_Semiconductor/PACK/ONSemiconductor/RSL10/3.7.606/lib/ble_core/Release/libblelib.a(lld_evt.o)
                0x20002680                ble_rx_window_size_disconnet
 .bss.conIndCallbackSent
                0x20002684        0x8 C:/Users/xeeen/ON_Semiconductor/PACK/ONSemiconductor/RSL10/3.7.606/lib/ble_core/Release/libblelib.a(lld_evt.o)
                0x20002684                conIndCallbackSent
 .bss.lld_evt_env
                0x2000268c       0x30 C:/Users/xeeen/ON_Semiconductor/PACK/ONSemiconductor/RSL10/3.7.606/lib/ble_core/Release/libblelib.a(lld_evt.o)
                0x2000268c                lld_evt_env
 .bss.BLE_ScanConIndStatus_CallBack
                0x200026bc        0x4 C:/Users/xeeen/ON_Semiconductor/PACK/ONSemiconductor/RSL10/3.7.606/lib/ble_core/Release/libblelib.a(lld_pdu.o)
                0x200026bc                BLE_ScanConIndStatus_CallBack
 .bss.ble_forced_md
                0x200026c0        0x1 C:/Users/xeeen/ON_Semiconductor/PACK/ONSemiconductor/RSL10/3.7.606/lib/ble_core/Release/libblelib.a(lld_pdu.o)
                0x200026c0                ble_forced_md
 .bss.stat_cnt_conidx
                0x200026c1        0x1 C:/Users/xeeen/ON_Semiconductor/PACK/ONSemiconductor/RSL10/3.7.606/lib/ble_core/Release/libblelib.a(lld_pdu.o)
                0x200026c1                stat_cnt_conidx
 .bss.stat_cnt_enable
                0x200026c2        0x1 C:/Users/xeeen/ON_Semiconductor/PACK/ONSemiconductor/RSL10/3.7.606/lib/ble_core/Release/libblelib.a(lld_pdu.o)
                0x200026c2                stat_cnt_enable
 *fill*         0x200026c3        0x1 
 .bss.stat_cnt_value
                0x200026c4       0x2c C:/Users/xeeen/ON_Semiconductor/PACK/ONSemiconductor/RSL10/3.7.606/lib/ble_core/Release/libblelib.a(lld_pdu.o)
                0x200026c4                stat_cnt_value
 .bss.ble_is_awake_flag
                0x200026f0        0x1 C:/Users/xeeen/ON_Semiconductor/PACK/ONSemiconductor/RSL10/3.7.606/lib/ble_core/Release/libblelib.a(lld_sleep.o)
 *fill*         0x200026f1        0x3 
 .bss.lld_sleep_env
                0x200026f4        0x4 C:/Users/xeeen/ON_Semiconductor/PACK/ONSemiconductor/RSL10/3.7.606/lib/ble_core/Release/libblelib.a(lld_sleep.o)
 .bss.lld_sleep_params
                0x200026f8        0x2 C:/Users/xeeen/ON_Semiconductor/PACK/ONSemiconductor/RSL10/3.7.606/lib/ble_core/Release/libblelib.a(lld_sleep.o)
                0x200026f8                lld_sleep_params
 *fill*         0x200026fa        0x2 
 .bss.BLE_ChnlMap_Ind_CallBack
                0x200026fc        0x4 C:/Users/xeeen/ON_Semiconductor/PACK/ONSemiconductor/RSL10/3.7.606/lib/ble_core/Release/libblelib.a(llc.o)
                0x200026fc                BLE_ChnlMap_Ind_CallBack
 .bss.llc_env   0x20002700       0x20 C:/Users/xeeen/ON_Semiconductor/PACK/ONSemiconductor/RSL10/3.7.606/lib/ble_core/Release/libblelib.a(llc.o)
                0x20002700                llc_env
 .bss.ble_conParam_desiredOffsets
                0x20002720        0xc C:/Users/xeeen/ON_Semiconductor/PACK/ONSemiconductor/RSL10/3.7.606/lib/ble_core/Release/libblelib.a(llc_llcp.o)
                0x20002720                ble_conParam_desiredOffsets
 .bss.ble_conParam_desiredOffsets_enable
                0x2000272c        0x1 C:/Users/xeeen/ON_Semiconductor/PACK/ONSemiconductor/RSL10/3.7.606/lib/ble_core/Release/libblelib.a(llc_llcp.o)
                0x2000272c                ble_conParam_desiredOffsets_enable
 .bss.ble_paramUpdateRsp_masterRepeat
                0x2000272d        0x1 C:/Users/xeeen/ON_Semiconductor/PACK/ONSemiconductor/RSL10/3.7.606/lib/ble_core/Release/libblelib.a(llc_llcp.o)
                0x2000272d                ble_paramUpdateRsp_masterRepeat
 .bss.llc_state
                0x2000272e        0x8 C:/Users/xeeen/ON_Semiconductor/PACK/ONSemiconductor/RSL10/3.7.606/lib/ble_core/Release/libblelib.a(llc_task.o)
                0x2000272e                llc_state
 *fill*         0x20002736        0x2 
 .bss.BLE_RxStatus_CallBack
                0x20002738        0x4 C:/Users/xeeen/ON_Semiconductor/PACK/ONSemiconductor/RSL10/3.7.606/lib/ble_core/Release/libblelib.a(llc_util.o)
                0x20002738                BLE_RxStatus_CallBack
 .bss.ble_anchorPoint_move_req
                0x2000273c        0x1 C:/Users/xeeen/ON_Semiconductor/PACK/ONSemiconductor/RSL10/3.7.606/lib/ble_core/Release/libblelib.a(llc_util.o)
                0x2000273c                ble_anchorPoint_move_req
 *fill*         0x2000273d        0x3 
 .bss.em_buf_env
                0x20002740      0x49c C:/Users/xeeen/ON_Semiconductor/PACK/ONSemiconductor/RSL10/3.7.606/lib/ble_core/Release/libblelib.a(em_buf.o)
                0x20002740                em_buf_env
 .bss.l2cm_env  0x20002bdc        0xc C:/Users/xeeen/ON_Semiconductor/PACK/ONSemiconductor/RSL10/3.7.606/lib/ble_core/Release/libblelib.a(l2cm.o)
                0x20002bdc                l2cm_env
 .bss.l2cc_env  0x20002be8       0x20 C:/Users/xeeen/ON_Semiconductor/PACK/ONSemiconductor/RSL10/3.7.606/lib/ble_core/Release/libblelib.a(l2cc.o)
                0x20002be8                l2cc_env
 .bss.l2cc_state
                0x20002c08        0x8 C:/Users/xeeen/ON_Semiconductor/PACK/ONSemiconductor/RSL10/3.7.606/lib/ble_core/Release/libblelib.a(l2cc_task.o)
                0x20002c08                l2cc_state
 .bss.gattm_env
                0x20002c10       0x20 C:/Users/xeeen/ON_Semiconductor/PACK/ONSemiconductor/RSL10/3.7.606/lib/ble_core/Release/libblelib.a(gattm.o)
                0x20002c10                gattm_env
 .bss.gattm_state
                0x20002c30        0x1 C:/Users/xeeen/ON_Semiconductor/PACK/ONSemiconductor/RSL10/3.7.606/lib/ble_core/Release/libblelib.a(gattm_task.o)
                0x20002c30                gattm_state
 *fill*         0x20002c31        0x3 
 .bss.gattc_env
                0x20002c34       0x20 C:/Users/xeeen/ON_Semiconductor/PACK/ONSemiconductor/RSL10/3.7.606/lib/ble_core/Release/libblelib.a(gattc.o)
                0x20002c34                gattc_env
 .bss.gattc_state
                0x20002c54        0x8 C:/Users/xeeen/ON_Semiconductor/PACK/ONSemiconductor/RSL10/3.7.606/lib/ble_core/Release/libblelib.a(gattc_task.o)
                0x20002c54                gattc_state
 .bss.gapm_env  0x20002c5c       0x48 C:/Users/xeeen/ON_Semiconductor/PACK/ONSemiconductor/RSL10/3.7.606/lib/ble_core/Release/libblelib.a(gapm.o)
                0x20002c5c                gapm_env
 .bss.gapm_state
                0x20002ca4        0x1 C:/Users/xeeen/ON_Semiconductor/PACK/ONSemiconductor/RSL10/3.7.606/lib/ble_core/Release/libblelib.a(gapm_task.o)
                0x20002ca4                gapm_state
 .bss.ble_adv_flags_exclude
                0x20002ca5        0x1 C:/Users/xeeen/ON_Semiconductor/PACK/ONSemiconductor/RSL10/3.7.606/lib/ble_core/Release/libblelib.a(gapm_util.o)
                0x20002ca5                ble_adv_flags_exclude
 *fill*         0x20002ca6        0x2 
 .bss.gapc_env  0x20002ca8       0x20 C:/Users/xeeen/ON_Semiconductor/PACK/ONSemiconductor/RSL10/3.7.606/lib/ble_core/Release/libblelib.a(gapc.o)
                0x20002ca8                gapc_env
 .bss.gapc_state
                0x20002cc8        0x8 C:/Users/xeeen/ON_Semiconductor/PACK/ONSemiconductor/RSL10/3.7.606/lib/ble_core/Release/libblelib.a(gapc_task.o)
                0x20002cc8                gapc_state
 .bss.rwip_env  0x20002cd0       0x10 C:/Users/xeeen/ON_Semiconductor/PACK/ONSemiconductor/RSL10/3.7.606/lib/ble_core/Release/libkelib.a(rwip2.o)
                0x20002cd0                rwip_env
 .bss.rwip_heap_db
                0x20002ce0      0x80c C:/Users/xeeen/ON_Semiconductor/PACK/ONSemiconductor/RSL10/3.7.606/lib/ble_core/Release/libkelib.a(rwip2.o)
                0x20002ce0                rwip_heap_db
 .bss.rwip_heap_env
                0x200034ec     0x100c C:/Users/xeeen/ON_Semiconductor/PACK/ONSemiconductor/RSL10/3.7.606/lib/ble_core/Release/libkelib.a(rwip2.o)
                0x200034ec                rwip_heap_env
 .bss.rwip_heap_msg
                0x200044f8     0x100c C:/Users/xeeen/ON_Semiconductor/PACK/ONSemiconductor/RSL10/3.7.606/lib/ble_core/Release/libkelib.a(rwip2.o)
                0x200044f8                rwip_heap_msg
 .bss.rwip_heap_non_ret
                0x20005504        0xc C:/Users/xeeen/ON_Semiconductor/PACK/ONSemiconductor/RSL10/3.7.606/lib/ble_core/Release/libkelib.a(rwip2.o)
                0x20005504                rwip_heap_non_ret
 .bss.ke_env    0x20005510       0x30 C:/Users/xeeen/ON_Semiconductor/PACK/ONSemiconductor/RSL10/3.7.606/lib/ble_core/Release/libkelib.a(ke.o)
                0x20005510                ke_env
 .bss.ke_event_env
                0x20005540       0x30 C:/Users/xeeen/ON_Semiconductor/PACK/ONSemiconductor/RSL10/3.7.606/lib/ble_core/Release/libkelib.a(ke_event.o)
 .bss.ke_task_env
                0x20005570       0xcc C:/Users/xeeen/ON_Semiconductor/PACK/ONSemiconductor/RSL10/3.7.606/lib/ble_core/Release/libkelib.a(ke_task.o)
 .bss.__malloc_free_list
                0x2000563c        0x4 c:/program files (x86)/on semiconductor/ide_v3.4.0.48/arm_tools/bin/../lib/gcc/arm-none-eabi/10.2.1/../../../../arm-none-eabi/lib/thumb/v7-m/nofp\libg_nano.a(lib_a-nano-mallocr.o)
                0x2000563c                __malloc_free_list
 .bss.__malloc_sbrk_start
                0x20005640        0x4 c:/program files (x86)/on semiconductor/ide_v3.4.0.48/arm_tools/bin/../lib/gcc/arm-none-eabi/10.2.1/../../../../arm-none-eabi/lib/thumb/v7-m/nofp\libg_nano.a(lib_a-nano-mallocr.o)
                0x20005640                __malloc_sbrk_start
 .bss.errno     0x20005644        0x4 c:/program files (x86)/on semiconductor/ide_v3.4.0.48/arm_tools/bin/../lib/gcc/arm-none-eabi/10.2.1/../../../../arm-none-eabi/lib/thumb/v7-m/nofp\libg_nano.a(lib_a-reent.o)
                0x20005644                errno
 .bss.__lock___malloc_recursive_mutex
                0x20005648        0x1 c:/program files (x86)/on semiconductor/ide_v3.4.0.48/arm_tools/bin/../lib/gcc/arm-none-eabi/10.2.1/../../../../arm-none-eabi/lib/thumb/v7-m/nofp\libg_nano.a(lib_a-lock.o)
                0x20005648                __lock___malloc_recursive_mutex
 .bss.__lock___sfp_recursive_mutex
                0x20005649        0x1 c:/program files (x86)/on semiconductor/ide_v3.4.0.48/arm_tools/bin/../lib/gcc/arm-none-eabi/10.2.1/../../../../arm-none-eabi/lib/thumb/v7-m/nofp\libg_nano.a(lib_a-lock.o)
                0x20005649                __lock___sfp_recursive_mutex
 .bss.__lock___sinit_recursive_mutex
                0x2000564a        0x1 c:/program files (x86)/on semiconductor/ide_v3.4.0.48/arm_tools/bin/../lib/gcc/arm-none-eabi/10.2.1/../../../../arm-none-eabi/lib/thumb/v7-m/nofp\libg_nano.a(lib_a-lock.o)
                0x2000564a                __lock___sinit_recursive_mutex
 *(COMMON)
 *(.bss_end .bss_end.*)
                0x2000564c                . = ALIGN (0x4)
 *fill*         0x2000564b        0x1 
                0x2000564c                __bss_end__ = .

.noinit         0x2000564c        0x0
                0x2000564c                . = ALIGN (0x4)
                0x2000564c                __noinit_start__ = .
 *(.noinit .noinit.*)
                0x2000564c                . = ALIGN (0x4)
                0x2000564c                __noinit_end__ = .
OUTPUT(bleclient_osj10.elf elf32-littlearm)
LOAD linker stubs

.debug_info     0x00000000    0x1312f
 .debug_info    0x00000000     0x16d5 ./code/app_bass.o
 .debug_info    0x000016d5     0x20f2 ./code/app_init.o
 .debug_info    0x000037c7     0x19e0 ./code/app_process.o
 .debug_info    0x000051a7     0x1d96 ./code/ble_basc.o
 .debug_info    0x00006f3d     0x1d73 ./code/ble_custom.o
 .debug_info    0x00008cb0     0x2d7a ./code/ble_std.o
 .debug_info    0x0000ba2a     0x1bad ./code/uart.o
 .debug_info    0x0000d5d7      0x6d3 ./code/ui_handler.o
 .debug_info    0x0000dcaa     0x1579 ./RTE/Utility/SEGGER_RTT.o
 .debug_info    0x0000f223      0x41f ./RTE/Utility/SEGGER_RTT_printf.o
 .debug_info    0x0000f642       0x8c ./RTE/Utility/printf.o
 .debug_info    0x0000f6ce      0x54a ./RTE/Device/RSL10/rsl10_protocol.o
 .debug_info    0x0000fc18      0x1cb ./RTE/Device/RSL10/rsl10_sys_dma.o
 .debug_info    0x0000fde3      0x904 ./RTE/Device/RSL10/rsl10_sys_power.o
 .debug_info    0x000106e7      0xb60 ./RTE/Device/RSL10/rsl10_sys_rffe.o
 .debug_info    0x00011247      0x14a ./RTE/Device/RSL10/rsl10_sys_uart.o
 .debug_info    0x00011391      0x119 ./RTE/Device/RSL10/sbrk.o
 .debug_info    0x000114aa      0xcc7 ./RTE/Device/RSL10/start.o
 .debug_info    0x00012171       0x22 ./RTE/Device/RSL10/startup_rsl10.o
 .debug_info    0x00012193      0x905 ./RTE/Device/RSL10/system_rsl10.o
 .debug_info    0x00012a98      0x4c5 ./RTE/Device/stubprf.o
 .debug_info    0x00012f5d      0x1d2 ./app.o

.debug_abbrev   0x00000000     0x25b5
 .debug_abbrev  0x00000000      0x24c ./code/app_bass.o
 .debug_abbrev  0x0000024c      0x2cc ./code/app_init.o
 .debug_abbrev  0x00000518      0x209 ./code/app_process.o
 .debug_abbrev  0x00000721      0x2b3 ./code/ble_basc.o
 .debug_abbrev  0x000009d4      0x290 ./code/ble_custom.o
 .debug_abbrev  0x00000c64      0x376 ./code/ble_std.o
 .debug_abbrev  0x00000fda      0x34a ./code/uart.o
 .debug_abbrev  0x00001324      0x1dc ./code/ui_handler.o
 .debug_abbrev  0x00001500      0x1e6 ./RTE/Utility/SEGGER_RTT.o
 .debug_abbrev  0x000016e6      0x18d ./RTE/Utility/SEGGER_RTT_printf.o
 .debug_abbrev  0x00001873       0x44 ./RTE/Utility/printf.o
 .debug_abbrev  0x000018b7      0x1b8 ./RTE/Device/RSL10/rsl10_protocol.o
 .debug_abbrev  0x00001a6f       0xc4 ./RTE/Device/RSL10/rsl10_sys_dma.o
 .debug_abbrev  0x00001b33      0x127 ./RTE/Device/RSL10/rsl10_sys_power.o
 .debug_abbrev  0x00001c5a      0x20f ./RTE/Device/RSL10/rsl10_sys_rffe.o
 .debug_abbrev  0x00001e69       0xe5 ./RTE/Device/RSL10/rsl10_sys_uart.o
 .debug_abbrev  0x00001f4e       0x95 ./RTE/Device/RSL10/sbrk.o
 .debug_abbrev  0x00001fe3      0x28b ./RTE/Device/RSL10/start.o
 .debug_abbrev  0x0000226e       0x12 ./RTE/Device/RSL10/startup_rsl10.o
 .debug_abbrev  0x00002280      0x179 ./RTE/Device/RSL10/system_rsl10.o
 .debug_abbrev  0x000023f9       0x65 ./RTE/Device/stubprf.o
 .debug_abbrev  0x0000245e      0x157 ./app.o

.debug_aranges  0x00000000      0x8f0
 .debug_aranges
                0x00000000       0x68 ./code/app_bass.o
 .debug_aranges
                0x00000068       0x48 ./code/app_init.o
 .debug_aranges
                0x000000b0       0x40 ./code/app_process.o
 .debug_aranges
                0x000000f0       0x68 ./code/ble_basc.o
 .debug_aranges
                0x00000158       0x70 ./code/ble_custom.o
 .debug_aranges
                0x000001c8       0xa8 ./code/ble_std.o
 .debug_aranges
                0x00000270       0x80 ./code/uart.o
 .debug_aranges
                0x000002f0       0x68 ./code/ui_handler.o
 .debug_aranges
                0x00000358      0x138 ./RTE/Utility/SEGGER_RTT.o
 .debug_aranges
                0x00000490       0x40 ./RTE/Utility/SEGGER_RTT_printf.o
 .debug_aranges
                0x000004d0       0x20 ./RTE/Utility/printf.o
 .debug_aranges
                0x000004f0       0x60 ./RTE/Device/RSL10/rsl10_protocol.o
 .debug_aranges
                0x00000550       0x20 ./RTE/Device/RSL10/rsl10_sys_dma.o
 .debug_aranges
                0x00000570       0x60 ./RTE/Device/RSL10/rsl10_sys_power.o
 .debug_aranges
                0x000005d0       0x50 ./RTE/Device/RSL10/rsl10_sys_rffe.o
 .debug_aranges
                0x00000620       0x20 ./RTE/Device/RSL10/rsl10_sys_uart.o
 .debug_aranges
                0x00000640       0x20 ./RTE/Device/RSL10/sbrk.o
 .debug_aranges
                0x00000660       0x50 ./RTE/Device/RSL10/start.o
 .debug_aranges
                0x000006b0       0x28 ./RTE/Device/RSL10/startup_rsl10.o
 .debug_aranges
                0x000006d8       0x38 ./RTE/Device/RSL10/system_rsl10.o
 .debug_aranges
                0x00000710      0x1b8 ./RTE/Device/stubprf.o
 .debug_aranges
                0x000008c8       0x28 ./app.o

.debug_ranges   0x00000000      0x7b0
 .debug_ranges  0x00000000       0x58 ./code/app_bass.o
 .debug_ranges  0x00000058       0x38 ./code/app_init.o
 .debug_ranges  0x00000090       0x30 ./code/app_process.o
 .debug_ranges  0x000000c0       0x58 ./code/ble_basc.o
 .debug_ranges  0x00000118       0x60 ./code/ble_custom.o
 .debug_ranges  0x00000178       0x98 ./code/ble_std.o
 .debug_ranges  0x00000210       0x70 ./code/uart.o
 .debug_ranges  0x00000280       0x58 ./code/ui_handler.o
 .debug_ranges  0x000002d8      0x128 ./RTE/Utility/SEGGER_RTT.o
 .debug_ranges  0x00000400       0x48 ./RTE/Utility/SEGGER_RTT_printf.o
 .debug_ranges  0x00000448       0x10 ./RTE/Utility/printf.o
 .debug_ranges  0x00000458       0x50 ./RTE/Device/RSL10/rsl10_protocol.o
 .debug_ranges  0x000004a8       0x10 ./RTE/Device/RSL10/rsl10_sys_dma.o
 .debug_ranges  0x000004b8       0x50 ./RTE/Device/RSL10/rsl10_sys_power.o
 .debug_ranges  0x00000508       0x40 ./RTE/Device/RSL10/rsl10_sys_rffe.o
 .debug_ranges  0x00000548       0x10 ./RTE/Device/RSL10/rsl10_sys_uart.o
 .debug_ranges  0x00000558       0x10 ./RTE/Device/RSL10/sbrk.o
 .debug_ranges  0x00000568       0x40 ./RTE/Device/RSL10/start.o
 .debug_ranges  0x000005a8       0x20 ./RTE/Device/RSL10/startup_rsl10.o
 .debug_ranges  0x000005c8       0x28 ./RTE/Device/RSL10/system_rsl10.o
 .debug_ranges  0x000005f0      0x1a8 ./RTE/Device/stubprf.o
 .debug_ranges  0x00000798       0x18 ./app.o

.debug_line     0x00000000     0x6d97
 .debug_line    0x00000000      0x612 ./code/app_bass.o
 .debug_line    0x00000612      0x6d6 ./code/app_init.o
 .debug_line    0x00000ce8      0x60e ./code/app_process.o
 .debug_line    0x000012f6      0x709 ./code/ble_basc.o
 .debug_line    0x000019ff      0x901 ./code/ble_custom.o
 .debug_line    0x00002300      0xa0c ./code/ble_std.o
 .debug_line    0x00002d0c      0x92c ./code/uart.o
 .debug_line    0x00003638      0x480 ./code/ui_handler.o
 .debug_line    0x00003ab8      0x9c6 ./RTE/Utility/SEGGER_RTT.o
 .debug_line    0x0000447e      0x478 ./RTE/Utility/SEGGER_RTT_printf.o
 .debug_line    0x000048f6       0xa7 ./RTE/Utility/printf.o
 .debug_line    0x0000499d      0x430 ./RTE/Device/RSL10/rsl10_protocol.o
 .debug_line    0x00004dcd      0x21c ./RTE/Device/RSL10/rsl10_sys_dma.o
 .debug_line    0x00004fe9      0x3d5 ./RTE/Device/RSL10/rsl10_sys_power.o
 .debug_line    0x000053be      0x582 ./RTE/Device/RSL10/rsl10_sys_rffe.o
 .debug_line    0x00005940      0x23d ./RTE/Device/RSL10/rsl10_sys_uart.o
 .debug_line    0x00005b7d      0x215 ./RTE/Device/RSL10/sbrk.o
 .debug_line    0x00005d92      0x498 ./RTE/Device/RSL10/start.o
 .debug_line    0x0000622a       0x77 ./RTE/Device/RSL10/startup_rsl10.o
 .debug_line    0x000062a1      0x373 ./RTE/Device/RSL10/system_rsl10.o
 .debug_line    0x00006614      0x578 ./RTE/Device/stubprf.o
 .debug_line    0x00006b8c      0x20b ./app.o

.debug_str      0x00000000     0x82fd
 .debug_str     0x00000000     0x32d5 ./code/app_bass.o
                               0x339b (size before relaxing)
 .debug_str     0x000032d5      0x913 ./code/app_init.o
                               0x3697 (size before relaxing)
 .debug_str     0x00003be8      0xdfa ./code/app_process.o
                               0x3c2a (size before relaxing)
 .debug_str     0x000049e2      0x8d8 ./code/ble_basc.o
                               0x3be5 (size before relaxing)
 .debug_str     0x000052ba      0x4e9 ./code/ble_custom.o
                               0x354f (size before relaxing)
 .debug_str     0x000057a3      0xbed ./code/ble_std.o
                               0x52c1 (size before relaxing)
 .debug_str     0x00006390      0x315 ./code/uart.o
                               0x3660 (size before relaxing)
 .debug_str     0x000066a5       0xfe ./code/ui_handler.o
                                0x4d2 (size before relaxing)
 .debug_str     0x000067a3      0x514 ./RTE/Utility/SEGGER_RTT.o
                                0x6bc (size before relaxing)
 .debug_str     0x00006cb7      0x165 ./RTE/Utility/SEGGER_RTT_printf.o
                                0x30f (size before relaxing)
 .debug_str     0x00006e1c       0x6f ./RTE/Utility/printf.o
                                0x1d7 (size before relaxing)
 .debug_str     0x00006e8b      0x224 ./RTE/Device/RSL10/rsl10_protocol.o
                                0x626 (size before relaxing)
 .debug_str     0x000070af       0xb0 ./RTE/Device/RSL10/rsl10_sys_dma.o
                                0x28b (size before relaxing)
 .debug_str     0x0000715f      0x32f ./RTE/Device/RSL10/rsl10_sys_power.o
                                0x606 (size before relaxing)
 .debug_str     0x0000748e      0x2fd ./RTE/Device/RSL10/rsl10_sys_rffe.o
                                0x80c (size before relaxing)
 .debug_str     0x0000778b       0xa2 ./RTE/Device/RSL10/rsl10_sys_uart.o
                                0x23f (size before relaxing)
 .debug_str     0x0000782d       0x9d ./RTE/Device/RSL10/sbrk.o
                                0x22e (size before relaxing)
 .debug_str     0x000078ca      0x47d ./RTE/Device/RSL10/start.o
                                0xd2f (size before relaxing)
 .debug_str     0x00007d47       0x32 ./RTE/Device/RSL10/startup_rsl10.o
                                 0x54 (size before relaxing)
 .debug_str     0x00007d79      0x185 ./RTE/Device/RSL10/system_rsl10.o
                                0x77a (size before relaxing)
 .debug_str     0x00007efe      0x3f1 ./RTE/Device/stubprf.o
                                0x4e6 (size before relaxing)
 .debug_str     0x000082ef        0xe ./app.o
                                0x21d (size before relaxing)

.comment        0x00000000       0x4d
 .comment       0x00000000       0x4d ./code/app_bass.o
                                 0x4e (size before relaxing)
 .comment       0x0000004d       0x4e ./code/app_init.o
 .comment       0x0000004d       0x4e ./code/app_process.o
 .comment       0x0000004d       0x4e ./code/ble_basc.o
 .comment       0x0000004d       0x4e ./code/ble_custom.o
 .comment       0x0000004d       0x4e ./code/ble_std.o
 .comment       0x0000004d       0x4e ./code/uart.o
 .comment       0x0000004d       0x4e ./code/ui_handler.o
 .comment       0x0000004d       0x4e ./RTE/Utility/SEGGER_RTT.o
 .comment       0x0000004d       0x4e ./RTE/Utility/SEGGER_RTT_printf.o
 .comment       0x0000004d       0x4e ./RTE/Utility/printf.o
 .comment       0x0000004d       0x4e ./RTE/Device/RSL10/rsl10_protocol.o
 .comment       0x0000004d       0x4e ./RTE/Device/RSL10/rsl10_sys_dma.o
 .comment       0x0000004d       0x4e ./RTE/Device/RSL10/rsl10_sys_power.o
 .comment       0x0000004d       0x4e ./RTE/Device/RSL10/rsl10_sys_rffe.o
 .comment       0x0000004d       0x4e ./RTE/Device/RSL10/rsl10_sys_uart.o
 .comment       0x0000004d       0x4e ./RTE/Device/RSL10/sbrk.o
 .comment       0x0000004d       0x4e ./RTE/Device/RSL10/start.o
 .comment       0x0000004d       0x4e ./RTE/Device/RSL10/system_rsl10.o
 .comment       0x0000004d       0x4e ./RTE/Device/stubprf.o
 .comment       0x0000004d       0x4e ./app.o
 .comment       0x0000004d       0x4e C:/Users/xeeen/ON_Semiconductor/PACK/ONSemiconductor/RSL10/3.7.606/lib/ble_core/Release/libblelib.a(prf-prf_utils.o)
 .comment       0x0000004d       0x4e C:/Users/xeeen/ON_Semiconductor/PACK/ONSemiconductor/RSL10/3.7.606/lib/ble_core/Release/libblelib.a(rwip.o)
 .comment       0x0000004d       0x4e C:/Users/xeeen/ON_Semiconductor/PACK/ONSemiconductor/RSL10/3.7.606/lib/ble_core/Release/libblelib.a(rf_atlas.o)
 .comment       0x0000004d       0x4e C:/Users/xeeen/ON_Semiconductor/PACK/ONSemiconductor/RSL10/3.7.606/lib/ble_core/Release/libblelib.a(ecc_p256.o)
 .comment       0x0000004d       0x4e C:/Users/xeeen/ON_Semiconductor/PACK/ONSemiconductor/RSL10/3.7.606/lib/ble_core/Release/libblelib.a(hci.o)
 .comment       0x0000004d       0x4e C:/Users/xeeen/ON_Semiconductor/PACK/ONSemiconductor/RSL10/3.7.606/lib/ble_core/Release/libblelib.a(hci_fc.o)
 .comment       0x0000004d       0x4e C:/Users/xeeen/ON_Semiconductor/PACK/ONSemiconductor/RSL10/3.7.606/lib/ble_core/Release/libblelib.a(hci_msg.o)
 .comment       0x0000004d       0x4e C:/Users/xeeen/ON_Semiconductor/PACK/ONSemiconductor/RSL10/3.7.606/lib/ble_core/Release/libblelib.a(ea.o)
 .comment       0x0000004d       0x4e C:/Users/xeeen/ON_Semiconductor/PACK/ONSemiconductor/RSL10/3.7.606/lib/ble_core/Release/libblelib.a(rwble.o)
 .comment       0x0000004d       0x4e C:/Users/xeeen/ON_Semiconductor/PACK/ONSemiconductor/RSL10/3.7.606/lib/ble_core/Release/libblelib.a(llm.o)
 .comment       0x0000004d       0x4e C:/Users/xeeen/ON_Semiconductor/PACK/ONSemiconductor/RSL10/3.7.606/lib/ble_core/Release/libblelib.a(llm_task.o)
 .comment       0x0000004d       0x4e C:/Users/xeeen/ON_Semiconductor/PACK/ONSemiconductor/RSL10/3.7.606/lib/ble_core/Release/libblelib.a(llm_util.o)
 .comment       0x0000004d       0x4e C:/Users/xeeen/ON_Semiconductor/PACK/ONSemiconductor/RSL10/3.7.606/lib/ble_core/Release/libblelib.a(lld.o)
 .comment       0x0000004d       0x4e C:/Users/xeeen/ON_Semiconductor/PACK/ONSemiconductor/RSL10/3.7.606/lib/ble_core/Release/libblelib.a(lld_evt.o)
 .comment       0x0000004d       0x4e C:/Users/xeeen/ON_Semiconductor/PACK/ONSemiconductor/RSL10/3.7.606/lib/ble_core/Release/libblelib.a(lld_pdu.o)
 .comment       0x0000004d       0x4e C:/Users/xeeen/ON_Semiconductor/PACK/ONSemiconductor/RSL10/3.7.606/lib/ble_core/Release/libblelib.a(lld_sleep.o)
 .comment       0x0000004d       0x4e C:/Users/xeeen/ON_Semiconductor/PACK/ONSemiconductor/RSL10/3.7.606/lib/ble_core/Release/libblelib.a(lld_util.o)
 .comment       0x0000004d       0x4e C:/Users/xeeen/ON_Semiconductor/PACK/ONSemiconductor/RSL10/3.7.606/lib/ble_core/Release/libblelib.a(lld_wlcoex.o)
 .comment       0x0000004d       0x4e C:/Users/xeeen/ON_Semiconductor/PACK/ONSemiconductor/RSL10/3.7.606/lib/ble_core/Release/libblelib.a(llc.o)
 .comment       0x0000004d       0x4e C:/Users/xeeen/ON_Semiconductor/PACK/ONSemiconductor/RSL10/3.7.606/lib/ble_core/Release/libblelib.a(llc_llcp.o)
 .comment       0x0000004d       0x4e C:/Users/xeeen/ON_Semiconductor/PACK/ONSemiconductor/RSL10/3.7.606/lib/ble_core/Release/libblelib.a(llc_task.o)
 .comment       0x0000004d       0x4e C:/Users/xeeen/ON_Semiconductor/PACK/ONSemiconductor/RSL10/3.7.606/lib/ble_core/Release/libblelib.a(llc_util.o)
 .comment       0x0000004d       0x4e C:/Users/xeeen/ON_Semiconductor/PACK/ONSemiconductor/RSL10/3.7.606/lib/ble_core/Release/libblelib.a(em_buf.o)
 .comment       0x0000004d       0x4e C:/Users/xeeen/ON_Semiconductor/PACK/ONSemiconductor/RSL10/3.7.606/lib/ble_core/Release/libblelib.a(rwble_hl.o)
 .comment       0x0000004d       0x4e C:/Users/xeeen/ON_Semiconductor/PACK/ONSemiconductor/RSL10/3.7.606/lib/ble_core/Release/libblelib.a(l2cm.o)
 .comment       0x0000004d       0x4e C:/Users/xeeen/ON_Semiconductor/PACK/ONSemiconductor/RSL10/3.7.606/lib/ble_core/Release/libblelib.a(l2cc.o)
 .comment       0x0000004d       0x4e C:/Users/xeeen/ON_Semiconductor/PACK/ONSemiconductor/RSL10/3.7.606/lib/ble_core/Release/libblelib.a(l2cc_lecb.o)
 .comment       0x0000004d       0x4e C:/Users/xeeen/ON_Semiconductor/PACK/ONSemiconductor/RSL10/3.7.606/lib/ble_core/Release/libblelib.a(l2cc_pdu.o)
 .comment       0x0000004d       0x4e C:/Users/xeeen/ON_Semiconductor/PACK/ONSemiconductor/RSL10/3.7.606/lib/ble_core/Release/libblelib.a(l2cc_task.o)
 .comment       0x0000004d       0x4e C:/Users/xeeen/ON_Semiconductor/PACK/ONSemiconductor/RSL10/3.7.606/lib/ble_core/Release/libblelib.a(gattm.o)
 .comment       0x0000004d       0x4e C:/Users/xeeen/ON_Semiconductor/PACK/ONSemiconductor/RSL10/3.7.606/lib/ble_core/Release/libblelib.a(gattm_task.o)
 .comment       0x0000004d       0x4e C:/Users/xeeen/ON_Semiconductor/PACK/ONSemiconductor/RSL10/3.7.606/lib/ble_core/Release/libblelib.a(gattc.o)
 .comment       0x0000004d       0x4e C:/Users/xeeen/ON_Semiconductor/PACK/ONSemiconductor/RSL10/3.7.606/lib/ble_core/Release/libblelib.a(gattc_task.o)
 .comment       0x0000004d       0x4e C:/Users/xeeen/ON_Semiconductor/PACK/ONSemiconductor/RSL10/3.7.606/lib/ble_core/Release/libblelib.a(atts.o)
 .comment       0x0000004d       0x4e C:/Users/xeeen/ON_Semiconductor/PACK/ONSemiconductor/RSL10/3.7.606/lib/ble_core/Release/libblelib.a(attm.o)
 .comment       0x0000004d       0x4e C:/Users/xeeen/ON_Semiconductor/PACK/ONSemiconductor/RSL10/3.7.606/lib/ble_core/Release/libblelib.a(attm_db.o)
 .comment       0x0000004d       0x4e C:/Users/xeeen/ON_Semiconductor/PACK/ONSemiconductor/RSL10/3.7.606/lib/ble_core/Release/libblelib.a(attc.o)
 .comment       0x0000004d       0x4e C:/Users/xeeen/ON_Semiconductor/PACK/ONSemiconductor/RSL10/3.7.606/lib/ble_core/Release/libblelib.a(gapm.o)
 .comment       0x0000004d       0x4e C:/Users/xeeen/ON_Semiconductor/PACK/ONSemiconductor/RSL10/3.7.606/lib/ble_core/Release/libblelib.a(gapm_task.o)
 .comment       0x0000004d       0x4e C:/Users/xeeen/ON_Semiconductor/PACK/ONSemiconductor/RSL10/3.7.606/lib/ble_core/Release/libblelib.a(gapm_util.o)
 .comment       0x0000004d       0x4e C:/Users/xeeen/ON_Semiconductor/PACK/ONSemiconductor/RSL10/3.7.606/lib/ble_core/Release/libblelib.a(gapc.o)
 .comment       0x0000004d       0x4e C:/Users/xeeen/ON_Semiconductor/PACK/ONSemiconductor/RSL10/3.7.606/lib/ble_core/Release/libblelib.a(gapc_task.o)
 .comment       0x0000004d       0x4e C:/Users/xeeen/ON_Semiconductor/PACK/ONSemiconductor/RSL10/3.7.606/lib/ble_core/Release/libblelib.a(llm_hci.o)
 .comment       0x0000004d       0x4e C:/Users/xeeen/ON_Semiconductor/PACK/ONSemiconductor/RSL10/3.7.606/lib/ble_core/Release/libblelib.a(llc_ch_asses.o)
 .comment       0x0000004d       0x4e C:/Users/xeeen/ON_Semiconductor/PACK/ONSemiconductor/RSL10/3.7.606/lib/ble_core/Release/libblelib.a(llc_hci.o)
 .comment       0x0000004d       0x4e C:/Users/xeeen/ON_Semiconductor/PACK/ONSemiconductor/RSL10/3.7.606/lib/ble_core/Release/libblelib.a(l2cc_sig.o)
 .comment       0x0000004d       0x4e C:/Users/xeeen/ON_Semiconductor/PACK/ONSemiconductor/RSL10/3.7.606/lib/ble_core/Release/libblelib.a(smpm_api.o)
 .comment       0x0000004d       0x4e C:/Users/xeeen/ON_Semiconductor/PACK/ONSemiconductor/RSL10/3.7.606/lib/ble_core/Release/libblelib.a(smpc.o)
 .comment       0x0000004d       0x4e C:/Users/xeeen/ON_Semiconductor/PACK/ONSemiconductor/RSL10/3.7.606/lib/ble_core/Release/libblelib.a(smpc_api.o)
 .comment       0x0000004d       0x4e C:/Users/xeeen/ON_Semiconductor/PACK/ONSemiconductor/RSL10/3.7.606/lib/ble_core/Release/libblelib.a(smpc_crypto.o)
 .comment       0x0000004d       0x4e C:/Users/xeeen/ON_Semiconductor/PACK/ONSemiconductor/RSL10/3.7.606/lib/ble_core/Release/libblelib.a(smpc_util.o)
 .comment       0x0000004d       0x4e C:/Users/xeeen/ON_Semiconductor/PACK/ONSemiconductor/RSL10/3.7.606/lib/ble_core/Release/libblelib.a(gapm_hci.o)
 .comment       0x0000004d       0x4e C:/Users/xeeen/ON_Semiconductor/PACK/ONSemiconductor/RSL10/3.7.606/lib/ble_core/Release/libblelib.a(gapc_hci.o)
 .comment       0x0000004d       0x4e C:/Users/xeeen/ON_Semiconductor/PACK/ONSemiconductor/RSL10/3.7.606/lib/ble_core/Release/libblelib.a(gapc_sig.o)
 .comment       0x0000004d       0x4e C:/Users/xeeen/ON_Semiconductor/PACK/ONSemiconductor/RSL10/3.7.606/lib/ble_core/Release/libkelib.a(rst_grosstime.o)
 .comment       0x0000004d       0x4e C:/Users/xeeen/ON_Semiconductor/PACK/ONSemiconductor/RSL10/3.7.606/lib/ble_core/Release/libkelib.a(rwip2.o)
 .comment       0x0000004d       0x4e C:/Users/xeeen/ON_Semiconductor/PACK/ONSemiconductor/RSL10/3.7.606/lib/ble_core/Release/libkelib.a(ke.o)
 .comment       0x0000004d       0x4e C:/Users/xeeen/ON_Semiconductor/PACK/ONSemiconductor/RSL10/3.7.606/lib/ble_core/Release/libkelib.a(ke_event.o)
 .comment       0x0000004d       0x4e C:/Users/xeeen/ON_Semiconductor/PACK/ONSemiconductor/RSL10/3.7.606/lib/ble_core/Release/libkelib.a(ke_mem.o)
 .comment       0x0000004d       0x4e C:/Users/xeeen/ON_Semiconductor/PACK/ONSemiconductor/RSL10/3.7.606/lib/ble_core/Release/libkelib.a(ke_msg.o)
 .comment       0x0000004d       0x4e C:/Users/xeeen/ON_Semiconductor/PACK/ONSemiconductor/RSL10/3.7.606/lib/ble_core/Release/libkelib.a(ke_task.o)
 .comment       0x0000004d       0x4e C:/Users/xeeen/ON_Semiconductor/PACK/ONSemiconductor/RSL10/3.7.606/lib/ble_core/Release/libkelib.a(ke_timer.o)
 .comment       0x0000004d       0x4e C:/Users/xeeen/ON_Semiconductor/PACK/ONSemiconductor/RSL10/3.7.606/lib/ble_core/Release/libkelib.a(co_list.o)
 .comment       0x0000004d       0x4e C:/Users/xeeen/ON_Semiconductor/PACK/ONSemiconductor/RSL10/3.7.606/lib/ble_core/Release/libkelib.a(co_utils.o)
 .comment       0x0000004d       0x4e C:/Users/xeeen/ON_Semiconductor/PACK/ONSemiconductor/RSL10/3.7.606/lib/ble_core/Release/libkelib.a(ke_queue.o)
 .comment       0x0000004d       0x4e C:/Users/xeeen/ON_Semiconductor/PACK/ONSemiconductor/RSL10/3.7.606/lib/ble_profiles/Release/libbasc.a(basc.o)
 .comment       0x0000004d       0x4e C:/Users/xeeen/ON_Semiconductor/PACK/ONSemiconductor/RSL10/3.7.606/lib/ble_profiles/Release/libbasc.a(basc_task.o)

.ARM.attributes
                0x00000000       0x2b
 .ARM.attributes
                0x00000000       0x2d ./code/app_bass.o
 .ARM.attributes
                0x0000002d       0x2d ./code/app_init.o
 .ARM.attributes
                0x0000005a       0x2d ./code/app_process.o
 .ARM.attributes
                0x00000087       0x2d ./code/ble_basc.o
 .ARM.attributes
                0x000000b4       0x2d ./code/ble_custom.o
 .ARM.attributes
                0x000000e1       0x2d ./code/ble_std.o
 .ARM.attributes
                0x0000010e       0x2d ./code/uart.o
 .ARM.attributes
                0x0000013b       0x2d ./code/ui_handler.o
 .ARM.attributes
                0x00000168       0x2d ./RTE/Utility/SEGGER_RTT.o
 .ARM.attributes
                0x00000195       0x2d ./RTE/Utility/SEGGER_RTT_printf.o
 .ARM.attributes
                0x000001c2       0x2d ./RTE/Utility/printf.o
 .ARM.attributes
                0x000001ef       0x2d ./RTE/Device/RSL10/rsl10_protocol.o
 .ARM.attributes
                0x0000021c       0x2d ./RTE/Device/RSL10/rsl10_sys_dma.o
 .ARM.attributes
                0x00000249       0x2d ./RTE/Device/RSL10/rsl10_sys_power.o
 .ARM.attributes
                0x00000276       0x2d ./RTE/Device/RSL10/rsl10_sys_rffe.o
 .ARM.attributes
                0x000002a3       0x2d ./RTE/Device/RSL10/rsl10_sys_uart.o
 .ARM.attributes
                0x000002d0       0x2d ./RTE/Device/RSL10/sbrk.o
 .ARM.attributes
                0x000002fd       0x2d ./RTE/Device/RSL10/start.o
 .ARM.attributes
                0x0000032a       0x1b ./RTE/Device/RSL10/startup_rsl10.o
 .ARM.attributes
                0x00000345       0x2d ./RTE/Device/RSL10/system_rsl10.o
 .ARM.attributes
                0x00000372       0x2d ./RTE/Device/stubprf.o
 .ARM.attributes
                0x0000039f       0x2d ./app.o
 .ARM.attributes
                0x000003cc       0x2d C:/Users/xeeen/ON_Semiconductor/PACK/ONSemiconductor/RSL10/3.7.606/lib/ble_core/Release/libblelib.a(prf-prf_utils.o)
 .ARM.attributes
                0x000003f9       0x2d C:/Users/xeeen/ON_Semiconductor/PACK/ONSemiconductor/RSL10/3.7.606/lib/ble_core/Release/libblelib.a(rwip.o)
 .ARM.attributes
                0x00000426       0x2d C:/Users/xeeen/ON_Semiconductor/PACK/ONSemiconductor/RSL10/3.7.606/lib/ble_core/Release/libblelib.a(rf_atlas.o)
 .ARM.attributes
                0x00000453       0x2d C:/Users/xeeen/ON_Semiconductor/PACK/ONSemiconductor/RSL10/3.7.606/lib/ble_core/Release/libblelib.a(ecc_p256.o)
 .ARM.attributes
                0x00000480       0x2d C:/Users/xeeen/ON_Semiconductor/PACK/ONSemiconductor/RSL10/3.7.606/lib/ble_core/Release/libblelib.a(hci.o)
 .ARM.attributes
                0x000004ad       0x2d C:/Users/xeeen/ON_Semiconductor/PACK/ONSemiconductor/RSL10/3.7.606/lib/ble_core/Release/libblelib.a(hci_fc.o)
 .ARM.attributes
                0x000004da       0x2d C:/Users/xeeen/ON_Semiconductor/PACK/ONSemiconductor/RSL10/3.7.606/lib/ble_core/Release/libblelib.a(hci_msg.o)
 .ARM.attributes
                0x00000507       0x2d C:/Users/xeeen/ON_Semiconductor/PACK/ONSemiconductor/RSL10/3.7.606/lib/ble_core/Release/libblelib.a(ea.o)
 .ARM.attributes
                0x00000534       0x2d C:/Users/xeeen/ON_Semiconductor/PACK/ONSemiconductor/RSL10/3.7.606/lib/ble_core/Release/libblelib.a(rwble.o)
 .ARM.attributes
                0x00000561       0x2d C:/Users/xeeen/ON_Semiconductor/PACK/ONSemiconductor/RSL10/3.7.606/lib/ble_core/Release/libblelib.a(llm.o)
 .ARM.attributes
                0x0000058e       0x2d C:/Users/xeeen/ON_Semiconductor/PACK/ONSemiconductor/RSL10/3.7.606/lib/ble_core/Release/libblelib.a(llm_task.o)
 .ARM.attributes
                0x000005bb       0x2d C:/Users/xeeen/ON_Semiconductor/PACK/ONSemiconductor/RSL10/3.7.606/lib/ble_core/Release/libblelib.a(llm_util.o)
 .ARM.attributes
                0x000005e8       0x2d C:/Users/xeeen/ON_Semiconductor/PACK/ONSemiconductor/RSL10/3.7.606/lib/ble_core/Release/libblelib.a(lld.o)
 .ARM.attributes
                0x00000615       0x2d C:/Users/xeeen/ON_Semiconductor/PACK/ONSemiconductor/RSL10/3.7.606/lib/ble_core/Release/libblelib.a(lld_evt.o)
 .ARM.attributes
                0x00000642       0x2d C:/Users/xeeen/ON_Semiconductor/PACK/ONSemiconductor/RSL10/3.7.606/lib/ble_core/Release/libblelib.a(lld_pdu.o)
 .ARM.attributes
                0x0000066f       0x2d C:/Users/xeeen/ON_Semiconductor/PACK/ONSemiconductor/RSL10/3.7.606/lib/ble_core/Release/libblelib.a(lld_sleep.o)
 .ARM.attributes
                0x0000069c       0x2d C:/Users/xeeen/ON_Semiconductor/PACK/ONSemiconductor/RSL10/3.7.606/lib/ble_core/Release/libblelib.a(lld_util.o)
 .ARM.attributes
                0x000006c9       0x2d C:/Users/xeeen/ON_Semiconductor/PACK/ONSemiconductor/RSL10/3.7.606/lib/ble_core/Release/libblelib.a(lld_wlcoex.o)
 .ARM.attributes
                0x000006f6       0x2d C:/Users/xeeen/ON_Semiconductor/PACK/ONSemiconductor/RSL10/3.7.606/lib/ble_core/Release/libblelib.a(llc.o)
 .ARM.attributes
                0x00000723       0x2d C:/Users/xeeen/ON_Semiconductor/PACK/ONSemiconductor/RSL10/3.7.606/lib/ble_core/Release/libblelib.a(llc_llcp.o)
 .ARM.attributes
                0x00000750       0x2d C:/Users/xeeen/ON_Semiconductor/PACK/ONSemiconductor/RSL10/3.7.606/lib/ble_core/Release/libblelib.a(llc_task.o)
 .ARM.attributes
                0x0000077d       0x2d C:/Users/xeeen/ON_Semiconductor/PACK/ONSemiconductor/RSL10/3.7.606/lib/ble_core/Release/libblelib.a(llc_util.o)
 .ARM.attributes
                0x000007aa       0x2d C:/Users/xeeen/ON_Semiconductor/PACK/ONSemiconductor/RSL10/3.7.606/lib/ble_core/Release/libblelib.a(em_buf.o)
 .ARM.attributes
                0x000007d7       0x2d C:/Users/xeeen/ON_Semiconductor/PACK/ONSemiconductor/RSL10/3.7.606/lib/ble_core/Release/libblelib.a(rwble_hl.o)
 .ARM.attributes
                0x00000804       0x2d C:/Users/xeeen/ON_Semiconductor/PACK/ONSemiconductor/RSL10/3.7.606/lib/ble_core/Release/libblelib.a(l2cm.o)
 .ARM.attributes
                0x00000831       0x2d C:/Users/xeeen/ON_Semiconductor/PACK/ONSemiconductor/RSL10/3.7.606/lib/ble_core/Release/libblelib.a(l2cc.o)
 .ARM.attributes
                0x0000085e       0x2d C:/Users/xeeen/ON_Semiconductor/PACK/ONSemiconductor/RSL10/3.7.606/lib/ble_core/Release/libblelib.a(l2cc_lecb.o)
 .ARM.attributes
                0x0000088b       0x2d C:/Users/xeeen/ON_Semiconductor/PACK/ONSemiconductor/RSL10/3.7.606/lib/ble_core/Release/libblelib.a(l2cc_pdu.o)
 .ARM.attributes
                0x000008b8       0x2d C:/Users/xeeen/ON_Semiconductor/PACK/ONSemiconductor/RSL10/3.7.606/lib/ble_core/Release/libblelib.a(l2cc_task.o)
 .ARM.attributes
                0x000008e5       0x2d C:/Users/xeeen/ON_Semiconductor/PACK/ONSemiconductor/RSL10/3.7.606/lib/ble_core/Release/libblelib.a(gattm.o)
 .ARM.attributes
                0x00000912       0x2d C:/Users/xeeen/ON_Semiconductor/PACK/ONSemiconductor/RSL10/3.7.606/lib/ble_core/Release/libblelib.a(gattm_task.o)
 .ARM.attributes
                0x0000093f       0x2d C:/Users/xeeen/ON_Semiconductor/PACK/ONSemiconductor/RSL10/3.7.606/lib/ble_core/Release/libblelib.a(gattc.o)
 .ARM.attributes
                0x0000096c       0x2d C:/Users/xeeen/ON_Semiconductor/PACK/ONSemiconductor/RSL10/3.7.606/lib/ble_core/Release/libblelib.a(gattc_task.o)
 .ARM.attributes
                0x00000999       0x2d C:/Users/xeeen/ON_Semiconductor/PACK/ONSemiconductor/RSL10/3.7.606/lib/ble_core/Release/libblelib.a(atts.o)
 .ARM.attributes
                0x000009c6       0x2d C:/Users/xeeen/ON_Semiconductor/PACK/ONSemiconductor/RSL10/3.7.606/lib/ble_core/Release/libblelib.a(attm.o)
 .ARM.attributes
                0x000009f3       0x2d C:/Users/xeeen/ON_Semiconductor/PACK/ONSemiconductor/RSL10/3.7.606/lib/ble_core/Release/libblelib.a(attm_db.o)
 .ARM.attributes
                0x00000a20       0x2d C:/Users/xeeen/ON_Semiconductor/PACK/ONSemiconductor/RSL10/3.7.606/lib/ble_core/Release/libblelib.a(attc.o)
 .ARM.attributes
                0x00000a4d       0x2d C:/Users/xeeen/ON_Semiconductor/PACK/ONSemiconductor/RSL10/3.7.606/lib/ble_core/Release/libblelib.a(gapm.o)
 .ARM.attributes
                0x00000a7a       0x2d C:/Users/xeeen/ON_Semiconductor/PACK/ONSemiconductor/RSL10/3.7.606/lib/ble_core/Release/libblelib.a(gapm_task.o)
 .ARM.attributes
                0x00000aa7       0x2d C:/Users/xeeen/ON_Semiconductor/PACK/ONSemiconductor/RSL10/3.7.606/lib/ble_core/Release/libblelib.a(gapm_util.o)
 .ARM.attributes
                0x00000ad4       0x2d C:/Users/xeeen/ON_Semiconductor/PACK/ONSemiconductor/RSL10/3.7.606/lib/ble_core/Release/libblelib.a(gapc.o)
 .ARM.attributes
                0x00000b01       0x2d C:/Users/xeeen/ON_Semiconductor/PACK/ONSemiconductor/RSL10/3.7.606/lib/ble_core/Release/libblelib.a(gapc_task.o)
 .ARM.attributes
                0x00000b2e       0x2d C:/Users/xeeen/ON_Semiconductor/PACK/ONSemiconductor/RSL10/3.7.606/lib/ble_core/Release/libblelib.a(llm_hci.o)
 .ARM.attributes
                0x00000b5b       0x2d C:/Users/xeeen/ON_Semiconductor/PACK/ONSemiconductor/RSL10/3.7.606/lib/ble_core/Release/libblelib.a(llc_ch_asses.o)
 .ARM.attributes
                0x00000b88       0x2d C:/Users/xeeen/ON_Semiconductor/PACK/ONSemiconductor/RSL10/3.7.606/lib/ble_core/Release/libblelib.a(llc_hci.o)
 .ARM.attributes
                0x00000bb5       0x2d C:/Users/xeeen/ON_Semiconductor/PACK/ONSemiconductor/RSL10/3.7.606/lib/ble_core/Release/libblelib.a(l2cc_sig.o)
 .ARM.attributes
                0x00000be2       0x2d C:/Users/xeeen/ON_Semiconductor/PACK/ONSemiconductor/RSL10/3.7.606/lib/ble_core/Release/libblelib.a(smpm_api.o)
 .ARM.attributes
                0x00000c0f       0x2d C:/Users/xeeen/ON_Semiconductor/PACK/ONSemiconductor/RSL10/3.7.606/lib/ble_core/Release/libblelib.a(smpc.o)
 .ARM.attributes
                0x00000c3c       0x2d C:/Users/xeeen/ON_Semiconductor/PACK/ONSemiconductor/RSL10/3.7.606/lib/ble_core/Release/libblelib.a(smpc_api.o)
 .ARM.attributes
                0x00000c69       0x2d C:/Users/xeeen/ON_Semiconductor/PACK/ONSemiconductor/RSL10/3.7.606/lib/ble_core/Release/libblelib.a(smpc_crypto.o)
 .ARM.attributes
                0x00000c96       0x2d C:/Users/xeeen/ON_Semiconductor/PACK/ONSemiconductor/RSL10/3.7.606/lib/ble_core/Release/libblelib.a(smpc_util.o)
 .ARM.attributes
                0x00000cc3       0x2d C:/Users/xeeen/ON_Semiconductor/PACK/ONSemiconductor/RSL10/3.7.606/lib/ble_core/Release/libblelib.a(gapm_hci.o)
 .ARM.attributes
                0x00000cf0       0x2d C:/Users/xeeen/ON_Semiconductor/PACK/ONSemiconductor/RSL10/3.7.606/lib/ble_core/Release/libblelib.a(gapc_hci.o)
 .ARM.attributes
                0x00000d1d       0x2d C:/Users/xeeen/ON_Semiconductor/PACK/ONSemiconductor/RSL10/3.7.606/lib/ble_core/Release/libblelib.a(gapc_sig.o)
 .ARM.attributes
                0x00000d4a       0x2d C:/Users/xeeen/ON_Semiconductor/PACK/ONSemiconductor/RSL10/3.7.606/lib/ble_core/Release/libkelib.a(rst_grosstime.o)
 .ARM.attributes
                0x00000d77       0x2d C:/Users/xeeen/ON_Semiconductor/PACK/ONSemiconductor/RSL10/3.7.606/lib/ble_core/Release/libkelib.a(rwip2.o)
 .ARM.attributes
                0x00000da4       0x2d C:/Users/xeeen/ON_Semiconductor/PACK/ONSemiconductor/RSL10/3.7.606/lib/ble_core/Release/libkelib.a(ke.o)
 .ARM.attributes
                0x00000dd1       0x2d C:/Users/xeeen/ON_Semiconductor/PACK/ONSemiconductor/RSL10/3.7.606/lib/ble_core/Release/libkelib.a(ke_event.o)
 .ARM.attributes
                0x00000dfe       0x2d C:/Users/xeeen/ON_Semiconductor/PACK/ONSemiconductor/RSL10/3.7.606/lib/ble_core/Release/libkelib.a(ke_mem.o)
 .ARM.attributes
                0x00000e2b       0x2d C:/Users/xeeen/ON_Semiconductor/PACK/ONSemiconductor/RSL10/3.7.606/lib/ble_core/Release/libkelib.a(ke_msg.o)
 .ARM.attributes
                0x00000e58       0x2d C:/Users/xeeen/ON_Semiconductor/PACK/ONSemiconductor/RSL10/3.7.606/lib/ble_core/Release/libkelib.a(ke_task.o)
 .ARM.attributes
                0x00000e85       0x2d C:/Users/xeeen/ON_Semiconductor/PACK/ONSemiconductor/RSL10/3.7.606/lib/ble_core/Release/libkelib.a(ke_timer.o)
 .ARM.attributes
                0x00000eb2       0x2d C:/Users/xeeen/ON_Semiconductor/PACK/ONSemiconductor/RSL10/3.7.606/lib/ble_core/Release/libkelib.a(co_list.o)
 .ARM.attributes
                0x00000edf       0x2d C:/Users/xeeen/ON_Semiconductor/PACK/ONSemiconductor/RSL10/3.7.606/lib/ble_core/Release/libkelib.a(co_utils.o)
 .ARM.attributes
                0x00000f0c       0x2d C:/Users/xeeen/ON_Semiconductor/PACK/ONSemiconductor/RSL10/3.7.606/lib/ble_core/Release/libkelib.a(ke_queue.o)
 .ARM.attributes
                0x00000f39       0x2d C:/Users/xeeen/ON_Semiconductor/PACK/ONSemiconductor/RSL10/3.7.606/lib/ble_profiles/Release/libbasc.a(basc.o)
 .ARM.attributes
                0x00000f66       0x2d C:/Users/xeeen/ON_Semiconductor/PACK/ONSemiconductor/RSL10/3.7.606/lib/ble_profiles/Release/libbasc.a(basc_task.o)
 .ARM.attributes
                0x00000f93       0x2d c:/program files (x86)/on semiconductor/ide_v3.4.0.48/arm_tools/bin/../lib/gcc/arm-none-eabi/10.2.1/../../../../arm-none-eabi/lib/thumb/v7-m/nofp\libm.a(lib_a-s_round.o)
 .ARM.attributes
                0x00000fc0       0x1d c:/program files (x86)/on semiconductor/ide_v3.4.0.48/arm_tools/bin/../lib/gcc/arm-none-eabi/10.2.1/thumb/v7-m/nofp\libgcc.a(_arm_addsubdf3.o)
 .ARM.attributes
                0x00000fdd       0x1d c:/program files (x86)/on semiconductor/ide_v3.4.0.48/arm_tools/bin/../lib/gcc/arm-none-eabi/10.2.1/thumb/v7-m/nofp\libgcc.a(_arm_muldivdf3.o)
 .ARM.attributes
                0x00000ffa       0x1d c:/program files (x86)/on semiconductor/ide_v3.4.0.48/arm_tools/bin/../lib/gcc/arm-none-eabi/10.2.1/thumb/v7-m/nofp\libgcc.a(_arm_fixdfsi.o)
 .ARM.attributes
                0x00001017       0x1d c:/program files (x86)/on semiconductor/ide_v3.4.0.48/arm_tools/bin/../lib/gcc/arm-none-eabi/10.2.1/thumb/v7-m/nofp\libgcc.a(_arm_fixunsdfsi.o)
 .ARM.attributes
                0x00001034       0x1d c:/program files (x86)/on semiconductor/ide_v3.4.0.48/arm_tools/bin/../lib/gcc/arm-none-eabi/10.2.1/thumb/v7-m/nofp\libgcc.a(_arm_truncdfsf2.o)
 .ARM.attributes
                0x00001051       0x1d c:/program files (x86)/on semiconductor/ide_v3.4.0.48/arm_tools/bin/../lib/gcc/arm-none-eabi/10.2.1/thumb/v7-m/nofp\libgcc.a(_arm_fixsfsi.o)
 .ARM.attributes
                0x0000106e       0x2d c:/program files (x86)/on semiconductor/ide_v3.4.0.48/arm_tools/bin/../lib/gcc/arm-none-eabi/10.2.1/../../../../arm-none-eabi/lib/thumb/v7-m/nofp\libg_nano.a(lib_a-errno.o)
 .ARM.attributes
                0x0000109b       0x2d c:/program files (x86)/on semiconductor/ide_v3.4.0.48/arm_tools/bin/../lib/gcc/arm-none-eabi/10.2.1/../../../../arm-none-eabi/lib/thumb/v7-m/nofp\libg_nano.a(lib_a-impure.o)
 .ARM.attributes
                0x000010c8       0x2d c:/program files (x86)/on semiconductor/ide_v3.4.0.48/arm_tools/bin/../lib/gcc/arm-none-eabi/10.2.1/../../../../arm-none-eabi/lib/thumb/v7-m/nofp\libg_nano.a(lib_a-malloc.o)
 .ARM.attributes
                0x000010f5       0x2d c:/program files (x86)/on semiconductor/ide_v3.4.0.48/arm_tools/bin/../lib/gcc/arm-none-eabi/10.2.1/../../../../arm-none-eabi/lib/thumb/v7-m/nofp\libg_nano.a(lib_a-memcmp.o)
 .ARM.attributes
                0x00001122       0x2d c:/program files (x86)/on semiconductor/ide_v3.4.0.48/arm_tools/bin/../lib/gcc/arm-none-eabi/10.2.1/../../../../arm-none-eabi/lib/thumb/v7-m/nofp\libg_nano.a(lib_a-memcpy-stub.o)
 .ARM.attributes
                0x0000114f       0x2d c:/program files (x86)/on semiconductor/ide_v3.4.0.48/arm_tools/bin/../lib/gcc/arm-none-eabi/10.2.1/../../../../arm-none-eabi/lib/thumb/v7-m/nofp\libg_nano.a(lib_a-memset.o)
 .ARM.attributes
                0x0000117c       0x2d c:/program files (x86)/on semiconductor/ide_v3.4.0.48/arm_tools/bin/../lib/gcc/arm-none-eabi/10.2.1/../../../../arm-none-eabi/lib/thumb/v7-m/nofp\libg_nano.a(lib_a-nano-freer.o)
 .ARM.attributes
                0x000011a9       0x2d c:/program files (x86)/on semiconductor/ide_v3.4.0.48/arm_tools/bin/../lib/gcc/arm-none-eabi/10.2.1/../../../../arm-none-eabi/lib/thumb/v7-m/nofp\libg_nano.a(lib_a-nano-mallocr.o)
 .ARM.attributes
                0x000011d6       0x2d c:/program files (x86)/on semiconductor/ide_v3.4.0.48/arm_tools/bin/../lib/gcc/arm-none-eabi/10.2.1/../../../../arm-none-eabi/lib/thumb/v7-m/nofp\libg_nano.a(lib_a-rand.o)
 .ARM.attributes
                0x00001203       0x2d c:/program files (x86)/on semiconductor/ide_v3.4.0.48/arm_tools/bin/../lib/gcc/arm-none-eabi/10.2.1/../../../../arm-none-eabi/lib/thumb/v7-m/nofp\libg_nano.a(lib_a-sbrkr.o)
 .ARM.attributes
                0x00001230       0x2d c:/program files (x86)/on semiconductor/ide_v3.4.0.48/arm_tools/bin/../lib/gcc/arm-none-eabi/10.2.1/../../../../arm-none-eabi/lib/thumb/v7-m/nofp\libg_nano.a(lib_a-assert.o)
 .ARM.attributes
                0x0000125d       0x2d c:/program files (x86)/on semiconductor/ide_v3.4.0.48/arm_tools/bin/../lib/gcc/arm-none-eabi/10.2.1/../../../../arm-none-eabi/lib/thumb/v7-m/nofp\libg_nano.a(lib_a-fprintf.o)
 .ARM.attributes
                0x0000128a       0x2d c:/program files (x86)/on semiconductor/ide_v3.4.0.48/arm_tools/bin/../lib/gcc/arm-none-eabi/10.2.1/../../../../arm-none-eabi/lib/thumb/v7-m/nofp\libg_nano.a(lib_a-mlock.o)
 .ARM.attributes
                0x000012b7       0x2d c:/program files (x86)/on semiconductor/ide_v3.4.0.48/arm_tools/bin/../lib/gcc/arm-none-eabi/10.2.1/../../../../arm-none-eabi/lib/thumb/v7-m/nofp\libg_nano.a(lib_a-nano-vfprintf.o)
 .ARM.attributes
                0x000012e4       0x2d c:/program files (x86)/on semiconductor/ide_v3.4.0.48/arm_tools/bin/../lib/gcc/arm-none-eabi/10.2.1/../../../../arm-none-eabi/lib/thumb/v7-m/nofp\libg_nano.a(lib_a-nano-vfprintf_i.o)
 .ARM.attributes
                0x00001311       0x2d c:/program files (x86)/on semiconductor/ide_v3.4.0.48/arm_tools/bin/../lib/gcc/arm-none-eabi/10.2.1/../../../../arm-none-eabi/lib/thumb/v7-m/nofp\libg_nano.a(lib_a-reent.o)
 .ARM.attributes
                0x0000133e       0x2d c:/program files (x86)/on semiconductor/ide_v3.4.0.48/arm_tools/bin/../lib/gcc/arm-none-eabi/10.2.1/../../../../arm-none-eabi/lib/thumb/v7-m/nofp\libg_nano.a(lib_a-wbuf.o)
 .ARM.attributes
                0x0000136b       0x2d c:/program files (x86)/on semiconductor/ide_v3.4.0.48/arm_tools/bin/../lib/gcc/arm-none-eabi/10.2.1/../../../../arm-none-eabi/lib/thumb/v7-m/nofp\libg_nano.a(lib_a-wsetup.o)
 .ARM.attributes
                0x00001398       0x2d c:/program files (x86)/on semiconductor/ide_v3.4.0.48/arm_tools/bin/../lib/gcc/arm-none-eabi/10.2.1/../../../../arm-none-eabi/lib/thumb/v7-m/nofp\libg_nano.a(lib_a-abort.o)
 .ARM.attributes
                0x000013c5       0x2d c:/program files (x86)/on semiconductor/ide_v3.4.0.48/arm_tools/bin/../lib/gcc/arm-none-eabi/10.2.1/../../../../arm-none-eabi/lib/thumb/v7-m/nofp\libg_nano.a(lib_a-fflush.o)
 .ARM.attributes
                0x000013f2       0x2d c:/program files (x86)/on semiconductor/ide_v3.4.0.48/arm_tools/bin/../lib/gcc/arm-none-eabi/10.2.1/../../../../arm-none-eabi/lib/thumb/v7-m/nofp\libg_nano.a(lib_a-findfp.o)
 .ARM.attributes
                0x0000141f       0x2d c:/program files (x86)/on semiconductor/ide_v3.4.0.48/arm_tools/bin/../lib/gcc/arm-none-eabi/10.2.1/../../../../arm-none-eabi/lib/thumb/v7-m/nofp\libg_nano.a(lib_a-fwalk.o)
 .ARM.attributes
                0x0000144c       0x2d c:/program files (x86)/on semiconductor/ide_v3.4.0.48/arm_tools/bin/../lib/gcc/arm-none-eabi/10.2.1/../../../../arm-none-eabi/lib/thumb/v7-m/nofp\libg_nano.a(lib_a-lock.o)
 .ARM.attributes
                0x00001479       0x2d c:/program files (x86)/on semiconductor/ide_v3.4.0.48/arm_tools/bin/../lib/gcc/arm-none-eabi/10.2.1/../../../../arm-none-eabi/lib/thumb/v7-m/nofp\libg_nano.a(lib_a-makebuf.o)
 .ARM.attributes
                0x000014a6       0x2d c:/program files (x86)/on semiconductor/ide_v3.4.0.48/arm_tools/bin/../lib/gcc/arm-none-eabi/10.2.1/../../../../arm-none-eabi/lib/thumb/v7-m/nofp\libg_nano.a(lib_a-memchr-stub.o)
 .ARM.attributes
                0x000014d3       0x2d c:/program files (x86)/on semiconductor/ide_v3.4.0.48/arm_tools/bin/../lib/gcc/arm-none-eabi/10.2.1/../../../../arm-none-eabi/lib/thumb/v7-m/nofp\libg_nano.a(lib_a-signal.o)
 .ARM.attributes
                0x00001500       0x2d c:/program files (x86)/on semiconductor/ide_v3.4.0.48/arm_tools/bin/../lib/gcc/arm-none-eabi/10.2.1/../../../../arm-none-eabi/lib/thumb/v7-m/nofp\libg_nano.a(lib_a-signalr.o)
 .ARM.attributes
                0x0000152d       0x2d c:/program files (x86)/on semiconductor/ide_v3.4.0.48/arm_tools/bin/../lib/gcc/arm-none-eabi/10.2.1/../../../../arm-none-eabi/lib/thumb/v7-m/nofp\libg_nano.a(lib_a-stdio.o)
 .ARM.attributes
                0x0000155a       0x2d c:/program files (x86)/on semiconductor/ide_v3.4.0.48/arm_tools/bin/../lib/gcc/arm-none-eabi/10.2.1/../../../../arm-none-eabi/lib/thumb/v7-m/nofp\libg_nano.a(lib_a-writer.o)
 .ARM.attributes
                0x00001587       0x2d c:/program files (x86)/on semiconductor/ide_v3.4.0.48/arm_tools/bin/../lib/gcc/arm-none-eabi/10.2.1/../../../../arm-none-eabi/lib/thumb/v7-m/nofp\libg_nano.a(lib_a-closer.o)
 .ARM.attributes
                0x000015b4       0x2d c:/program files (x86)/on semiconductor/ide_v3.4.0.48/arm_tools/bin/../lib/gcc/arm-none-eabi/10.2.1/../../../../arm-none-eabi/lib/thumb/v7-m/nofp\libg_nano.a(lib_a-fstatr.o)
 .ARM.attributes
                0x000015e1       0x2d c:/program files (x86)/on semiconductor/ide_v3.4.0.48/arm_tools/bin/../lib/gcc/arm-none-eabi/10.2.1/../../../../arm-none-eabi/lib/thumb/v7-m/nofp\libg_nano.a(lib_a-isattyr.o)
 .ARM.attributes
                0x0000160e       0x2d c:/program files (x86)/on semiconductor/ide_v3.4.0.48/arm_tools/bin/../lib/gcc/arm-none-eabi/10.2.1/../../../../arm-none-eabi/lib/thumb/v7-m/nofp\libg_nano.a(lib_a-lseekr.o)
 .ARM.attributes
                0x0000163b       0x2d c:/program files (x86)/on semiconductor/ide_v3.4.0.48/arm_tools/bin/../lib/gcc/arm-none-eabi/10.2.1/../../../../arm-none-eabi/lib/thumb/v7-m/nofp\libg_nano.a(lib_a-readr.o)
 .ARM.attributes
                0x00001668       0x2d c:/program files (x86)/on semiconductor/ide_v3.4.0.48/arm_tools/bin/../lib/gcc/arm-none-eabi/10.2.1/../../../../arm-none-eabi/lib/thumb/v7-m/nofp\libnosys.a(close.o)
 .ARM.attributes
                0x00001695       0x2d c:/program files (x86)/on semiconductor/ide_v3.4.0.48/arm_tools/bin/../lib/gcc/arm-none-eabi/10.2.1/../../../../arm-none-eabi/lib/thumb/v7-m/nofp\libnosys.a(fstat.o)
 .ARM.attributes
                0x000016c2       0x2d c:/program files (x86)/on semiconductor/ide_v3.4.0.48/arm_tools/bin/../lib/gcc/arm-none-eabi/10.2.1/../../../../arm-none-eabi/lib/thumb/v7-m/nofp\libnosys.a(getpid.o)
 .ARM.attributes
                0x000016ef       0x2d c:/program files (x86)/on semiconductor/ide_v3.4.0.48/arm_tools/bin/../lib/gcc/arm-none-eabi/10.2.1/../../../../arm-none-eabi/lib/thumb/v7-m/nofp\libnosys.a(isatty.o)
 .ARM.attributes
                0x0000171c       0x2d c:/program files (x86)/on semiconductor/ide_v3.4.0.48/arm_tools/bin/../lib/gcc/arm-none-eabi/10.2.1/../../../../arm-none-eabi/lib/thumb/v7-m/nofp\libnosys.a(kill.o)
 .ARM.attributes
                0x00001749       0x2d c:/program files (x86)/on semiconductor/ide_v3.4.0.48/arm_tools/bin/../lib/gcc/arm-none-eabi/10.2.1/../../../../arm-none-eabi/lib/thumb/v7-m/nofp\libnosys.a(lseek.o)
 .ARM.attributes
                0x00001776       0x2d c:/program files (x86)/on semiconductor/ide_v3.4.0.48/arm_tools/bin/../lib/gcc/arm-none-eabi/10.2.1/../../../../arm-none-eabi/lib/thumb/v7-m/nofp\libnosys.a(read.o)
 .ARM.attributes
                0x000017a3       0x2d c:/program files (x86)/on semiconductor/ide_v3.4.0.48/arm_tools/bin/../lib/gcc/arm-none-eabi/10.2.1/../../../../arm-none-eabi/lib/thumb/v7-m/nofp\libnosys.a(write.o)
 .ARM.attributes
                0x000017d0       0x2d c:/program files (x86)/on semiconductor/ide_v3.4.0.48/arm_tools/bin/../lib/gcc/arm-none-eabi/10.2.1/../../../../arm-none-eabi/lib/thumb/v7-m/nofp\libnosys.a(_exit.o)

.stack          0x00000000      0x400
 .stack         0x00000000      0x400 ./RTE/Device/RSL10/startup_rsl10.o
                0x00000000                __stack_mem

.heap           0x00000000        0x0
 .heap          0x00000000        0x0 ./RTE/Device/RSL10/startup_rsl10.o

.debug_frame    0x00000000     0x2cdc
 .debug_frame   0x00000000      0x188 ./code/app_bass.o
 .debug_frame   0x00000188       0xdc ./code/app_init.o
 .debug_frame   0x00000264       0xd0 ./code/app_process.o
 .debug_frame   0x00000334      0x17c ./code/ble_basc.o
 .debug_frame   0x000004b0      0x1b8 ./code/ble_custom.o
 .debug_frame   0x00000668      0x2ac ./code/ble_std.o
 .debug_frame   0x00000914      0x1f8 ./code/uart.o
 .debug_frame   0x00000b0c      0x17c ./code/ui_handler.o
 .debug_frame   0x00000c88      0x52c ./RTE/Utility/SEGGER_RTT.o
 .debug_frame   0x000011b4       0xe0 ./RTE/Utility/SEGGER_RTT_printf.o
 .debug_frame   0x00001294       0x2c ./RTE/Utility/printf.o
 .debug_frame   0x000012c0      0x17c ./RTE/Device/RSL10/rsl10_protocol.o
 .debug_frame   0x0000143c       0x38 ./RTE/Device/RSL10/rsl10_sys_dma.o
 .debug_frame   0x00001474      0x154 ./RTE/Device/RSL10/rsl10_sys_power.o
 .debug_frame   0x000015c8      0x118 ./RTE/Device/RSL10/rsl10_sys_rffe.o
 .debug_frame   0x000016e0       0x38 ./RTE/Device/RSL10/rsl10_sys_uart.o
 .debug_frame   0x00001718       0x34 ./RTE/Device/RSL10/sbrk.o
 .debug_frame   0x0000174c      0x110 ./RTE/Device/RSL10/start.o
 .debug_frame   0x0000185c       0x9c ./RTE/Device/RSL10/system_rsl10.o
 .debug_frame   0x000018f8      0x690 ./RTE/Device/stubprf.o
 .debug_frame   0x00001f88       0x50 ./app.o
 .debug_frame   0x00001fd8       0x2c c:/program files (x86)/on semiconductor/ide_v3.4.0.48/arm_tools/bin/../lib/gcc/arm-none-eabi/10.2.1/../../../../arm-none-eabi/lib/thumb/v7-m/nofp\libm.a(lib_a-s_round.o)
 .debug_frame   0x00002004       0xac c:/program files (x86)/on semiconductor/ide_v3.4.0.48/arm_tools/bin/../lib/gcc/arm-none-eabi/10.2.1/thumb/v7-m/nofp\libgcc.a(_arm_addsubdf3.o)
 .debug_frame   0x000020b0       0x50 c:/program files (x86)/on semiconductor/ide_v3.4.0.48/arm_tools/bin/../lib/gcc/arm-none-eabi/10.2.1/thumb/v7-m/nofp\libgcc.a(_arm_muldivdf3.o)
 .debug_frame   0x00002100       0x24 c:/program files (x86)/on semiconductor/ide_v3.4.0.48/arm_tools/bin/../lib/gcc/arm-none-eabi/10.2.1/thumb/v7-m/nofp\libgcc.a(_arm_fixdfsi.o)
 .debug_frame   0x00002124       0x24 c:/program files (x86)/on semiconductor/ide_v3.4.0.48/arm_tools/bin/../lib/gcc/arm-none-eabi/10.2.1/thumb/v7-m/nofp\libgcc.a(_arm_fixunsdfsi.o)
 .debug_frame   0x00002148       0x24 c:/program files (x86)/on semiconductor/ide_v3.4.0.48/arm_tools/bin/../lib/gcc/arm-none-eabi/10.2.1/thumb/v7-m/nofp\libgcc.a(_arm_truncdfsf2.o)
 .debug_frame   0x0000216c       0x24 c:/program files (x86)/on semiconductor/ide_v3.4.0.48/arm_tools/bin/../lib/gcc/arm-none-eabi/10.2.1/thumb/v7-m/nofp\libgcc.a(_arm_fixsfsi.o)
 .debug_frame   0x00002190       0x20 c:/program files (x86)/on semiconductor/ide_v3.4.0.48/arm_tools/bin/../lib/gcc/arm-none-eabi/10.2.1/../../../../arm-none-eabi/lib/thumb/v7-m/nofp\libg_nano.a(lib_a-errno.o)
 .debug_frame   0x000021b0       0x30 c:/program files (x86)/on semiconductor/ide_v3.4.0.48/arm_tools/bin/../lib/gcc/arm-none-eabi/10.2.1/../../../../arm-none-eabi/lib/thumb/v7-m/nofp\libg_nano.a(lib_a-malloc.o)
 .debug_frame   0x000021e0       0x28 c:/program files (x86)/on semiconductor/ide_v3.4.0.48/arm_tools/bin/../lib/gcc/arm-none-eabi/10.2.1/../../../../arm-none-eabi/lib/thumb/v7-m/nofp\libg_nano.a(lib_a-memcmp.o)
 .debug_frame   0x00002208       0x28 c:/program files (x86)/on semiconductor/ide_v3.4.0.48/arm_tools/bin/../lib/gcc/arm-none-eabi/10.2.1/../../../../arm-none-eabi/lib/thumb/v7-m/nofp\libg_nano.a(lib_a-memcpy-stub.o)
 .debug_frame   0x00002230       0x20 c:/program files (x86)/on semiconductor/ide_v3.4.0.48/arm_tools/bin/../lib/gcc/arm-none-eabi/10.2.1/../../../../arm-none-eabi/lib/thumb/v7-m/nofp\libg_nano.a(lib_a-memset.o)
 .debug_frame   0x00002250       0x38 c:/program files (x86)/on semiconductor/ide_v3.4.0.48/arm_tools/bin/../lib/gcc/arm-none-eabi/10.2.1/../../../../arm-none-eabi/lib/thumb/v7-m/nofp\libg_nano.a(lib_a-nano-freer.o)
 .debug_frame   0x00002288       0x30 c:/program files (x86)/on semiconductor/ide_v3.4.0.48/arm_tools/bin/../lib/gcc/arm-none-eabi/10.2.1/../../../../arm-none-eabi/lib/thumb/v7-m/nofp\libg_nano.a(lib_a-nano-mallocr.o)
 .debug_frame   0x000022b8       0x44 c:/program files (x86)/on semiconductor/ide_v3.4.0.48/arm_tools/bin/../lib/gcc/arm-none-eabi/10.2.1/../../../../arm-none-eabi/lib/thumb/v7-m/nofp\libg_nano.a(lib_a-rand.o)
 .debug_frame   0x000022fc       0x2c c:/program files (x86)/on semiconductor/ide_v3.4.0.48/arm_tools/bin/../lib/gcc/arm-none-eabi/10.2.1/../../../../arm-none-eabi/lib/thumb/v7-m/nofp\libg_nano.a(lib_a-sbrkr.o)
 .debug_frame   0x00002328       0x40 c:/program files (x86)/on semiconductor/ide_v3.4.0.48/arm_tools/bin/../lib/gcc/arm-none-eabi/10.2.1/../../../../arm-none-eabi/lib/thumb/v7-m/nofp\libg_nano.a(lib_a-assert.o)
 .debug_frame   0x00002368       0x64 c:/program files (x86)/on semiconductor/ide_v3.4.0.48/arm_tools/bin/../lib/gcc/arm-none-eabi/10.2.1/../../../../arm-none-eabi/lib/thumb/v7-m/nofp\libg_nano.a(lib_a-fprintf.o)
 .debug_frame   0x000023cc       0x30 c:/program files (x86)/on semiconductor/ide_v3.4.0.48/arm_tools/bin/../lib/gcc/arm-none-eabi/10.2.1/../../../../arm-none-eabi/lib/thumb/v7-m/nofp\libg_nano.a(lib_a-mlock.o)
 .debug_frame   0x000023fc       0xac c:/program files (x86)/on semiconductor/ide_v3.4.0.48/arm_tools/bin/../lib/gcc/arm-none-eabi/10.2.1/../../../../arm-none-eabi/lib/thumb/v7-m/nofp\libg_nano.a(lib_a-nano-vfprintf.o)
 .debug_frame   0x000024a8       0x60 c:/program files (x86)/on semiconductor/ide_v3.4.0.48/arm_tools/bin/../lib/gcc/arm-none-eabi/10.2.1/../../../../arm-none-eabi/lib/thumb/v7-m/nofp\libg_nano.a(lib_a-nano-vfprintf_i.o)
 .debug_frame   0x00002508       0x5c c:/program files (x86)/on semiconductor/ide_v3.4.0.48/arm_tools/bin/../lib/gcc/arm-none-eabi/10.2.1/../../../../arm-none-eabi/lib/thumb/v7-m/nofp\libg_nano.a(lib_a-reent.o)
 .debug_frame   0x00002564       0x40 c:/program files (x86)/on semiconductor/ide_v3.4.0.48/arm_tools/bin/../lib/gcc/arm-none-eabi/10.2.1/../../../../arm-none-eabi/lib/thumb/v7-m/nofp\libg_nano.a(lib_a-wbuf.o)
 .debug_frame   0x000025a4       0x2c c:/program files (x86)/on semiconductor/ide_v3.4.0.48/arm_tools/bin/../lib/gcc/arm-none-eabi/10.2.1/../../../../arm-none-eabi/lib/thumb/v7-m/nofp\libg_nano.a(lib_a-wsetup.o)
 .debug_frame   0x000025d0       0x28 c:/program files (x86)/on semiconductor/ide_v3.4.0.48/arm_tools/bin/../lib/gcc/arm-none-eabi/10.2.1/../../../../arm-none-eabi/lib/thumb/v7-m/nofp\libg_nano.a(lib_a-abort.o)
 .debug_frame   0x000025f8       0x5c c:/program files (x86)/on semiconductor/ide_v3.4.0.48/arm_tools/bin/../lib/gcc/arm-none-eabi/10.2.1/../../../../arm-none-eabi/lib/thumb/v7-m/nofp\libg_nano.a(lib_a-fflush.o)
 .debug_frame   0x00002654      0x14c c:/program files (x86)/on semiconductor/ide_v3.4.0.48/arm_tools/bin/../lib/gcc/arm-none-eabi/10.2.1/../../../../arm-none-eabi/lib/thumb/v7-m/nofp\libg_nano.a(lib_a-findfp.o)
 .debug_frame   0x000027a0       0x54 c:/program files (x86)/on semiconductor/ide_v3.4.0.48/arm_tools/bin/../lib/gcc/arm-none-eabi/10.2.1/../../../../arm-none-eabi/lib/thumb/v7-m/nofp\libg_nano.a(lib_a-fwalk.o)
 .debug_frame   0x000027f4       0xb0 c:/program files (x86)/on semiconductor/ide_v3.4.0.48/arm_tools/bin/../lib/gcc/arm-none-eabi/10.2.1/../../../../arm-none-eabi/lib/thumb/v7-m/nofp\libg_nano.a(lib_a-lock.o)
 .debug_frame   0x000028a4       0x58 c:/program files (x86)/on semiconductor/ide_v3.4.0.48/arm_tools/bin/../lib/gcc/arm-none-eabi/10.2.1/../../../../arm-none-eabi/lib/thumb/v7-m/nofp\libg_nano.a(lib_a-makebuf.o)
 .debug_frame   0x000028fc       0x28 c:/program files (x86)/on semiconductor/ide_v3.4.0.48/arm_tools/bin/../lib/gcc/arm-none-eabi/10.2.1/../../../../arm-none-eabi/lib/thumb/v7-m/nofp\libg_nano.a(lib_a-memchr-stub.o)
 .debug_frame   0x00002924       0xcc c:/program files (x86)/on semiconductor/ide_v3.4.0.48/arm_tools/bin/../lib/gcc/arm-none-eabi/10.2.1/../../../../arm-none-eabi/lib/thumb/v7-m/nofp\libg_nano.a(lib_a-signal.o)
 .debug_frame   0x000029f0       0x3c c:/program files (x86)/on semiconductor/ide_v3.4.0.48/arm_tools/bin/../lib/gcc/arm-none-eabi/10.2.1/../../../../arm-none-eabi/lib/thumb/v7-m/nofp\libg_nano.a(lib_a-signalr.o)
 .debug_frame   0x00002a2c       0x88 c:/program files (x86)/on semiconductor/ide_v3.4.0.48/arm_tools/bin/../lib/gcc/arm-none-eabi/10.2.1/../../../../arm-none-eabi/lib/thumb/v7-m/nofp\libg_nano.a(lib_a-stdio.o)
 .debug_frame   0x00002ab4       0x2c c:/program files (x86)/on semiconductor/ide_v3.4.0.48/arm_tools/bin/../lib/gcc/arm-none-eabi/10.2.1/../../../../arm-none-eabi/lib/thumb/v7-m/nofp\libg_nano.a(lib_a-writer.o)
 .debug_frame   0x00002ae0       0x2c c:/program files (x86)/on semiconductor/ide_v3.4.0.48/arm_tools/bin/../lib/gcc/arm-none-eabi/10.2.1/../../../../arm-none-eabi/lib/thumb/v7-m/nofp\libg_nano.a(lib_a-closer.o)
 .debug_frame   0x00002b0c       0x2c c:/program files (x86)/on semiconductor/ide_v3.4.0.48/arm_tools/bin/../lib/gcc/arm-none-eabi/10.2.1/../../../../arm-none-eabi/lib/thumb/v7-m/nofp\libg_nano.a(lib_a-fstatr.o)
 .debug_frame   0x00002b38       0x2c c:/program files (x86)/on semiconductor/ide_v3.4.0.48/arm_tools/bin/../lib/gcc/arm-none-eabi/10.2.1/../../../../arm-none-eabi/lib/thumb/v7-m/nofp\libg_nano.a(lib_a-isattyr.o)
 .debug_frame   0x00002b64       0x2c c:/program files (x86)/on semiconductor/ide_v3.4.0.48/arm_tools/bin/../lib/gcc/arm-none-eabi/10.2.1/../../../../arm-none-eabi/lib/thumb/v7-m/nofp\libg_nano.a(lib_a-lseekr.o)
 .debug_frame   0x00002b90       0x2c c:/program files (x86)/on semiconductor/ide_v3.4.0.48/arm_tools/bin/../lib/gcc/arm-none-eabi/10.2.1/../../../../arm-none-eabi/lib/thumb/v7-m/nofp\libg_nano.a(lib_a-readr.o)
 .debug_frame   0x00002bbc       0x20 c:/program files (x86)/on semiconductor/ide_v3.4.0.48/arm_tools/bin/../lib/gcc/arm-none-eabi/10.2.1/../../../../arm-none-eabi/lib/thumb/v7-m/nofp\libnosys.a(close.o)
 .debug_frame   0x00002bdc       0x20 c:/program files (x86)/on semiconductor/ide_v3.4.0.48/arm_tools/bin/../lib/gcc/arm-none-eabi/10.2.1/../../../../arm-none-eabi/lib/thumb/v7-m/nofp\libnosys.a(fstat.o)
 .debug_frame   0x00002bfc       0x20 c:/program files (x86)/on semiconductor/ide_v3.4.0.48/arm_tools/bin/../lib/gcc/arm-none-eabi/10.2.1/../../../../arm-none-eabi/lib/thumb/v7-m/nofp\libnosys.a(getpid.o)
 .debug_frame   0x00002c1c       0x20 c:/program files (x86)/on semiconductor/ide_v3.4.0.48/arm_tools/bin/../lib/gcc/arm-none-eabi/10.2.1/../../../../arm-none-eabi/lib/thumb/v7-m/nofp\libnosys.a(isatty.o)
 .debug_frame   0x00002c3c       0x20 c:/program files (x86)/on semiconductor/ide_v3.4.0.48/arm_tools/bin/../lib/gcc/arm-none-eabi/10.2.1/../../../../arm-none-eabi/lib/thumb/v7-m/nofp\libnosys.a(kill.o)
 .debug_frame   0x00002c5c       0x20 c:/program files (x86)/on semiconductor/ide_v3.4.0.48/arm_tools/bin/../lib/gcc/arm-none-eabi/10.2.1/../../../../arm-none-eabi/lib/thumb/v7-m/nofp\libnosys.a(lseek.o)
 .debug_frame   0x00002c7c       0x20 c:/program files (x86)/on semiconductor/ide_v3.4.0.48/arm_tools/bin/../lib/gcc/arm-none-eabi/10.2.1/../../../../arm-none-eabi/lib/thumb/v7-m/nofp\libnosys.a(read.o)
 .debug_frame   0x00002c9c       0x20 c:/program files (x86)/on semiconductor/ide_v3.4.0.48/arm_tools/bin/../lib/gcc/arm-none-eabi/10.2.1/../../../../arm-none-eabi/lib/thumb/v7-m/nofp\libnosys.a(write.o)
 .debug_frame   0x00002cbc       0x20 c:/program files (x86)/on semiconductor/ide_v3.4.0.48/arm_tools/bin/../lib/gcc/arm-none-eabi/10.2.1/../../../../arm-none-eabi/lib/thumb/v7-m/nofp\libnosys.a(_exit.o)

.stab           0x00000000       0xcc
 .stab          0x00000000       0x24 c:/program files (x86)/on semiconductor/ide_v3.4.0.48/arm_tools/bin/../lib/gcc/arm-none-eabi/10.2.1/../../../../arm-none-eabi/lib/thumb/v7-m/nofp\libnosys.a(close.o)
 .stab          0x00000024       0x18 c:/program files (x86)/on semiconductor/ide_v3.4.0.48/arm_tools/bin/../lib/gcc/arm-none-eabi/10.2.1/../../../../arm-none-eabi/lib/thumb/v7-m/nofp\libnosys.a(fstat.o)
                                 0x24 (size before relaxing)
 .stab          0x0000003c       0x18 c:/program files (x86)/on semiconductor/ide_v3.4.0.48/arm_tools/bin/../lib/gcc/arm-none-eabi/10.2.1/../../../../arm-none-eabi/lib/thumb/v7-m/nofp\libnosys.a(getpid.o)
                                 0x24 (size before relaxing)
 .stab          0x00000054       0x18 c:/program files (x86)/on semiconductor/ide_v3.4.0.48/arm_tools/bin/../lib/gcc/arm-none-eabi/10.2.1/../../../../arm-none-eabi/lib/thumb/v7-m/nofp\libnosys.a(isatty.o)
                                 0x24 (size before relaxing)
 .stab          0x0000006c       0x18 c:/program files (x86)/on semiconductor/ide_v3.4.0.48/arm_tools/bin/../lib/gcc/arm-none-eabi/10.2.1/../../../../arm-none-eabi/lib/thumb/v7-m/nofp\libnosys.a(kill.o)
                                 0x24 (size before relaxing)
 .stab          0x00000084       0x18 c:/program files (x86)/on semiconductor/ide_v3.4.0.48/arm_tools/bin/../lib/gcc/arm-none-eabi/10.2.1/../../../../arm-none-eabi/lib/thumb/v7-m/nofp\libnosys.a(lseek.o)
                                 0x24 (size before relaxing)
 .stab          0x0000009c       0x18 c:/program files (x86)/on semiconductor/ide_v3.4.0.48/arm_tools/bin/../lib/gcc/arm-none-eabi/10.2.1/../../../../arm-none-eabi/lib/thumb/v7-m/nofp\libnosys.a(read.o)
                                 0x24 (size before relaxing)
 .stab          0x000000b4       0x18 c:/program files (x86)/on semiconductor/ide_v3.4.0.48/arm_tools/bin/../lib/gcc/arm-none-eabi/10.2.1/../../../../arm-none-eabi/lib/thumb/v7-m/nofp\libnosys.a(write.o)
                                 0x24 (size before relaxing)

.stabstr        0x00000000      0x1b9
 .stabstr       0x00000000      0x1b9 c:/program files (x86)/on semiconductor/ide_v3.4.0.48/arm_tools/bin/../lib/gcc/arm-none-eabi/10.2.1/../../../../arm-none-eabi/lib/thumb/v7-m/nofp\libnosys.a(close.o)
